ARM GAS  C:\Users\Craig\AppData\Local\Temp\ccvnBOGy.s 			page 1


   1              		.syntax unified
   2              		.cpu cortex-m3
   3              		.fpu softvfp
   4              		.eabi_attribute 20, 1
   5              		.eabi_attribute 21, 1
   6              		.eabi_attribute 23, 3
   7              		.eabi_attribute 24, 1
   8              		.eabi_attribute 25, 1
   9              		.eabi_attribute 26, 1
  10              		.eabi_attribute 30, 6
  11              		.eabi_attribute 18, 4
  12              		.thumb
  13              		.file	"cyfitter_cfg.c"
  20 0000 C0010000 		.text
  20      0200EA00 
  20      00000201 
  20      FB0E0D00 
  20      01010101 
  21              	.Ltext0:
  22              		.cfi_sections	.debug_frame
  23              		.section	.text.CYMEMZERO,"ax",%progbits
  24              		.align	2
  25              		.thumb
  26              		.thumb_func
  27              		.type	CYMEMZERO, %function
  28              	CYMEMZERO:
  29              	.LFB0:
  30              		.file 1 ".\\Generated_Source\\PSoC5\\cyfitter_cfg.c"
   1:.\Generated_Source\PSoC5/cyfitter_cfg.c **** /*******************************************************************************
   2:.\Generated_Source\PSoC5/cyfitter_cfg.c **** * FILENAME: cyfitter_cfg.c
   3:.\Generated_Source\PSoC5/cyfitter_cfg.c **** * PSoC Creator 2.2 Component Pack 5
   4:.\Generated_Source\PSoC5/cyfitter_cfg.c **** *
   5:.\Generated_Source\PSoC5/cyfitter_cfg.c **** * Description:
   6:.\Generated_Source\PSoC5/cyfitter_cfg.c **** * This file is automatically generated by PSoC Creator with device 
   7:.\Generated_Source\PSoC5/cyfitter_cfg.c **** * initialization code.  Except for the user defined sections in
   8:.\Generated_Source\PSoC5/cyfitter_cfg.c **** * CyClockStartupError(), this file should not be modified.
   9:.\Generated_Source\PSoC5/cyfitter_cfg.c **** *
  10:.\Generated_Source\PSoC5/cyfitter_cfg.c **** ********************************************************************************
  11:.\Generated_Source\PSoC5/cyfitter_cfg.c **** * Copyright 2012, Cypress Semiconductor Corporation.  All rights reserved.
  12:.\Generated_Source\PSoC5/cyfitter_cfg.c **** * You may use this file only in accordance with the license, terms, conditions, 
  13:.\Generated_Source\PSoC5/cyfitter_cfg.c **** * disclaimers, and limitations in the end user license agreement accompanying 
  14:.\Generated_Source\PSoC5/cyfitter_cfg.c **** * the software package with which this file was provided.
  15:.\Generated_Source\PSoC5/cyfitter_cfg.c **** ********************************************************************************/
  16:.\Generated_Source\PSoC5/cyfitter_cfg.c **** 
  17:.\Generated_Source\PSoC5/cyfitter_cfg.c **** #include <string.h>
  18:.\Generated_Source\PSoC5/cyfitter_cfg.c **** #include <cytypes.h>
  19:.\Generated_Source\PSoC5/cyfitter_cfg.c **** #include <cydevice_trm.h>
  20:.\Generated_Source\PSoC5/cyfitter_cfg.c **** #include <cyfitter.h>
  21:.\Generated_Source\PSoC5/cyfitter_cfg.c **** #include <CyLib.h>
  22:.\Generated_Source\PSoC5/cyfitter_cfg.c **** #include <cyfitter_cfg.h>
  23:.\Generated_Source\PSoC5/cyfitter_cfg.c **** 
ARM GAS  C:\Users\Craig\AppData\Local\Temp\ccvnBOGy.s 			page 2


  24:.\Generated_Source\PSoC5/cyfitter_cfg.c **** /* Clock startup error codes                                                   */
  25:.\Generated_Source\PSoC5/cyfitter_cfg.c **** #define CYCLOCKSTART_NO_ERROR    0u
  26:.\Generated_Source\PSoC5/cyfitter_cfg.c **** #define CYCLOCKSTART_XTAL_ERROR  1u
  27:.\Generated_Source\PSoC5/cyfitter_cfg.c **** #define CYCLOCKSTART_32KHZ_ERROR 2u
  28:.\Generated_Source\PSoC5/cyfitter_cfg.c **** #define CYCLOCKSTART_PLL_ERROR   3u
  29:.\Generated_Source\PSoC5/cyfitter_cfg.c **** 
  30:.\Generated_Source\PSoC5/cyfitter_cfg.c **** #ifdef CY_NEED_CYCLOCKSTARTUPERROR
  31:.\Generated_Source\PSoC5/cyfitter_cfg.c **** /*******************************************************************************
  32:.\Generated_Source\PSoC5/cyfitter_cfg.c **** * Function Name: CyClockStartupError
  33:.\Generated_Source\PSoC5/cyfitter_cfg.c **** ********************************************************************************
  34:.\Generated_Source\PSoC5/cyfitter_cfg.c **** * Summary:
  35:.\Generated_Source\PSoC5/cyfitter_cfg.c **** *  If an error is encountered during clock configuration (crystal startup error,
  36:.\Generated_Source\PSoC5/cyfitter_cfg.c **** *  PLL lock error, etc.), the system will end up here.  Unless reimplemented by
  37:.\Generated_Source\PSoC5/cyfitter_cfg.c **** *  the customer, this function will stop in an infinite loop.
  38:.\Generated_Source\PSoC5/cyfitter_cfg.c **** *
  39:.\Generated_Source\PSoC5/cyfitter_cfg.c **** * Parameters:
  40:.\Generated_Source\PSoC5/cyfitter_cfg.c **** *   void
  41:.\Generated_Source\PSoC5/cyfitter_cfg.c **** *
  42:.\Generated_Source\PSoC5/cyfitter_cfg.c **** * Return:
  43:.\Generated_Source\PSoC5/cyfitter_cfg.c **** *   void
  44:.\Generated_Source\PSoC5/cyfitter_cfg.c **** *
  45:.\Generated_Source\PSoC5/cyfitter_cfg.c **** *******************************************************************************/
  46:.\Generated_Source\PSoC5/cyfitter_cfg.c **** #if defined(__GNUC__) || defined(__ARMCC_VERSION)
  47:.\Generated_Source\PSoC5/cyfitter_cfg.c **** __attribute__ ((unused))
  48:.\Generated_Source\PSoC5/cyfitter_cfg.c **** #endif
  49:.\Generated_Source\PSoC5/cyfitter_cfg.c **** static void CyClockStartupError(uint8 errorCode);
  50:.\Generated_Source\PSoC5/cyfitter_cfg.c **** #if defined(__GNUC__) || defined(__ARMCC_VERSION)
  51:.\Generated_Source\PSoC5/cyfitter_cfg.c **** __attribute__ ((unused))
  52:.\Generated_Source\PSoC5/cyfitter_cfg.c **** #endif
  53:.\Generated_Source\PSoC5/cyfitter_cfg.c **** static void CyClockStartupError(uint8 errorCode)
  54:.\Generated_Source\PSoC5/cyfitter_cfg.c **** {
  55:.\Generated_Source\PSoC5/cyfitter_cfg.c ****     /* To remove the compiler warning if errorCode not used.                */
  56:.\Generated_Source\PSoC5/cyfitter_cfg.c ****     errorCode = errorCode;
  57:.\Generated_Source\PSoC5/cyfitter_cfg.c **** 
  58:.\Generated_Source\PSoC5/cyfitter_cfg.c ****     /* `#START CyClockStartupError` */
  59:.\Generated_Source\PSoC5/cyfitter_cfg.c **** 
  60:.\Generated_Source\PSoC5/cyfitter_cfg.c ****     /* If we have a clock startup error (bad MHz crystal, PLL lock, etc.),  */
  61:.\Generated_Source\PSoC5/cyfitter_cfg.c ****     /* we will end up here to allow the customer to implement something to  */
  62:.\Generated_Source\PSoC5/cyfitter_cfg.c ****     /* deal with the clock condition.                                       */
  63:.\Generated_Source\PSoC5/cyfitter_cfg.c **** 
  64:.\Generated_Source\PSoC5/cyfitter_cfg.c ****     /* `#END` */
  65:.\Generated_Source\PSoC5/cyfitter_cfg.c **** 
  66:.\Generated_Source\PSoC5/cyfitter_cfg.c ****     /* If nothing else, stop here since the clocks have not started         */
  67:.\Generated_Source\PSoC5/cyfitter_cfg.c ****     /* correctly.                                                           */
  68:.\Generated_Source\PSoC5/cyfitter_cfg.c ****     while(1) {}
  69:.\Generated_Source\PSoC5/cyfitter_cfg.c **** }
  70:.\Generated_Source\PSoC5/cyfitter_cfg.c **** #endif
  71:.\Generated_Source\PSoC5/cyfitter_cfg.c **** 
  72:.\Generated_Source\PSoC5/cyfitter_cfg.c **** 
  73:.\Generated_Source\PSoC5/cyfitter_cfg.c **** #if defined(__GNUC__) || defined(__ARMCC_VERSION)
  74:.\Generated_Source\PSoC5/cyfitter_cfg.c **** 	#define CYPACKED __attribute__ ((packed))
  75:.\Generated_Source\PSoC5/cyfitter_cfg.c **** 	#define CYALIGNED __attribute__ ((aligned))
  76:.\Generated_Source\PSoC5/cyfitter_cfg.c **** 	
  77:.\Generated_Source\PSoC5/cyfitter_cfg.c **** 	#if defined(__ARMCC_VERSION)
  78:.\Generated_Source\PSoC5/cyfitter_cfg.c **** 		#define CY_CFG_MEMORY_BARRIER() __memory_changed()
  79:.\Generated_Source\PSoC5/cyfitter_cfg.c **** 	#else
  80:.\Generated_Source\PSoC5/cyfitter_cfg.c **** 		#define CY_CFG_MEMORY_BARRIER() __sync_synchronize()
ARM GAS  C:\Users\Craig\AppData\Local\Temp\ccvnBOGy.s 			page 3


  81:.\Generated_Source\PSoC5/cyfitter_cfg.c **** 	#endif
  82:.\Generated_Source\PSoC5/cyfitter_cfg.c **** 	
  83:.\Generated_Source\PSoC5/cyfitter_cfg.c **** 
  84:.\Generated_Source\PSoC5/cyfitter_cfg.c **** 	__attribute__ ((unused))
  85:.\Generated_Source\PSoC5/cyfitter_cfg.c **** 	static void CYMEMZERO(void *s, size_t n);
  86:.\Generated_Source\PSoC5/cyfitter_cfg.c **** 	__attribute__ ((unused))
  87:.\Generated_Source\PSoC5/cyfitter_cfg.c **** 	static void CYMEMZERO(void *s, size_t n)
  88:.\Generated_Source\PSoC5/cyfitter_cfg.c **** 	{
  31              		.loc 1 88 0
  32              		.cfi_startproc
  33              		@ args = 0, pretend = 0, frame = 8
  34              		@ frame_needed = 1, uses_anonymous_args = 0
  35 0000 80B5     		push	{r7, lr}
  36              	.LCFI0:
  37              		.cfi_def_cfa_offset 8
  38 0002 82B0     		sub	sp, sp, #8
  39              	.LCFI1:
  40              		.cfi_def_cfa_offset 16
  41 0004 00AF     		add	r7, sp, #0
  42              		.cfi_offset 14, -4
  43              		.cfi_offset 7, -8
  44              	.LCFI2:
  45              		.cfi_def_cfa_register 7
  46 0006 7860     		str	r0, [r7, #4]
  47 0008 3960     		str	r1, [r7, #0]
  89:.\Generated_Source\PSoC5/cyfitter_cfg.c **** 		(void)memset(s, 0, n);
  48              		.loc 1 89 0
  49 000a 7868     		ldr	r0, [r7, #4]
  50 000c 4FF00001 		mov	r1, #0
  51 0010 3A68     		ldr	r2, [r7, #0]
  52 0012 FFF7FEFF 		bl	memset
  90:.\Generated_Source\PSoC5/cyfitter_cfg.c **** 	}
  53              		.loc 1 90 0
  54 0016 07F10807 		add	r7, r7, #8
  55 001a BD46     		mov	sp, r7
  56 001c 80BD     		pop	{r7, pc}
  57              		.cfi_endproc
  58              	.LFE0:
  59              		.size	CYMEMZERO, .-CYMEMZERO
  60 001e 00BF     		.section	.text.CYCONFIGCPY,"ax",%progbits
  61              		.align	2
  62              		.thumb
  63              		.thumb_func
  64              		.type	CYCONFIGCPY, %function
  65              	CYCONFIGCPY:
  66              	.LFB1:
  91:.\Generated_Source\PSoC5/cyfitter_cfg.c **** 	__attribute__ ((unused))
  92:.\Generated_Source\PSoC5/cyfitter_cfg.c **** 	static void CYCONFIGCPY(void *dest, const void *src, size_t n);
  93:.\Generated_Source\PSoC5/cyfitter_cfg.c **** 	__attribute__ ((unused))
  94:.\Generated_Source\PSoC5/cyfitter_cfg.c **** 	static void CYCONFIGCPY(void *dest, const void *src, size_t n)
  95:.\Generated_Source\PSoC5/cyfitter_cfg.c **** 	{
  67              		.loc 1 95 0
  68              		.cfi_startproc
  69              		@ args = 0, pretend = 0, frame = 16
  70              		@ frame_needed = 1, uses_anonymous_args = 0
  71 0000 80B5     		push	{r7, lr}
  72              	.LCFI3:
ARM GAS  C:\Users\Craig\AppData\Local\Temp\ccvnBOGy.s 			page 4


  73              		.cfi_def_cfa_offset 8
  74 0002 84B0     		sub	sp, sp, #16
  75              	.LCFI4:
  76              		.cfi_def_cfa_offset 24
  77 0004 00AF     		add	r7, sp, #0
  78              		.cfi_offset 14, -4
  79              		.cfi_offset 7, -8
  80              	.LCFI5:
  81              		.cfi_def_cfa_register 7
  82 0006 F860     		str	r0, [r7, #12]
  83 0008 B960     		str	r1, [r7, #8]
  84 000a 7A60     		str	r2, [r7, #4]
  96:.\Generated_Source\PSoC5/cyfitter_cfg.c **** 		(void)memcpy(dest, src, n);
  85              		.loc 1 96 0
  86 000c F868     		ldr	r0, [r7, #12]
  87 000e B968     		ldr	r1, [r7, #8]
  88 0010 7A68     		ldr	r2, [r7, #4]
  89 0012 FFF7FEFF 		bl	memcpy
  97:.\Generated_Source\PSoC5/cyfitter_cfg.c **** 	}
  90              		.loc 1 97 0
  91 0016 07F11007 		add	r7, r7, #16
  92 001a BD46     		mov	sp, r7
  93 001c 80BD     		pop	{r7, pc}
  94              		.cfi_endproc
  95              	.LFE1:
  96              		.size	CYCONFIGCPY, .-CYCONFIGCPY
  97 001e 00BF     		.section	.text.CYCONFIGCPYCODE,"ax",%progbits
  98              		.align	2
  99              		.thumb
 100              		.thumb_func
 101              		.type	CYCONFIGCPYCODE, %function
 102              	CYCONFIGCPYCODE:
 103              	.LFB2:
  98:.\Generated_Source\PSoC5/cyfitter_cfg.c **** 	__attribute__ ((unused))
  99:.\Generated_Source\PSoC5/cyfitter_cfg.c **** 	static void CYCONFIGCPYCODE(void *dest, const void *src, size_t n);
 100:.\Generated_Source\PSoC5/cyfitter_cfg.c **** 	__attribute__ ((unused))
 101:.\Generated_Source\PSoC5/cyfitter_cfg.c **** 	static void CYCONFIGCPYCODE(void *dest, const void *src, size_t n)
 102:.\Generated_Source\PSoC5/cyfitter_cfg.c **** 	{
 104              		.loc 1 102 0
 105              		.cfi_startproc
 106              		@ args = 0, pretend = 0, frame = 16
 107              		@ frame_needed = 1, uses_anonymous_args = 0
 108 0000 80B5     		push	{r7, lr}
 109              	.LCFI6:
 110              		.cfi_def_cfa_offset 8
 111 0002 84B0     		sub	sp, sp, #16
 112              	.LCFI7:
 113              		.cfi_def_cfa_offset 24
 114 0004 00AF     		add	r7, sp, #0
 115              		.cfi_offset 14, -4
 116              		.cfi_offset 7, -8
 117              	.LCFI8:
 118              		.cfi_def_cfa_register 7
 119 0006 F860     		str	r0, [r7, #12]
 120 0008 B960     		str	r1, [r7, #8]
 121 000a 7A60     		str	r2, [r7, #4]
 103:.\Generated_Source\PSoC5/cyfitter_cfg.c **** 		(void)memcpy(dest, src, n);
ARM GAS  C:\Users\Craig\AppData\Local\Temp\ccvnBOGy.s 			page 5


 122              		.loc 1 103 0
 123 000c F868     		ldr	r0, [r7, #12]
 124 000e B968     		ldr	r1, [r7, #8]
 125 0010 7A68     		ldr	r2, [r7, #4]
 126 0012 FFF7FEFF 		bl	memcpy
 104:.\Generated_Source\PSoC5/cyfitter_cfg.c **** 	}
 127              		.loc 1 104 0
 128 0016 07F11007 		add	r7, r7, #16
 129 001a BD46     		mov	sp, r7
 130 001c 80BD     		pop	{r7, pc}
 131              		.cfi_endproc
 132              	.LFE2:
 133              		.size	CYCONFIGCPYCODE, .-CYCONFIGCPYCODE
 134 001e 00BF     		.section	.text.cfg_write_bytes32,"ax",%progbits
 135              		.align	2
 136              		.thumb
 137              		.thumb_func
 138              		.type	cfg_write_bytes32, %function
 139              	cfg_write_bytes32:
 140              	.LFB3:
 105:.\Generated_Source\PSoC5/cyfitter_cfg.c **** #else
 106:.\Generated_Source\PSoC5/cyfitter_cfg.c **** 	#error Unsupported toolchain
 107:.\Generated_Source\PSoC5/cyfitter_cfg.c **** #endif
 108:.\Generated_Source\PSoC5/cyfitter_cfg.c **** 
 109:.\Generated_Source\PSoC5/cyfitter_cfg.c **** #define CY_CFG_BASE_ADDR_COUNT 24u
 110:.\Generated_Source\PSoC5/cyfitter_cfg.c **** typedef struct
 111:.\Generated_Source\PSoC5/cyfitter_cfg.c **** {
 112:.\Generated_Source\PSoC5/cyfitter_cfg.c **** 	uint8 offset;
 113:.\Generated_Source\PSoC5/cyfitter_cfg.c **** 	uint8 value;
 114:.\Generated_Source\PSoC5/cyfitter_cfg.c **** } CYPACKED cy_cfg_addrvalue_t;
 115:.\Generated_Source\PSoC5/cyfitter_cfg.c **** 
 116:.\Generated_Source\PSoC5/cyfitter_cfg.c **** #define cy_cfg_addr_table ((const uint32 CYFAR *)0x48000000u)
 117:.\Generated_Source\PSoC5/cyfitter_cfg.c **** #define cy_cfg_data_table ((const cy_cfg_addrvalue_t CYFAR *)0x48000060u)
 118:.\Generated_Source\PSoC5/cyfitter_cfg.c **** 
 119:.\Generated_Source\PSoC5/cyfitter_cfg.c **** /* IOPINS0_7 Address: CYREG_PRT12_DR Size (bytes): 10 */
 120:.\Generated_Source\PSoC5/cyfitter_cfg.c **** #define BS_IOPINS0_7_VAL ((const uint8 CYFAR *)0x48000474u)
 121:.\Generated_Source\PSoC5/cyfitter_cfg.c **** 
 122:.\Generated_Source\PSoC5/cyfitter_cfg.c **** /* IOPINS0_2 Address: CYREG_PRT2_DM0 Size (bytes): 8 */
 123:.\Generated_Source\PSoC5/cyfitter_cfg.c **** #define BS_IOPINS0_2_VAL ((const uint8 CYFAR *)0x48000480u)
 124:.\Generated_Source\PSoC5/cyfitter_cfg.c **** 
 125:.\Generated_Source\PSoC5/cyfitter_cfg.c **** /* IOPINS0_3 Address: CYREG_PRT3_DR Size (bytes): 10 */
 126:.\Generated_Source\PSoC5/cyfitter_cfg.c **** #define BS_IOPINS0_3_VAL ((const uint8 CYFAR *)0x48000488u)
 127:.\Generated_Source\PSoC5/cyfitter_cfg.c **** 
 128:.\Generated_Source\PSoC5/cyfitter_cfg.c **** /* IOPINS0_4 Address: CYREG_PRT4_DM0 Size (bytes): 8 */
 129:.\Generated_Source\PSoC5/cyfitter_cfg.c **** #define BS_IOPINS0_4_VAL ((const uint8 CYFAR *)0x48000494u)
 130:.\Generated_Source\PSoC5/cyfitter_cfg.c **** 
 131:.\Generated_Source\PSoC5/cyfitter_cfg.c **** /* IOPINS0_6 Address: CYREG_PRT6_DM0 Size (bytes): 8 */
 132:.\Generated_Source\PSoC5/cyfitter_cfg.c **** #define BS_IOPINS0_6_VAL ((const uint8 CYFAR *)0x4800049Cu)
 133:.\Generated_Source\PSoC5/cyfitter_cfg.c **** 
 134:.\Generated_Source\PSoC5/cyfitter_cfg.c **** 
 135:.\Generated_Source\PSoC5/cyfitter_cfg.c **** /*******************************************************************************
 136:.\Generated_Source\PSoC5/cyfitter_cfg.c **** * Function Name: cfg_write_bytes32
 137:.\Generated_Source\PSoC5/cyfitter_cfg.c **** ********************************************************************************
 138:.\Generated_Source\PSoC5/cyfitter_cfg.c **** * Summary:
 139:.\Generated_Source\PSoC5/cyfitter_cfg.c **** *  This function is used for setting up the chip configuration areas that
 140:.\Generated_Source\PSoC5/cyfitter_cfg.c **** *  contain relatively sparse data.
 141:.\Generated_Source\PSoC5/cyfitter_cfg.c **** *
ARM GAS  C:\Users\Craig\AppData\Local\Temp\ccvnBOGy.s 			page 6


 142:.\Generated_Source\PSoC5/cyfitter_cfg.c **** * Parameters:
 143:.\Generated_Source\PSoC5/cyfitter_cfg.c **** *   void
 144:.\Generated_Source\PSoC5/cyfitter_cfg.c **** *
 145:.\Generated_Source\PSoC5/cyfitter_cfg.c **** * Return:
 146:.\Generated_Source\PSoC5/cyfitter_cfg.c **** *   void
 147:.\Generated_Source\PSoC5/cyfitter_cfg.c **** *
 148:.\Generated_Source\PSoC5/cyfitter_cfg.c **** *******************************************************************************/
 149:.\Generated_Source\PSoC5/cyfitter_cfg.c **** static void cfg_write_bytes32(const uint32 addr_table[], const cy_cfg_addrvalue_t data_table[]);
 150:.\Generated_Source\PSoC5/cyfitter_cfg.c **** static void cfg_write_bytes32(const uint32 addr_table[], const cy_cfg_addrvalue_t data_table[])
 151:.\Generated_Source\PSoC5/cyfitter_cfg.c **** {
 141              		.loc 1 151 0
 142              		.cfi_startproc
 143              		@ args = 0, pretend = 0, frame = 24
 144              		@ frame_needed = 1, uses_anonymous_args = 0
 145              		@ link register save eliminated.
 146 0000 80B4     		push	{r7}
 147              	.LCFI9:
 148              		.cfi_def_cfa_offset 4
 149 0002 87B0     		sub	sp, sp, #28
 150              	.LCFI10:
 151              		.cfi_def_cfa_offset 32
 152 0004 00AF     		add	r7, sp, #0
 153              		.cfi_offset 7, -4
 154              	.LCFI11:
 155              		.cfi_def_cfa_register 7
 156 0006 7860     		str	r0, [r7, #4]
 157 0008 3960     		str	r1, [r7, #0]
 152:.\Generated_Source\PSoC5/cyfitter_cfg.c **** 	/* For 32-bit little-endian architectures */
 153:.\Generated_Source\PSoC5/cyfitter_cfg.c **** 	uint32 i, j = 0u;
 158              		.loc 1 153 0
 159 000a 4FF00003 		mov	r3, #0
 160 000e FB60     		str	r3, [r7, #12]
 154:.\Generated_Source\PSoC5/cyfitter_cfg.c **** 	for (i = 0u; i < CY_CFG_BASE_ADDR_COUNT; i++)
 161              		.loc 1 154 0
 162 0010 4FF00003 		mov	r3, #0
 163 0014 BB60     		str	r3, [r7, #8]
 164 0016 2CE0     		b	.L8
 165              	.L11:
 166              	.LBB2:
 155:.\Generated_Source\PSoC5/cyfitter_cfg.c **** 	{
 156:.\Generated_Source\PSoC5/cyfitter_cfg.c **** 		uint32 baseAddr = addr_table[i];
 167              		.loc 1 156 0
 168 0018 BB68     		ldr	r3, [r7, #8]
 169 001a 4FEA8302 		lsl	r2, r3, #2
 170 001e 7B68     		ldr	r3, [r7, #4]
 171 0020 1344     		add	r3, r2, r3
 172 0022 1B68     		ldr	r3, [r3, #0]
 173 0024 3B61     		str	r3, [r7, #16]
 157:.\Generated_Source\PSoC5/cyfitter_cfg.c **** 		uint8 count = (uint8)baseAddr;
 174              		.loc 1 157 0
 175 0026 3B69     		ldr	r3, [r7, #16]
 176 0028 FB75     		strb	r3, [r7, #23]
 158:.\Generated_Source\PSoC5/cyfitter_cfg.c **** 		baseAddr &= 0xFFFFFF00u;
 177              		.loc 1 158 0
 178 002a 3B69     		ldr	r3, [r7, #16]
 179 002c 23F0FF03 		bic	r3, r3, #255
 180 0030 3B61     		str	r3, [r7, #16]
ARM GAS  C:\Users\Craig\AppData\Local\Temp\ccvnBOGy.s 			page 7


 159:.\Generated_Source\PSoC5/cyfitter_cfg.c **** 		while (count != 0u)
 181              		.loc 1 159 0
 182 0032 17E0     		b	.L9
 183              	.L10:
 160:.\Generated_Source\PSoC5/cyfitter_cfg.c **** 		{
 161:.\Generated_Source\PSoC5/cyfitter_cfg.c **** 			CY_SET_XTND_REG8((void CYFAR *)(baseAddr + data_table[j].offset), data_table[j].value);
 184              		.loc 1 161 0
 185 0034 FB68     		ldr	r3, [r7, #12]
 186 0036 4FEA4302 		lsl	r2, r3, #1
 187 003a 3B68     		ldr	r3, [r7, #0]
 188 003c 1344     		add	r3, r2, r3
 189 003e 1B78     		ldrb	r3, [r3, #0]	@ zero_extendqisi2
 190 0040 1A46     		mov	r2, r3
 191 0042 3B69     		ldr	r3, [r7, #16]
 192 0044 1344     		add	r3, r2, r3
 193 0046 FA68     		ldr	r2, [r7, #12]
 194 0048 4FEA4201 		lsl	r1, r2, #1
 195 004c 3A68     		ldr	r2, [r7, #0]
 196 004e 0A44     		add	r2, r1, r2
 197 0050 5278     		ldrb	r2, [r2, #1]	@ zero_extendqisi2
 198 0052 1A70     		strb	r2, [r3, #0]
 162:.\Generated_Source\PSoC5/cyfitter_cfg.c **** 			j++;
 199              		.loc 1 162 0
 200 0054 FB68     		ldr	r3, [r7, #12]
 201 0056 03F10103 		add	r3, r3, #1
 202 005a FB60     		str	r3, [r7, #12]
 163:.\Generated_Source\PSoC5/cyfitter_cfg.c **** 			count--;
 203              		.loc 1 163 0
 204 005c FB7D     		ldrb	r3, [r7, #23]
 205 005e 03F1FF33 		add	r3, r3, #-1
 206 0062 FB75     		strb	r3, [r7, #23]
 207              	.L9:
 208              		.loc 1 159 0
 209 0064 FB7D     		ldrb	r3, [r7, #23]	@ zero_extendqisi2
 210 0066 002B     		cmp	r3, #0
 211 0068 E4D1     		bne	.L10
 212              	.LBE2:
 213              		.loc 1 154 0
 214 006a BB68     		ldr	r3, [r7, #8]
 215 006c 03F10103 		add	r3, r3, #1
 216 0070 BB60     		str	r3, [r7, #8]
 217              	.L8:
 218 0072 BB68     		ldr	r3, [r7, #8]
 219 0074 172B     		cmp	r3, #23
 220 0076 CFD9     		bls	.L11
 164:.\Generated_Source\PSoC5/cyfitter_cfg.c **** 		}
 165:.\Generated_Source\PSoC5/cyfitter_cfg.c **** 	}
 166:.\Generated_Source\PSoC5/cyfitter_cfg.c **** }
 221              		.loc 1 166 0
 222 0078 07F11C07 		add	r7, r7, #28
 223 007c BD46     		mov	sp, r7
 224 007e 80BC     		pop	{r7}
 225 0080 7047     		bx	lr
 226              		.cfi_endproc
 227              	.LFE3:
 228              		.size	cfg_write_bytes32, .-cfg_write_bytes32
 229 0082 00BF     		.section	.text.ClockSetup,"ax",%progbits
ARM GAS  C:\Users\Craig\AppData\Local\Temp\ccvnBOGy.s 			page 8


 230              		.align	2
 231              		.thumb
 232              		.thumb_func
 233              		.type	ClockSetup, %function
 234              	ClockSetup:
 235              	.LFB4:
 167:.\Generated_Source\PSoC5/cyfitter_cfg.c **** 
 168:.\Generated_Source\PSoC5/cyfitter_cfg.c **** /*******************************************************************************
 169:.\Generated_Source\PSoC5/cyfitter_cfg.c **** * Function Name: ClockSetup
 170:.\Generated_Source\PSoC5/cyfitter_cfg.c **** ********************************************************************************
 171:.\Generated_Source\PSoC5/cyfitter_cfg.c **** *
 172:.\Generated_Source\PSoC5/cyfitter_cfg.c **** * Summary:
 173:.\Generated_Source\PSoC5/cyfitter_cfg.c **** *  Performs the initialization of all of the clocks in the device based on the
 174:.\Generated_Source\PSoC5/cyfitter_cfg.c **** *  settings in the Clock tab of the DWR.  This includes enabling the requested
 175:.\Generated_Source\PSoC5/cyfitter_cfg.c **** *  clocks and setting the necessary dividers to produce the desired frequency. 
 176:.\Generated_Source\PSoC5/cyfitter_cfg.c **** *
 177:.\Generated_Source\PSoC5/cyfitter_cfg.c **** * Parameters:
 178:.\Generated_Source\PSoC5/cyfitter_cfg.c **** *  void
 179:.\Generated_Source\PSoC5/cyfitter_cfg.c **** *
 180:.\Generated_Source\PSoC5/cyfitter_cfg.c **** * Return:
 181:.\Generated_Source\PSoC5/cyfitter_cfg.c **** *  void
 182:.\Generated_Source\PSoC5/cyfitter_cfg.c **** *
 183:.\Generated_Source\PSoC5/cyfitter_cfg.c **** *******************************************************************************/
 184:.\Generated_Source\PSoC5/cyfitter_cfg.c **** static void ClockSetup(void);
 185:.\Generated_Source\PSoC5/cyfitter_cfg.c **** static void ClockSetup(void)
 186:.\Generated_Source\PSoC5/cyfitter_cfg.c **** {
 236              		.loc 1 186 0
 237              		.cfi_startproc
 238              		@ args = 0, pretend = 0, frame = 8
 239              		@ frame_needed = 1, uses_anonymous_args = 0
 240 0000 80B5     		push	{r7, lr}
 241              	.LCFI12:
 242              		.cfi_def_cfa_offset 8
 243 0002 82B0     		sub	sp, sp, #8
 244              	.LCFI13:
 245              		.cfi_def_cfa_offset 16
 246 0004 00AF     		add	r7, sp, #0
 247              		.cfi_offset 14, -4
 248              		.cfi_offset 7, -8
 249              	.LCFI14:
 250              		.cfi_def_cfa_register 7
 187:.\Generated_Source\PSoC5/cyfitter_cfg.c **** 	uint32 timeout;
 188:.\Generated_Source\PSoC5/cyfitter_cfg.c **** 	uint8 pllLock;
 189:.\Generated_Source\PSoC5/cyfitter_cfg.c **** 
 190:.\Generated_Source\PSoC5/cyfitter_cfg.c **** 
 191:.\Generated_Source\PSoC5/cyfitter_cfg.c **** 	/* Configure Digital Clocks based on settings from Clock DWR */
 192:.\Generated_Source\PSoC5/cyfitter_cfg.c **** 	CY_SET_XTND_REG16((void CYFAR *)(CYREG_CLKDIST_DCFG0_CFG0), 0x0000u);
 251              		.loc 1 192 0
 252 0006 44F28003 		movw	r3, #:lower16:1073758336
 253 000a C4F20003 		movt	r3, #:upper16:1073758336
 254 000e 4FF00002 		mov	r2, #0
 255 0012 1A80     		strh	r2, [r3, #0]	@ movhi
 193:.\Generated_Source\PSoC5/cyfitter_cfg.c **** 	CY_SET_XTND_REG8((void CYFAR *)(CYREG_CLKDIST_DCFG0_CFG0 + 0x2), 0x58u);
 256              		.loc 1 193 0
 257 0014 44F28203 		movw	r3, #:lower16:1073758338
 258 0018 C4F20003 		movt	r3, #:upper16:1073758338
 259 001c 4FF05802 		mov	r2, #88
ARM GAS  C:\Users\Craig\AppData\Local\Temp\ccvnBOGy.s 			page 9


 260 0020 1A70     		strb	r2, [r3, #0]
 194:.\Generated_Source\PSoC5/cyfitter_cfg.c **** 	CY_SET_XTND_REG16((void CYFAR *)(CYREG_CLKDIST_DCFG1_CFG0), 0x0138u);
 261              		.loc 1 194 0
 262 0022 44F28403 		movw	r3, #:lower16:1073758340
 263 0026 C4F20003 		movt	r3, #:upper16:1073758340
 264 002a 4FF49C72 		mov	r2, #312
 265 002e 1A80     		strh	r2, [r3, #0]	@ movhi
 195:.\Generated_Source\PSoC5/cyfitter_cfg.c **** 	CY_SET_XTND_REG8((void CYFAR *)(CYREG_CLKDIST_DCFG1_CFG0 + 0x2), 0x18u);
 266              		.loc 1 195 0
 267 0030 44F28603 		movw	r3, #:lower16:1073758342
 268 0034 C4F20003 		movt	r3, #:upper16:1073758342
 269 0038 4FF01802 		mov	r2, #24
 270 003c 1A70     		strb	r2, [r3, #0]
 196:.\Generated_Source\PSoC5/cyfitter_cfg.c **** 
 197:.\Generated_Source\PSoC5/cyfitter_cfg.c **** 	/* Configure ILO based on settings from Clock DWR */
 198:.\Generated_Source\PSoC5/cyfitter_cfg.c **** 	CY_SET_XTND_REG8((void CYFAR *)(CYREG_SLOWCLK_ILO_CR0), 0x02u);
 271              		.loc 1 198 0
 272 003e 44F20033 		movw	r3, #:lower16:1073758976
 273 0042 C4F20003 		movt	r3, #:upper16:1073758976
 274 0046 4FF00202 		mov	r2, #2
 275 004a 1A70     		strb	r2, [r3, #0]
 199:.\Generated_Source\PSoC5/cyfitter_cfg.c **** 	CY_SET_XTND_REG8((void CYFAR *)(CYREG_CLKDIST_CR), 0x08u);
 276              		.loc 1 199 0
 277 004c 44F20003 		movw	r3, #:lower16:1073758208
 278 0050 C4F20003 		movt	r3, #:upper16:1073758208
 279 0054 4FF00802 		mov	r2, #8
 280 0058 1A70     		strb	r2, [r3, #0]
 200:.\Generated_Source\PSoC5/cyfitter_cfg.c **** 
 201:.\Generated_Source\PSoC5/cyfitter_cfg.c **** 	/* Configure IMO based on settings from Clock DWR */
 202:.\Generated_Source\PSoC5/cyfitter_cfg.c **** 	CY_SET_XTND_REG8((void CYFAR *)(CYREG_FASTCLK_IMO_CR), 0x03u);
 281              		.loc 1 202 0
 282 005a 44F20023 		movw	r3, #:lower16:1073758720
 283 005e C4F20003 		movt	r3, #:upper16:1073758720
 284 0062 4FF00302 		mov	r2, #3
 285 0066 1A70     		strb	r2, [r3, #0]
 203:.\Generated_Source\PSoC5/cyfitter_cfg.c **** 	CY_SET_XTND_REG8((void CYFAR *)(CYREG_IMO_TR1), (CY_GET_XTND_REG8((void CYFAR *)CYREG_FLSHID_CUST_
 286              		.loc 1 203 0
 287 0068 44F2A163 		movw	r3, #:lower16:1073759905
 288 006c C4F20003 		movt	r3, #:upper16:1073759905
 289 0070 40F20812 		movw	r2, #:lower16:1224737032
 290 0074 C4F60012 		movt	r2, #:upper16:1224737032
 291 0078 1278     		ldrb	r2, [r2, #0]
 292 007a D2B2     		uxtb	r2, r2
 293 007c 1A70     		strb	r2, [r3, #0]
 204:.\Generated_Source\PSoC5/cyfitter_cfg.c **** 
 205:.\Generated_Source\PSoC5/cyfitter_cfg.c **** 	/* Configure PLL based on settings from Clock DWR */
 206:.\Generated_Source\PSoC5/cyfitter_cfg.c **** 	CY_SET_XTND_REG16((void CYFAR *)(CYREG_FASTCLK_PLL_P), 0x0008u);
 294              		.loc 1 206 0
 295 007e 44F22223 		movw	r3, #:lower16:1073758754
 296 0082 C4F20003 		movt	r3, #:upper16:1073758754
 297 0086 4FF00802 		mov	r2, #8
 298 008a 1A80     		strh	r2, [r3, #0]	@ movhi
 207:.\Generated_Source\PSoC5/cyfitter_cfg.c **** 	CY_SET_XTND_REG16((void CYFAR *)(CYREG_FASTCLK_PLL_CFG0), 0x1051u);
 299              		.loc 1 207 0
 300 008c 44F22023 		movw	r3, #:lower16:1073758752
 301 0090 C4F20003 		movt	r3, #:upper16:1073758752
 302 0094 41F25102 		movw	r2, #4177
ARM GAS  C:\Users\Craig\AppData\Local\Temp\ccvnBOGy.s 			page 10


 303 0098 1A80     		strh	r2, [r3, #0]	@ movhi
 208:.\Generated_Source\PSoC5/cyfitter_cfg.c **** 	/* Wait up to 250us for the PLL to lock */
 209:.\Generated_Source\PSoC5/cyfitter_cfg.c **** 	pllLock = 0u;
 304              		.loc 1 209 0
 305 009a 4FF00003 		mov	r3, #0
 306 009e FB71     		strb	r3, [r7, #7]
 210:.\Generated_Source\PSoC5/cyfitter_cfg.c **** 	for (timeout = 250u / 10u; (timeout > 0u) && (pllLock != 0x03u); timeout--) { 
 307              		.loc 1 210 0
 308 00a0 4FF01903 		mov	r3, #25
 309 00a4 3B60     		str	r3, [r7, #0]
 310 00a6 19E0     		b	.L14
 311              	.L16:
 211:.\Generated_Source\PSoC5/cyfitter_cfg.c **** 		pllLock = 0x03u & ((uint8)((uint8)pllLock << 1) | ((CY_GET_XTND_REG8((void CYFAR *)CYREG_FASTCLK_
 312              		.loc 1 211 0
 313 00a8 FB79     		ldrb	r3, [r7, #7]
 314 00aa 4FEA4303 		lsl	r3, r3, #1
 315 00ae DAB2     		uxtb	r2, r3
 316 00b0 44F22523 		movw	r3, #:lower16:1073758757
 317 00b4 C4F20003 		movt	r3, #:upper16:1073758757
 318 00b8 1B78     		ldrb	r3, [r3, #0]
 319 00ba DBB2     		uxtb	r3, r3
 320 00bc 03F00103 		and	r3, r3, #1
 321 00c0 42EA0303 		orr	r3, r2, r3
 322 00c4 DBB2     		uxtb	r3, r3
 323 00c6 03F00303 		and	r3, r3, #3
 324 00ca FB71     		strb	r3, [r7, #7]
 212:.\Generated_Source\PSoC5/cyfitter_cfg.c **** 		CyDelayCycles(10u * 48u); /* Delay 10us based on 48MHz clock */
 325              		.loc 1 212 0
 326 00cc 4FF4F070 		mov	r0, #480
 327 00d0 FFF7FEFF 		bl	CyDelayCycles
 328              		.loc 1 210 0
 329 00d4 3B68     		ldr	r3, [r7, #0]
 330 00d6 03F1FF33 		add	r3, r3, #-1
 331 00da 3B60     		str	r3, [r7, #0]
 332              	.L14:
 333 00dc 3B68     		ldr	r3, [r7, #0]
 334 00de 002B     		cmp	r3, #0
 335 00e0 02D0     		beq	.L15
 336 00e2 FB79     		ldrb	r3, [r7, #7]	@ zero_extendqisi2
 337 00e4 032B     		cmp	r3, #3
 338 00e6 DFD1     		bne	.L16
 339              	.L15:
 213:.\Generated_Source\PSoC5/cyfitter_cfg.c **** 	}
 214:.\Generated_Source\PSoC5/cyfitter_cfg.c **** 
 215:.\Generated_Source\PSoC5/cyfitter_cfg.c **** 	/* Configure Bus/Master Clock based on settings from Clock DWR */
 216:.\Generated_Source\PSoC5/cyfitter_cfg.c **** 	CY_SET_XTND_REG16((void CYFAR *)(CYREG_CLKDIST_MSTR0), 0x0100u);
 340              		.loc 1 216 0
 341 00e8 44F20403 		movw	r3, #:lower16:1073758212
 342 00ec C4F20003 		movt	r3, #:upper16:1073758212
 343 00f0 4FF48072 		mov	r2, #256
 344 00f4 1A80     		strh	r2, [r3, #0]	@ movhi
 217:.\Generated_Source\PSoC5/cyfitter_cfg.c **** 	CY_SET_XTND_REG8((void CYFAR *)(CYREG_CLKDIST_MSTR0), 0x07u);
 345              		.loc 1 217 0
 346 00f6 44F20403 		movw	r3, #:lower16:1073758212
 347 00fa C4F20003 		movt	r3, #:upper16:1073758212
 348 00fe 4FF00702 		mov	r2, #7
 349 0102 1A70     		strb	r2, [r3, #0]
ARM GAS  C:\Users\Craig\AppData\Local\Temp\ccvnBOGy.s 			page 11


 218:.\Generated_Source\PSoC5/cyfitter_cfg.c **** 	CY_SET_XTND_REG8((void CYFAR *)(CYREG_CLKDIST_BCFG0), 0x00u);
 350              		.loc 1 218 0
 351 0104 44F20603 		movw	r3, #:lower16:1073758214
 352 0108 C4F20003 		movt	r3, #:upper16:1073758214
 353 010c 4FF00002 		mov	r2, #0
 354 0110 1A70     		strb	r2, [r3, #0]
 219:.\Generated_Source\PSoC5/cyfitter_cfg.c **** 	CY_SET_XTND_REG8((void CYFAR *)(CYREG_CLKDIST_BCFG2), 0x48u);
 355              		.loc 1 219 0
 356 0112 44F20803 		movw	r3, #:lower16:1073758216
 357 0116 C4F20003 		movt	r3, #:upper16:1073758216
 358 011a 4FF04802 		mov	r2, #72
 359 011e 1A70     		strb	r2, [r3, #0]
 220:.\Generated_Source\PSoC5/cyfitter_cfg.c **** 	CY_SET_XTND_REG8((void CYFAR *)(CYREG_CLKDIST_MSTR0), 0x00u);
 360              		.loc 1 220 0
 361 0120 44F20403 		movw	r3, #:lower16:1073758212
 362 0124 C4F20003 		movt	r3, #:upper16:1073758212
 363 0128 4FF00002 		mov	r2, #0
 364 012c 1A70     		strb	r2, [r3, #0]
 221:.\Generated_Source\PSoC5/cyfitter_cfg.c **** 	CY_SET_XTND_REG8((void CYFAR *)(CYREG_CLKDIST_LD), 0x02u);
 365              		.loc 1 221 0
 366 012e 44F20103 		movw	r3, #:lower16:1073758209
 367 0132 C4F20003 		movt	r3, #:upper16:1073758209
 368 0136 4FF00202 		mov	r2, #2
 369 013a 1A70     		strb	r2, [r3, #0]
 222:.\Generated_Source\PSoC5/cyfitter_cfg.c **** 
 223:.\Generated_Source\PSoC5/cyfitter_cfg.c **** 	CY_SET_XTND_REG8((void CYFAR *)(CYREG_PM_ACT_CFG2), ((CY_GET_XTND_REG8((void CYFAR *)CYREG_PM_ACT_
 370              		.loc 1 223 0
 371 013c 44F2A233 		movw	r3, #:lower16:1073759138
 372 0140 C4F20003 		movt	r3, #:upper16:1073759138
 373 0144 44F2A232 		movw	r2, #:lower16:1073759138
 374 0148 C4F20002 		movt	r2, #:upper16:1073759138
 375 014c 1278     		ldrb	r2, [r2, #0]
 376 014e D2B2     		uxtb	r2, r2
 377 0150 42F00302 		orr	r2, r2, #3
 378 0154 D2B2     		uxtb	r2, r2
 379 0156 1A70     		strb	r2, [r3, #0]
 224:.\Generated_Source\PSoC5/cyfitter_cfg.c **** }
 380              		.loc 1 224 0
 381 0158 07F10807 		add	r7, r7, #8
 382 015c BD46     		mov	sp, r7
 383 015e 80BD     		pop	{r7, pc}
 384              		.cfi_endproc
 385              	.LFE4:
 386              		.size	ClockSetup, .-ClockSetup
 387              		.section	.text.AnalogSetDefault,"ax",%progbits
 388              		.align	2
 389              		.thumb
 390              		.thumb_func
 391              		.type	AnalogSetDefault, %function
 392              	AnalogSetDefault:
 393              	.LFB5:
 225:.\Generated_Source\PSoC5/cyfitter_cfg.c **** 
 226:.\Generated_Source\PSoC5/cyfitter_cfg.c **** 
 227:.\Generated_Source\PSoC5/cyfitter_cfg.c **** /* Analog API Functions */
 228:.\Generated_Source\PSoC5/cyfitter_cfg.c **** 
 229:.\Generated_Source\PSoC5/cyfitter_cfg.c **** 
 230:.\Generated_Source\PSoC5/cyfitter_cfg.c **** /*******************************************************************************
ARM GAS  C:\Users\Craig\AppData\Local\Temp\ccvnBOGy.s 			page 12


 231:.\Generated_Source\PSoC5/cyfitter_cfg.c **** * Function Name: AnalogSetDefault
 232:.\Generated_Source\PSoC5/cyfitter_cfg.c **** ********************************************************************************
 233:.\Generated_Source\PSoC5/cyfitter_cfg.c **** *
 234:.\Generated_Source\PSoC5/cyfitter_cfg.c **** * Summary:
 235:.\Generated_Source\PSoC5/cyfitter_cfg.c **** *  Sets up the analog portions of the chip to default values based on chip
 236:.\Generated_Source\PSoC5/cyfitter_cfg.c **** *  configuration options from the project.
 237:.\Generated_Source\PSoC5/cyfitter_cfg.c **** *
 238:.\Generated_Source\PSoC5/cyfitter_cfg.c **** * Parameters:
 239:.\Generated_Source\PSoC5/cyfitter_cfg.c **** *  void
 240:.\Generated_Source\PSoC5/cyfitter_cfg.c **** *
 241:.\Generated_Source\PSoC5/cyfitter_cfg.c **** * Return:
 242:.\Generated_Source\PSoC5/cyfitter_cfg.c **** *  void
 243:.\Generated_Source\PSoC5/cyfitter_cfg.c **** *
 244:.\Generated_Source\PSoC5/cyfitter_cfg.c **** *******************************************************************************/
 245:.\Generated_Source\PSoC5/cyfitter_cfg.c **** static void AnalogSetDefault(void);
 246:.\Generated_Source\PSoC5/cyfitter_cfg.c **** static void AnalogSetDefault(void)
 247:.\Generated_Source\PSoC5/cyfitter_cfg.c **** {
 394              		.loc 1 247 0
 395              		.cfi_startproc
 396              		@ args = 0, pretend = 0, frame = 8
 397              		@ frame_needed = 1, uses_anonymous_args = 0
 398              		@ link register save eliminated.
 399 0000 80B4     		push	{r7}
 400              	.LCFI15:
 401              		.cfi_def_cfa_offset 4
 402 0002 83B0     		sub	sp, sp, #12
 403              	.LCFI16:
 404              		.cfi_def_cfa_offset 16
 405 0004 00AF     		add	r7, sp, #0
 406              		.cfi_offset 7, -4
 407              	.LCFI17:
 408              		.cfi_def_cfa_register 7
 248:.\Generated_Source\PSoC5/cyfitter_cfg.c **** 	uint8 bg_xover_inl_trim = CY_GET_XTND_REG8((void CYFAR *)(CYREG_FLSHID_MFG_CFG_BG_XOVER_INL_TRIM +
 409              		.loc 1 248 0
 410 0006 40F2CF13 		movw	r3, #:lower16:1224737231
 411 000a C4F60013 		movt	r3, #:upper16:1224737231
 412 000e 1B78     		ldrb	r3, [r3, #0]
 413 0010 FB71     		strb	r3, [r7, #7]
 249:.\Generated_Source\PSoC5/cyfitter_cfg.c **** 	CY_SET_XTND_REG8((void CYFAR *)CYREG_BG_DFT0, bg_xover_inl_trim & 0x07u);
 414              		.loc 1 249 0
 415 0012 45F66E03 		movw	r3, #:lower16:1073764462
 416 0016 C4F20003 		movt	r3, #:upper16:1073764462
 417 001a FA79     		ldrb	r2, [r7, #7]	@ zero_extendqisi2
 418 001c 02F00702 		and	r2, r2, #7
 419 0020 1A70     		strb	r2, [r3, #0]
 250:.\Generated_Source\PSoC5/cyfitter_cfg.c **** 	CY_SET_XTND_REG8((void CYFAR *)CYREG_BG_DFT1, ((uint8)((uint8)bg_xover_inl_trim >> 4)) & 0x0Fu);
 420              		.loc 1 250 0
 421 0022 45F66F03 		movw	r3, #:lower16:1073764463
 422 0026 C4F20003 		movt	r3, #:upper16:1073764463
 423 002a FA79     		ldrb	r2, [r7, #7]	@ zero_extendqisi2
 424 002c 4FEA1212 		lsr	r2, r2, #4
 425 0030 D2B2     		uxtb	r2, r2
 426 0032 1A70     		strb	r2, [r3, #0]
 251:.\Generated_Source\PSoC5/cyfitter_cfg.c **** 	CY_SET_XTND_REG8((void CYFAR *)CYREG_PUMP_CR0, 0x44u);
 427              		.loc 1 251 0
 428 0034 45F67603 		movw	r3, #:lower16:1073764470
 429 0038 C4F20003 		movt	r3, #:upper16:1073764470
ARM GAS  C:\Users\Craig\AppData\Local\Temp\ccvnBOGy.s 			page 13


 430 003c 4FF04402 		mov	r2, #68
 431 0040 1A70     		strb	r2, [r3, #0]
 252:.\Generated_Source\PSoC5/cyfitter_cfg.c **** }
 432              		.loc 1 252 0
 433 0042 07F10C07 		add	r7, r7, #12
 434 0046 BD46     		mov	sp, r7
 435 0048 80BC     		pop	{r7}
 436 004a 7047     		bx	lr
 437              		.cfi_endproc
 438              	.LFE5:
 439              		.size	AnalogSetDefault, .-AnalogSetDefault
 440              		.section	.text.SetAnalogRoutingPumps,"ax",%progbits
 441              		.align	2
 442              		.global	SetAnalogRoutingPumps
 443              		.thumb
 444              		.thumb_func
 445              		.type	SetAnalogRoutingPumps, %function
 446              	SetAnalogRoutingPumps:
 447              	.LFB6:
 253:.\Generated_Source\PSoC5/cyfitter_cfg.c **** 
 254:.\Generated_Source\PSoC5/cyfitter_cfg.c **** 
 255:.\Generated_Source\PSoC5/cyfitter_cfg.c **** /*******************************************************************************
 256:.\Generated_Source\PSoC5/cyfitter_cfg.c **** * Function Name: SetAnalogRoutingPumps
 257:.\Generated_Source\PSoC5/cyfitter_cfg.c **** ********************************************************************************
 258:.\Generated_Source\PSoC5/cyfitter_cfg.c **** *
 259:.\Generated_Source\PSoC5/cyfitter_cfg.c **** * Summary:
 260:.\Generated_Source\PSoC5/cyfitter_cfg.c **** * Enables or disables the analog pumps feeding analog routing switches.
 261:.\Generated_Source\PSoC5/cyfitter_cfg.c **** * Intended to be called at startup, based on the Vdda system configuration;
 262:.\Generated_Source\PSoC5/cyfitter_cfg.c **** * may be called during operation when the user informs us that the Vdda voltage
 263:.\Generated_Source\PSoC5/cyfitter_cfg.c **** * crossed the pump threshold.
 264:.\Generated_Source\PSoC5/cyfitter_cfg.c **** *
 265:.\Generated_Source\PSoC5/cyfitter_cfg.c **** * Parameters:
 266:.\Generated_Source\PSoC5/cyfitter_cfg.c **** *  enabled - 1 to enable the pumps, 0 to disable the pumps
 267:.\Generated_Source\PSoC5/cyfitter_cfg.c **** *
 268:.\Generated_Source\PSoC5/cyfitter_cfg.c **** * Return:
 269:.\Generated_Source\PSoC5/cyfitter_cfg.c **** *  void
 270:.\Generated_Source\PSoC5/cyfitter_cfg.c **** *
 271:.\Generated_Source\PSoC5/cyfitter_cfg.c **** *******************************************************************************/
 272:.\Generated_Source\PSoC5/cyfitter_cfg.c **** void SetAnalogRoutingPumps(uint8 enabled)
 273:.\Generated_Source\PSoC5/cyfitter_cfg.c **** {
 448              		.loc 1 273 0
 449              		.cfi_startproc
 450              		@ args = 0, pretend = 0, frame = 16
 451              		@ frame_needed = 1, uses_anonymous_args = 0
 452              		@ link register save eliminated.
 453 0000 80B4     		push	{r7}
 454              	.LCFI18:
 455              		.cfi_def_cfa_offset 4
 456 0002 85B0     		sub	sp, sp, #20
 457              	.LCFI19:
 458              		.cfi_def_cfa_offset 24
 459 0004 00AF     		add	r7, sp, #0
 460              		.cfi_offset 7, -4
 461              	.LCFI20:
 462              		.cfi_def_cfa_register 7
 463 0006 0346     		mov	r3, r0
 464 0008 FB71     		strb	r3, [r7, #7]
ARM GAS  C:\Users\Craig\AppData\Local\Temp\ccvnBOGy.s 			page 14


 274:.\Generated_Source\PSoC5/cyfitter_cfg.c **** 	uint8 regValue = CY_GET_XTND_REG8((void CYFAR *)CYREG_PUMP_CR0);
 465              		.loc 1 274 0
 466 000a 45F67603 		movw	r3, #:lower16:1073764470
 467 000e C4F20003 		movt	r3, #:upper16:1073764470
 468 0012 1B78     		ldrb	r3, [r3, #0]
 469 0014 FB73     		strb	r3, [r7, #15]
 275:.\Generated_Source\PSoC5/cyfitter_cfg.c **** 	if (enabled != 0u)
 470              		.loc 1 275 0
 471 0016 FB79     		ldrb	r3, [r7, #7]	@ zero_extendqisi2
 472 0018 002B     		cmp	r3, #0
 276:.\Generated_Source\PSoC5/cyfitter_cfg.c **** 	{
 277:.\Generated_Source\PSoC5/cyfitter_cfg.c **** 		regValue |= 0x00u;
 278:.\Generated_Source\PSoC5/cyfitter_cfg.c **** 	}
 279:.\Generated_Source\PSoC5/cyfitter_cfg.c **** 	else
 280:.\Generated_Source\PSoC5/cyfitter_cfg.c **** 	{
 281:.\Generated_Source\PSoC5/cyfitter_cfg.c **** 		regValue &= (uint8)~0x00u;
 282:.\Generated_Source\PSoC5/cyfitter_cfg.c **** 	}
 283:.\Generated_Source\PSoC5/cyfitter_cfg.c **** 	CY_SET_XTND_REG8((void CYFAR *)CYREG_PUMP_CR0, regValue);
 473              		.loc 1 283 0
 474 001a 45F67603 		movw	r3, #:lower16:1073764470
 475 001e C4F20003 		movt	r3, #:upper16:1073764470
 476 0022 FA7B     		ldrb	r2, [r7, #15]
 477 0024 1A70     		strb	r2, [r3, #0]
 284:.\Generated_Source\PSoC5/cyfitter_cfg.c **** }
 478              		.loc 1 284 0
 479 0026 07F11407 		add	r7, r7, #20
 480 002a BD46     		mov	sp, r7
 481 002c 80BC     		pop	{r7}
 482 002e 7047     		bx	lr
 483              		.cfi_endproc
 484              	.LFE6:
 485              		.size	SetAnalogRoutingPumps, .-SetAnalogRoutingPumps
 486              		.section	.text.cyfitter_cfg,"ax",%progbits
 487              		.align	2
 488              		.global	cyfitter_cfg
 489              		.thumb
 490              		.thumb_func
 491              		.type	cyfitter_cfg, %function
 492              	cyfitter_cfg:
 493              	.LFB7:
 285:.\Generated_Source\PSoC5/cyfitter_cfg.c **** 
 286:.\Generated_Source\PSoC5/cyfitter_cfg.c **** #define CY_AMUX_UNUSED CYREG_BOOST_SR
 287:.\Generated_Source\PSoC5/cyfitter_cfg.c **** 
 288:.\Generated_Source\PSoC5/cyfitter_cfg.c **** 
 289:.\Generated_Source\PSoC5/cyfitter_cfg.c **** /*******************************************************************************
 290:.\Generated_Source\PSoC5/cyfitter_cfg.c **** * Function Name: cyfitter_cfg
 291:.\Generated_Source\PSoC5/cyfitter_cfg.c **** ********************************************************************************
 292:.\Generated_Source\PSoC5/cyfitter_cfg.c **** * Summary:
 293:.\Generated_Source\PSoC5/cyfitter_cfg.c **** *  This function is called by the start-up code for the selected device. It
 294:.\Generated_Source\PSoC5/cyfitter_cfg.c **** *  performs all of the necessary device configuration based on the design
 295:.\Generated_Source\PSoC5/cyfitter_cfg.c **** *  settings.  This includes settings from the Design Wide Resources (DWR) such
 296:.\Generated_Source\PSoC5/cyfitter_cfg.c **** *  as Clocks and Pins as well as any component configuration that is necessary.
 297:.\Generated_Source\PSoC5/cyfitter_cfg.c **** *
 298:.\Generated_Source\PSoC5/cyfitter_cfg.c **** * Parameters:  
 299:.\Generated_Source\PSoC5/cyfitter_cfg.c **** *   void
 300:.\Generated_Source\PSoC5/cyfitter_cfg.c **** *
 301:.\Generated_Source\PSoC5/cyfitter_cfg.c **** * Return:
ARM GAS  C:\Users\Craig\AppData\Local\Temp\ccvnBOGy.s 			page 15


 302:.\Generated_Source\PSoC5/cyfitter_cfg.c **** *   void
 303:.\Generated_Source\PSoC5/cyfitter_cfg.c **** *
 304:.\Generated_Source\PSoC5/cyfitter_cfg.c **** *******************************************************************************/
 305:.\Generated_Source\PSoC5/cyfitter_cfg.c **** void cyfitter_cfg(void)
 306:.\Generated_Source\PSoC5/cyfitter_cfg.c **** {
 494              		.loc 1 306 0
 495              		.cfi_startproc
 496              		@ args = 0, pretend = 0, frame = 8
 497              		@ frame_needed = 1, uses_anonymous_args = 0
 498 0000 80B5     		push	{r7, lr}
 499              	.LCFI21:
 500              		.cfi_def_cfa_offset 8
 501 0002 82B0     		sub	sp, sp, #8
 502              	.LCFI22:
 503              		.cfi_def_cfa_offset 16
 504 0004 00AF     		add	r7, sp, #0
 505              		.cfi_offset 14, -4
 506              		.cfi_offset 7, -8
 507              	.LCFI23:
 508              		.cfi_def_cfa_register 7
 307:.\Generated_Source\PSoC5/cyfitter_cfg.c **** #ifdef CYGlobalIntDisable
 308:.\Generated_Source\PSoC5/cyfitter_cfg.c **** 	/* Disable interrupts by default. Let user enable if/when they want. */
 309:.\Generated_Source\PSoC5/cyfitter_cfg.c **** 	CYGlobalIntDisable
 509              		.loc 1 309 0
 510              	@ 309 ".\Generated_Source\PSoC5\cyfitter_cfg.c" 1
 511 0006 72B6     		CPSID   i
 512              	@ 0 "" 2
 310:.\Generated_Source\PSoC5/cyfitter_cfg.c **** #endif
 311:.\Generated_Source\PSoC5/cyfitter_cfg.c **** 
 312:.\Generated_Source\PSoC5/cyfitter_cfg.c **** 	/* Enable/Disable Debug functionality based on settings from System DWR */
 313:.\Generated_Source\PSoC5/cyfitter_cfg.c **** 	CY_SET_XTND_REG8((void CYFAR *)CYREG_MLOGIC_DEBUG, (CY_GET_XTND_REG8((void CYFAR *)CYREG_MLOGIC_DE
 513              		.loc 1 313 0
 514              		.thumb
 515 0008 44F2E863 		movw	r3, #:lower16:1073759976
 516 000c C4F20003 		movt	r3, #:upper16:1073759976
 517 0010 44F2E862 		movw	r2, #:lower16:1073759976
 518 0014 C4F20002 		movt	r2, #:upper16:1073759976
 519 0018 1278     		ldrb	r2, [r2, #0]
 520 001a D2B2     		uxtb	r2, r2
 521 001c 42F00402 		orr	r2, r2, #4
 522 0020 D2B2     		uxtb	r2, r2
 523 0022 1A70     		strb	r2, [r3, #0]
 524              	.LBB3:
 314:.\Generated_Source\PSoC5/cyfitter_cfg.c **** 
 315:.\Generated_Source\PSoC5/cyfitter_cfg.c **** 	{
 316:.\Generated_Source\PSoC5/cyfitter_cfg.c **** 
 317:.\Generated_Source\PSoC5/cyfitter_cfg.c **** 		typedef struct {
 318:.\Generated_Source\PSoC5/cyfitter_cfg.c **** 			void CYFAR *address;
 319:.\Generated_Source\PSoC5/cyfitter_cfg.c **** 			uint16 size;
 320:.\Generated_Source\PSoC5/cyfitter_cfg.c **** 		} CYPACKED cfg_memset_t;
 321:.\Generated_Source\PSoC5/cyfitter_cfg.c **** 
 322:.\Generated_Source\PSoC5/cyfitter_cfg.c **** 		static const cfg_memset_t CYCODE cfg_memset_list [] = {
 323:.\Generated_Source\PSoC5/cyfitter_cfg.c **** 			/* address, size */
 324:.\Generated_Source\PSoC5/cyfitter_cfg.c **** 			{(void CYFAR *)(CYREG_PRT0_DR), 32u},
 325:.\Generated_Source\PSoC5/cyfitter_cfg.c **** 			{(void CYFAR *)(CYREG_PRT5_DR), 16u},
 326:.\Generated_Source\PSoC5/cyfitter_cfg.c **** 			{(void CYFAR *)(CYREG_PRT15_DR), 16u},
 327:.\Generated_Source\PSoC5/cyfitter_cfg.c **** 			{(void CYFAR *)(CYDEV_UCFG_B0_P0_U0_BASE), 4096u},
ARM GAS  C:\Users\Craig\AppData\Local\Temp\ccvnBOGy.s 			page 16


 328:.\Generated_Source\PSoC5/cyfitter_cfg.c **** 			{(void CYFAR *)(CYDEV_UCFG_B1_P2_U0_BASE), 2048u},
 329:.\Generated_Source\PSoC5/cyfitter_cfg.c **** 			{(void CYFAR *)(CYDEV_UCFG_DSI0_BASE), 2560u},
 330:.\Generated_Source\PSoC5/cyfitter_cfg.c **** 			{(void CYFAR *)(CYDEV_UCFG_DSI12_BASE), 512u},
 331:.\Generated_Source\PSoC5/cyfitter_cfg.c **** 			{(void CYFAR *)(CYREG_BCTL0_MDCLK_EN), 32u},
 332:.\Generated_Source\PSoC5/cyfitter_cfg.c **** 		};
 333:.\Generated_Source\PSoC5/cyfitter_cfg.c **** 
 334:.\Generated_Source\PSoC5/cyfitter_cfg.c **** 		uint8 CYDATA i;
 335:.\Generated_Source\PSoC5/cyfitter_cfg.c **** 
 336:.\Generated_Source\PSoC5/cyfitter_cfg.c **** 		/* Zero out critical memory blocks before beginning configuration */
 337:.\Generated_Source\PSoC5/cyfitter_cfg.c **** 		for (i = 0u; i < (sizeof(cfg_memset_list)/sizeof(cfg_memset_list[0])); i++)
 525              		.loc 1 337 0
 526 0024 4FF00003 		mov	r3, #0
 527 0028 FB70     		strb	r3, [r7, #3]
 528 002a 2FE0     		b	.L25
 529              	.L26:
 530              	.LBB4:
 338:.\Generated_Source\PSoC5/cyfitter_cfg.c **** 		{
 339:.\Generated_Source\PSoC5/cyfitter_cfg.c **** 			const cfg_memset_t CYCODE * CYDATA ms = &cfg_memset_list[i];
 531              		.loc 1 339 0
 532 002c FA78     		ldrb	r2, [r7, #3]	@ zero_extendqisi2
 533 002e 1346     		mov	r3, r2
 534 0030 4FEA4303 		lsl	r3, r3, #1
 535 0034 1344     		add	r3, r3, r2
 536 0036 4FEA4303 		lsl	r3, r3, #1
 537 003a 1A46     		mov	r2, r3
 538 003c 40F20003 		movw	r3, #:lower16:cfg_memset_list.2074
 539 0040 C0F20003 		movt	r3, #:upper16:cfg_memset_list.2074
 540 0044 1344     		add	r3, r2, r3
 541 0046 7B60     		str	r3, [r7, #4]
 340:.\Generated_Source\PSoC5/cyfitter_cfg.c **** 			CYMEMZERO(ms->address, ms->size);
 542              		.loc 1 340 0
 543 0048 7B68     		ldr	r3, [r7, #4]
 544 004a 1A78     		ldrb	r2, [r3, #0]	@ zero_extendqisi2
 545 004c 5978     		ldrb	r1, [r3, #1]	@ zero_extendqisi2
 546 004e 4FEA0121 		lsl	r1, r1, #8
 547 0052 41EA0202 		orr	r2, r1, r2
 548 0056 9978     		ldrb	r1, [r3, #2]	@ zero_extendqisi2
 549 0058 4FEA0141 		lsl	r1, r1, #16
 550 005c 41EA0202 		orr	r2, r1, r2
 551 0060 DB78     		ldrb	r3, [r3, #3]	@ zero_extendqisi2
 552 0062 4FEA0363 		lsl	r3, r3, #24
 553 0066 43EA0203 		orr	r3, r3, r2
 554 006a 1A46     		mov	r2, r3
 555 006c 7B68     		ldr	r3, [r7, #4]
 556 006e 1979     		ldrb	r1, [r3, #4]	@ zero_extendqisi2
 557 0070 5B79     		ldrb	r3, [r3, #5]	@ zero_extendqisi2
 558 0072 4FEA0323 		lsl	r3, r3, #8
 559 0076 43EA0103 		orr	r3, r3, r1
 560 007a 9BB2     		uxth	r3, r3
 561 007c 1046     		mov	r0, r2
 562 007e 1946     		mov	r1, r3
 563 0080 FFF7FEFF 		bl	CYMEMZERO
 564              	.LBE4:
 565              		.loc 1 337 0
 566 0084 FB78     		ldrb	r3, [r7, #3]
 567 0086 03F10103 		add	r3, r3, #1
 568 008a FB70     		strb	r3, [r7, #3]
ARM GAS  C:\Users\Craig\AppData\Local\Temp\ccvnBOGy.s 			page 17


 569              	.L25:
 570 008c FB78     		ldrb	r3, [r7, #3]	@ zero_extendqisi2
 571 008e 072B     		cmp	r3, #7
 572 0090 CCD9     		bls	.L26
 341:.\Generated_Source\PSoC5/cyfitter_cfg.c **** 		}
 342:.\Generated_Source\PSoC5/cyfitter_cfg.c **** 
 343:.\Generated_Source\PSoC5/cyfitter_cfg.c **** 		cfg_write_bytes32(cy_cfg_addr_table, cy_cfg_data_table);
 573              		.loc 1 343 0
 574 0092 4FF09040 		mov	r0, #1207959552
 575 0096 40F26001 		movw	r1, #:lower16:1207959648
 576 009a C4F60001 		movt	r1, #:upper16:1207959648
 577 009e FFF7FEFF 		bl	cfg_write_bytes32
 344:.\Generated_Source\PSoC5/cyfitter_cfg.c **** 
 345:.\Generated_Source\PSoC5/cyfitter_cfg.c **** 		/* Enable digital routing */
 346:.\Generated_Source\PSoC5/cyfitter_cfg.c **** 		CY_SET_XTND_REG8((void CYFAR *)CYREG_BCTL0_BANK_CTL, CY_GET_XTND_REG8((void CYFAR *)CYREG_BCTL0_B
 578              		.loc 1 346 0
 579 00a2 45F20303 		movw	r3, #:lower16:1073827843
 580 00a6 C4F20103 		movt	r3, #:upper16:1073827843
 581 00aa 45F20302 		movw	r2, #:lower16:1073827843
 582 00ae C4F20102 		movt	r2, #:upper16:1073827843
 583 00b2 1278     		ldrb	r2, [r2, #0]
 584 00b4 D2B2     		uxtb	r2, r2
 585 00b6 42F00202 		orr	r2, r2, #2
 586 00ba D2B2     		uxtb	r2, r2
 587 00bc 1A70     		strb	r2, [r3, #0]
 347:.\Generated_Source\PSoC5/cyfitter_cfg.c **** 		CY_SET_XTND_REG8((void CYFAR *)CYREG_BCTL1_BANK_CTL, CY_GET_XTND_REG8((void CYFAR *)CYREG_BCTL1_B
 588              		.loc 1 347 0
 589 00be 45F21303 		movw	r3, #:lower16:1073827859
 590 00c2 C4F20103 		movt	r3, #:upper16:1073827859
 591 00c6 45F21302 		movw	r2, #:lower16:1073827859
 592 00ca C4F20102 		movt	r2, #:upper16:1073827859
 593 00ce 1278     		ldrb	r2, [r2, #0]
 594 00d0 D2B2     		uxtb	r2, r2
 595 00d2 42F00202 		orr	r2, r2, #2
 596 00d6 D2B2     		uxtb	r2, r2
 597 00d8 1A70     		strb	r2, [r3, #0]
 348:.\Generated_Source\PSoC5/cyfitter_cfg.c **** 
 349:.\Generated_Source\PSoC5/cyfitter_cfg.c **** 		/* Enable UDB array */
 350:.\Generated_Source\PSoC5/cyfitter_cfg.c **** 		CY_SET_XTND_REG8((void CYFAR *)CYREG_PM_ACT_CFG0, CY_GET_XTND_REG8((void CYFAR *)CYREG_PM_ACT_CFG
 598              		.loc 1 350 0
 599 00da 44F2A033 		movw	r3, #:lower16:1073759136
 600 00de C4F20003 		movt	r3, #:upper16:1073759136
 601 00e2 44F2A032 		movw	r2, #:lower16:1073759136
 602 00e6 C4F20002 		movt	r2, #:upper16:1073759136
 603 00ea 1278     		ldrb	r2, [r2, #0]
 604 00ec D2B2     		uxtb	r2, r2
 605 00ee 42F04002 		orr	r2, r2, #64
 606 00f2 D2B2     		uxtb	r2, r2
 607 00f4 1A70     		strb	r2, [r3, #0]
 351:.\Generated_Source\PSoC5/cyfitter_cfg.c **** 		CY_SET_XTND_REG8((void CYFAR *)CYREG_PM_AVAIL_CR2, CY_GET_XTND_REG8((void CYFAR *)CYREG_PM_AVAIL_
 608              		.loc 1 351 0
 609 00f6 44F2C233 		movw	r3, #:lower16:1073759170
 610 00fa C4F20003 		movt	r3, #:upper16:1073759170
 611 00fe 44F2C232 		movw	r2, #:lower16:1073759170
 612 0102 C4F20002 		movt	r2, #:upper16:1073759170
 613 0106 1278     		ldrb	r2, [r2, #0]
 614 0108 D2B2     		uxtb	r2, r2
ARM GAS  C:\Users\Craig\AppData\Local\Temp\ccvnBOGy.s 			page 18


 615 010a 42F01002 		orr	r2, r2, #16
 616 010e D2B2     		uxtb	r2, r2
 617 0110 1A70     		strb	r2, [r3, #0]
 618              	.LBE3:
 352:.\Generated_Source\PSoC5/cyfitter_cfg.c **** 	}
 353:.\Generated_Source\PSoC5/cyfitter_cfg.c **** 
 354:.\Generated_Source\PSoC5/cyfitter_cfg.c **** 	/* Perform second pass device configuration. These items must be configured in specific order afte
 355:.\Generated_Source\PSoC5/cyfitter_cfg.c **** 	CYCONFIGCPY((void CYFAR *)(CYREG_PRT12_DR), (const void CYFAR *)(BS_IOPINS0_7_VAL), 10u);
 619              		.loc 1 355 0
 620 0112 45F2C010 		movw	r0, #:lower16:1073762752
 621 0116 C4F20000 		movt	r0, #:upper16:1073762752
 622 011a 40F27441 		movw	r1, #:lower16:1207960692
 623 011e C4F60001 		movt	r1, #:upper16:1207960692
 624 0122 4FF00A02 		mov	r2, #10
 625 0126 FFF7FEFF 		bl	CYCONFIGCPY
 356:.\Generated_Source\PSoC5/cyfitter_cfg.c **** 	CYCONFIGCPY((void CYFAR *)(CYREG_PRT2_DM0), (const void CYFAR *)(BS_IOPINS0_2_VAL), 8u);
 626              		.loc 1 356 0
 627 012a 45F22210 		movw	r0, #:lower16:1073762594
 628 012e C4F20000 		movt	r0, #:upper16:1073762594
 629 0132 40F28041 		movw	r1, #:lower16:1207960704
 630 0136 C4F60001 		movt	r1, #:upper16:1207960704
 631 013a 4FF00802 		mov	r2, #8
 632 013e FFF7FEFF 		bl	CYCONFIGCPY
 357:.\Generated_Source\PSoC5/cyfitter_cfg.c **** 	CYCONFIGCPY((void CYFAR *)(CYREG_PRT3_DR), (const void CYFAR *)(BS_IOPINS0_3_VAL), 10u);
 633              		.loc 1 357 0
 634 0142 45F23010 		movw	r0, #:lower16:1073762608
 635 0146 C4F20000 		movt	r0, #:upper16:1073762608
 636 014a 40F28841 		movw	r1, #:lower16:1207960712
 637 014e C4F60001 		movt	r1, #:upper16:1207960712
 638 0152 4FF00A02 		mov	r2, #10
 639 0156 FFF7FEFF 		bl	CYCONFIGCPY
 358:.\Generated_Source\PSoC5/cyfitter_cfg.c **** 	CYCONFIGCPY((void CYFAR *)(CYREG_PRT4_DM0), (const void CYFAR *)(BS_IOPINS0_4_VAL), 8u);
 640              		.loc 1 358 0
 641 015a 45F24210 		movw	r0, #:lower16:1073762626
 642 015e C4F20000 		movt	r0, #:upper16:1073762626
 643 0162 40F29441 		movw	r1, #:lower16:1207960724
 644 0166 C4F60001 		movt	r1, #:upper16:1207960724
 645 016a 4FF00802 		mov	r2, #8
 646 016e FFF7FEFF 		bl	CYCONFIGCPY
 359:.\Generated_Source\PSoC5/cyfitter_cfg.c **** 	CYCONFIGCPY((void CYFAR *)(CYREG_PRT6_DM0), (const void CYFAR *)(BS_IOPINS0_6_VAL), 8u);
 647              		.loc 1 359 0
 648 0172 45F26210 		movw	r0, #:lower16:1073762658
 649 0176 C4F20000 		movt	r0, #:upper16:1073762658
 650 017a 40F29C41 		movw	r1, #:lower16:1207960732
 651 017e C4F60001 		movt	r1, #:upper16:1207960732
 652 0182 4FF00802 		mov	r2, #8
 653 0186 FFF7FEFF 		bl	CYCONFIGCPY
 360:.\Generated_Source\PSoC5/cyfitter_cfg.c **** 
 361:.\Generated_Source\PSoC5/cyfitter_cfg.c **** 	/* Switch Boost to the precision bandgap reference from its internal reference */
 362:.\Generated_Source\PSoC5/cyfitter_cfg.c **** 	CY_SET_REG8((void CYXDATA *)CYDEV_BOOST_CR2, (CY_GET_REG8((void CYXDATA *)CYDEV_BOOST_CR2) | 0x08u
 654              		.loc 1 362 0
 655 018a 44F22233 		movw	r3, #:lower16:1073759010
 656 018e C4F20003 		movt	r3, #:upper16:1073759010
 657 0192 44F22232 		movw	r2, #:lower16:1073759010
 658 0196 C4F20002 		movt	r2, #:upper16:1073759010
 659 019a 1278     		ldrb	r2, [r2, #0]
 660 019c D2B2     		uxtb	r2, r2
ARM GAS  C:\Users\Craig\AppData\Local\Temp\ccvnBOGy.s 			page 19


 661 019e 42F00802 		orr	r2, r2, #8
 662 01a2 D2B2     		uxtb	r2, r2
 663 01a4 1A70     		strb	r2, [r3, #0]
 363:.\Generated_Source\PSoC5/cyfitter_cfg.c **** 
 364:.\Generated_Source\PSoC5/cyfitter_cfg.c **** 	/* Set Flash Cycles based on max possible frequency in case a glitch occurs during ClockSetup(). *
 365:.\Generated_Source\PSoC5/cyfitter_cfg.c **** 	CY_SET_XTND_REG8((void CYFAR *)(CYREG_CACHE_CC_CTL), (((CYDEV_INSTRUCT_CACHE_ENABLED) != 0) ? 0x01
 664              		.loc 1 365 0
 665 01a6 44F60003 		movw	r3, #:lower16:1073760256
 666 01aa C4F20003 		movt	r3, #:upper16:1073760256
 667 01ae 4FF00102 		mov	r2, #1
 668 01b2 1A70     		strb	r2, [r3, #0]
 366:.\Generated_Source\PSoC5/cyfitter_cfg.c **** 	/* Setup clocks based on selections from Clock DWR */
 367:.\Generated_Source\PSoC5/cyfitter_cfg.c **** 	ClockSetup();
 669              		.loc 1 367 0
 670 01b4 FFF7FEFF 		bl	ClockSetup
 368:.\Generated_Source\PSoC5/cyfitter_cfg.c **** 	/* Set Flash Cycles based on newly configured 24.00MHz Bus Clock. */
 369:.\Generated_Source\PSoC5/cyfitter_cfg.c **** 	CY_SET_XTND_REG8((void CYFAR *)(CYREG_CACHE_CC_CTL), (((CYDEV_INSTRUCT_CACHE_ENABLED) != 0) ? 0x81
 671              		.loc 1 369 0
 672 01b8 44F60003 		movw	r3, #:lower16:1073760256
 673 01bc C4F20003 		movt	r3, #:upper16:1073760256
 674 01c0 6FF07E02 		mvn	r2, #126
 675 01c4 1A70     		strb	r2, [r3, #0]
 370:.\Generated_Source\PSoC5/cyfitter_cfg.c **** 	CY_SET_XTND_REG8((void CYFAR *)(CYREG_PANTHER_WAITPIPE), 0x01u);
 676              		.loc 1 370 0
 677 01c6 40F20403 		movw	r3, #:lower16:1074266116
 678 01ca C4F20803 		movt	r3, #:upper16:1074266116
 679 01ce 4FF00102 		mov	r2, #1
 680 01d2 1A70     		strb	r2, [r3, #0]
 371:.\Generated_Source\PSoC5/cyfitter_cfg.c **** 
 372:.\Generated_Source\PSoC5/cyfitter_cfg.c **** 	/* Perform basic analog initialization to defaults */
 373:.\Generated_Source\PSoC5/cyfitter_cfg.c **** 	AnalogSetDefault();
 681              		.loc 1 373 0
 682 01d4 FFF7FEFF 		bl	AnalogSetDefault
 374:.\Generated_Source\PSoC5/cyfitter_cfg.c **** 
 375:.\Generated_Source\PSoC5/cyfitter_cfg.c **** 	/* Configure alternate active mode */
 376:.\Generated_Source\PSoC5/cyfitter_cfg.c **** 	CYCONFIGCPY((void CYFAR *)CYDEV_PM_STBY_BASE, (const void CYFAR *)CYDEV_PM_ACT_BASE, 14u);
 683              		.loc 1 376 0
 684 01d8 44F2B030 		movw	r0, #:lower16:1073759152
 685 01dc C4F20000 		movt	r0, #:upper16:1073759152
 686 01e0 44F2A031 		movw	r1, #:lower16:1073759136
 687 01e4 C4F20001 		movt	r1, #:upper16:1073759136
 688 01e8 4FF00E02 		mov	r2, #14
 689 01ec FFF7FEFF 		bl	CYCONFIGCPY
 377:.\Generated_Source\PSoC5/cyfitter_cfg.c **** }
 690              		.loc 1 377 0
 691 01f0 07F10807 		add	r7, r7, #8
 692 01f4 BD46     		mov	sp, r7
 693 01f6 80BD     		pop	{r7, pc}
 694              		.cfi_endproc
 695              	.LFE7:
 696              		.size	cyfitter_cfg, .-cyfitter_cfg
 697              		.section	.rodata
 698              		.align	2
 699              		.type	cfg_memset_list.2074, %object
 700              		.size	cfg_memset_list.2074, 48
 701              	cfg_memset_list.2074:
 702 0000 00510040 		.word	1073762560
ARM GAS  C:\Users\Craig\AppData\Local\Temp\ccvnBOGy.s 			page 20


 703 0004 2000     		.short	32
 704 0006 50510040 		.4byte	1073762640
 705 000a 1000     		.short	16
 706 000c F0510040 		.word	1073762800
 707 0010 1000     		.short	16
 708 0012 00000140 		.4byte	1073807360
 709 0016 0010     		.short	4096
 710 0018 00140140 		.word	1073812480
 711 001c 0008     		.short	2048
 712 001e 00400140 		.4byte	1073823744
 713 0022 000A     		.short	2560
 714 0024 004C0140 		.word	1073826816
 715 0028 0002     		.short	512
 716 002a 00500140 		.4byte	1073827840
 717 002e 2000     		.short	32
 718              		.text
 719              	.Letext0: