ARM GAS  C:\Users\Craig\AppData\Local\Temp\ccirp6eR.s 			page 1


   1              		.syntax unified
   2              		.cpu cortex-m3
   3              		.fpu softvfp
   4              		.eabi_attribute 20, 1
   5              		.eabi_attribute 21, 1
   6              		.eabi_attribute 23, 3
   7              		.eabi_attribute 24, 1
   8              		.eabi_attribute 25, 1
   9              		.eabi_attribute 26, 1
  10              		.eabi_attribute 30, 6
  11              		.eabi_attribute 18, 4
  12              		.thumb
  13              		.file	"main.c"
  20 0000 C5010000 		.text
  20      02005300 
  20      00000201 
  20      FB0E0D00 
  20      01010101 
  21              	.Ltext0:
  22              		.cfi_sections	.debug_frame
  23              		.global	vsync
  24              		.bss
  25              		.align	2
  26              		.type	vsync, %object
  27              		.size	vsync, 4
  28              	vsync:
  29 0000 00000000 		.space	4
  30              		.comm	picture,100,4
  31              		.global	Row
  32              		.type	Row, %object
  33              		.size	Row, 1
  34              	Row:
  35 0004 00       		.space	1
  36              		.global	Column
  37              		.type	Column, %object
  38              		.size	Column, 1
  39              	Column:
  40 0005 00       		.space	1
  41              		.section	.text.pump,"ax",%progbits
  42              		.align	2
  43              		.global	pump
  44              		.thumb
  45              		.thumb_func
  46              		.type	pump, %function
  47              	pump:
  48              	.LFB29:
  49              		.file 1 ".\\main.c"
   1:.\main.c      **** /* ========================================
   2:.\main.c      ****  *
   3:.\main.c      ****  * Copyright YOUR COMPANY, THE YEAR
   4:.\main.c      ****  * All Rights Reserved
ARM GAS  C:\Users\Craig\AppData\Local\Temp\ccirp6eR.s 			page 2


   5:.\main.c      ****  * UNPUBLISHED, LICENSED SOFTWARE.
   6:.\main.c      ****  *
   7:.\main.c      ****  * CONFIDENTIAL AND PROPRIETARY INFORMATION
   8:.\main.c      ****  * WHICH IS THE PROPERTY OF your company.
   9:.\main.c      ****  *
  10:.\main.c      ****  * ========================================
  11:.\main.c      **** */
  12:.\main.c      **** #include <device.h>
  13:.\main.c      **** int vsync =0;
  14:.\main.c      **** uint8 picture[10][10];
  15:.\main.c      **** uint8 Row =0;
  16:.\main.c      **** uint8 Column =0;
  17:.\main.c      **** 
  18:.\main.c      **** //##################################### SCCB FUNCTIONS ####################################
  19:.\main.c      **** 
  20:.\main.c      **** // This Function pulses the Clock line
  21:.\main.c      **** void pump()
  22:.\main.c      **** {
  50              		.loc 1 22 0
  51              		.cfi_startproc
  52              		@ args = 0, pretend = 0, frame = 0
  53              		@ frame_needed = 1, uses_anonymous_args = 0
  54 0000 80B5     		push	{r7, lr}
  55              	.LCFI0:
  56              		.cfi_def_cfa_offset 8
  57 0002 00AF     		add	r7, sp, #0
  58              		.cfi_offset 14, -4
  59              		.cfi_offset 7, -8
  60              	.LCFI1:
  61              		.cfi_def_cfa_register 7
  23:.\main.c      ****     CyDelayUs(3);
  62              		.loc 1 23 0
  63 0004 4FF00300 		mov	r0, #3
  64 0008 FFF7FEFF 		bl	CyDelayUs
  24:.\main.c      ****     ClockLine_Write(1);
  65              		.loc 1 24 0
  66 000c 4FF00100 		mov	r0, #1
  67 0010 FFF7FEFF 		bl	ClockLine_Write
  25:.\main.c      ****     CyDelayUs(5);
  68              		.loc 1 25 0
  69 0014 4FF00500 		mov	r0, #5
  70 0018 FFF7FEFF 		bl	CyDelayUs
  26:.\main.c      ****     ClockLine_Write(0);
  71              		.loc 1 26 0
  72 001c 4FF00000 		mov	r0, #0
  73 0020 FFF7FEFF 		bl	ClockLine_Write
  27:.\main.c      ****     CyDelayUs(3);
  74              		.loc 1 27 0
  75 0024 4FF00300 		mov	r0, #3
  76 0028 FFF7FEFF 		bl	CyDelayUs
  28:.\main.c      **** }
  77              		.loc 1 28 0
  78 002c 80BD     		pop	{r7, pc}
  79              		.cfi_endproc
  80              	.LFE29:
  81              		.size	pump, .-pump
  82 002e 00BF     		.section	.text.endSeq,"ax",%progbits
ARM GAS  C:\Users\Craig\AppData\Local\Temp\ccirp6eR.s 			page 3


  83              		.align	2
  84              		.global	endSeq
  85              		.thumb
  86              		.thumb_func
  87              		.type	endSeq, %function
  88              	endSeq:
  89              	.LFB30:
  29:.\main.c      **** 
  30:.\main.c      **** 
  31:.\main.c      **** // This is the end sequence for sccb
  32:.\main.c      **** void endSeq()
  33:.\main.c      **** {
  90              		.loc 1 33 0
  91              		.cfi_startproc
  92              		@ args = 0, pretend = 0, frame = 0
  93              		@ frame_needed = 1, uses_anonymous_args = 0
  94 0000 80B5     		push	{r7, lr}
  95              	.LCFI2:
  96              		.cfi_def_cfa_offset 8
  97 0002 00AF     		add	r7, sp, #0
  98              		.cfi_offset 14, -4
  99              		.cfi_offset 7, -8
 100              	.LCFI3:
 101              		.cfi_def_cfa_register 7
  34:.\main.c      ****     ClockLine_Write(1);  //End Sequence
 102              		.loc 1 34 0
 103 0004 4FF00100 		mov	r0, #1
 104 0008 FFF7FEFF 		bl	ClockLine_Write
  35:.\main.c      ****     CyDelayUs(3);
 105              		.loc 1 35 0
 106 000c 4FF00300 		mov	r0, #3
 107 0010 FFF7FEFF 		bl	CyDelayUs
  36:.\main.c      ****     DataLine_Write(1);
 108              		.loc 1 36 0
 109 0014 4FF00100 		mov	r0, #1
 110 0018 FFF7FEFF 		bl	DataLine_Write
  37:.\main.c      ****     
  38:.\main.c      ****     CyDelayUs(50);
 111              		.loc 1 38 0
 112 001c 4FF03200 		mov	r0, #50
 113 0020 FFF7FEFF 		bl	CyDelayUs
  39:.\main.c      **** }
 114              		.loc 1 39 0
 115 0024 80BD     		pop	{r7, pc}
 116              		.cfi_endproc
 117              	.LFE30:
 118              		.size	endSeq, .-endSeq
 119 0026 00BF     		.section	.text.startSeq,"ax",%progbits
 120              		.align	2
 121              		.global	startSeq
 122              		.thumb
 123              		.thumb_func
 124              		.type	startSeq, %function
 125              	startSeq:
 126              	.LFB31:
  40:.\main.c      **** 
  41:.\main.c      **** // THis is the Start sequnce for sccb
ARM GAS  C:\Users\Craig\AppData\Local\Temp\ccirp6eR.s 			page 4


  42:.\main.c      **** void startSeq()
  43:.\main.c      **** {
 127              		.loc 1 43 0
 128              		.cfi_startproc
 129              		@ args = 0, pretend = 0, frame = 0
 130              		@ frame_needed = 1, uses_anonymous_args = 0
 131 0000 80B5     		push	{r7, lr}
 132              	.LCFI4:
 133              		.cfi_def_cfa_offset 8
 134 0002 00AF     		add	r7, sp, #0
 135              		.cfi_offset 14, -4
 136              		.cfi_offset 7, -8
 137              	.LCFI5:
 138              		.cfi_def_cfa_register 7
  44:.\main.c      ****     DataLine_Write(0); // Start Transmission
 139              		.loc 1 44 0
 140 0004 4FF00000 		mov	r0, #0
 141 0008 FFF7FEFF 		bl	DataLine_Write
  45:.\main.c      ****     CyDelayUs(3);
 142              		.loc 1 45 0
 143 000c 4FF00300 		mov	r0, #3
 144 0010 FFF7FEFF 		bl	CyDelayUs
  46:.\main.c      ****     ClockLine_Write(0);
 145              		.loc 1 46 0
 146 0014 4FF00000 		mov	r0, #0
 147 0018 FFF7FEFF 		bl	ClockLine_Write
  47:.\main.c      ****     CyDelayUs(5);
 148              		.loc 1 47 0
 149 001c 4FF00500 		mov	r0, #5
 150 0020 FFF7FEFF 		bl	CyDelayUs
  48:.\main.c      **** }
 151              		.loc 1 48 0
 152 0024 80BD     		pop	{r7, pc}
 153              		.cfi_endproc
 154              	.LFE31:
 155              		.size	startSeq, .-startSeq
 156 0026 00BF     		.section	.text.SccbWritePhase1,"ax",%progbits
 157              		.align	2
 158              		.global	SccbWritePhase1
 159              		.thumb
 160              		.thumb_func
 161              		.type	SccbWritePhase1, %function
 162              	SccbWritePhase1:
 163              	.LFB32:
  49:.\main.c      **** 
  50:.\main.c      **** 
  51:.\main.c      **** void SccbWritePhase1(uint8 id, uint8 addr)
  52:.\main.c      **** {
 164              		.loc 1 52 0
 165              		.cfi_startproc
 166              		@ args = 0, pretend = 0, frame = 24
 167              		@ frame_needed = 1, uses_anonymous_args = 0
 168 0000 80B5     		push	{r7, lr}
 169              	.LCFI6:
 170              		.cfi_def_cfa_offset 8
 171 0002 86B0     		sub	sp, sp, #24
 172              	.LCFI7:
ARM GAS  C:\Users\Craig\AppData\Local\Temp\ccirp6eR.s 			page 5


 173              		.cfi_def_cfa_offset 32
 174 0004 00AF     		add	r7, sp, #0
 175              		.cfi_offset 14, -4
 176              		.cfi_offset 7, -8
 177              	.LCFI8:
 178              		.cfi_def_cfa_register 7
 179 0006 0246     		mov	r2, r0
 180 0008 0B46     		mov	r3, r1
 181 000a FA71     		strb	r2, [r7, #7]
 182 000c BB71     		strb	r3, [r7, #6]
  53:.\main.c      ****     int i;
  54:.\main.c      ****     
  55:.\main.c      ****     // Phase 1 Write
  56:.\main.c      ****      startSeq();
 183              		.loc 1 56 0
 184 000e FFF7FEFF 		bl	startSeq
  57:.\main.c      ****     
  58:.\main.c      ****     for( i=sizeof(id)*CHAR_BIT-1; i>=0;--i) // write the device id
 185              		.loc 1 58 0
 186 0012 4FF00703 		mov	r3, #7
 187 0016 FB60     		str	r3, [r7, #12]
 188 0018 11E0     		b	.L8
 189              	.L9:
 190              	.LBB2:
  59:.\main.c      ****     {
  60:.\main.c      ****         int bit = (id>>i) & 1;
 191              		.loc 1 60 0
 192 001a FA79     		ldrb	r2, [r7, #7]	@ zero_extendqisi2
 193 001c FB68     		ldr	r3, [r7, #12]
 194 001e 42FA03F3 		asr	r3, r2, r3
 195 0022 03F00103 		and	r3, r3, #1
 196 0026 3B61     		str	r3, [r7, #16]
  61:.\main.c      ****         DataLine_Write(bit);
 197              		.loc 1 61 0
 198 0028 3B69     		ldr	r3, [r7, #16]
 199 002a DBB2     		uxtb	r3, r3
 200 002c 1846     		mov	r0, r3
 201 002e FFF7FEFF 		bl	DataLine_Write
  62:.\main.c      ****         pump();
 202              		.loc 1 62 0
 203 0032 FFF7FEFF 		bl	pump
 204              	.LBE2:
 205              		.loc 1 58 0
 206 0036 FB68     		ldr	r3, [r7, #12]
 207 0038 03F1FF33 		add	r3, r3, #-1
 208 003c FB60     		str	r3, [r7, #12]
 209              	.L8:
 210 003e FB68     		ldr	r3, [r7, #12]
 211 0040 002B     		cmp	r3, #0
 212 0042 EADA     		bge	.L9
  63:.\main.c      ****     }
  64:.\main.c      ****     
  65:.\main.c      ****     DataLine_Write(0); // Don't Care bit
 213              		.loc 1 65 0
 214 0044 4FF00000 		mov	r0, #0
 215 0048 FFF7FEFF 		bl	DataLine_Write
  66:.\main.c      ****     pump();
ARM GAS  C:\Users\Craig\AppData\Local\Temp\ccirp6eR.s 			page 6


 216              		.loc 1 66 0
 217 004c FFF7FEFF 		bl	pump
  67:.\main.c      ****     // Phase 2 Write
  68:.\main.c      ****     for( i=sizeof(addr)*CHAR_BIT-1; i>=0;--i) // write the register
 218              		.loc 1 68 0
 219 0050 4FF00703 		mov	r3, #7
 220 0054 FB60     		str	r3, [r7, #12]
 221 0056 11E0     		b	.L10
 222              	.L11:
 223              	.LBB3:
  69:.\main.c      ****     {
  70:.\main.c      ****         int bit = (addr>>i) & 1;
 224              		.loc 1 70 0
 225 0058 BA79     		ldrb	r2, [r7, #6]	@ zero_extendqisi2
 226 005a FB68     		ldr	r3, [r7, #12]
 227 005c 42FA03F3 		asr	r3, r2, r3
 228 0060 03F00103 		and	r3, r3, #1
 229 0064 7B61     		str	r3, [r7, #20]
  71:.\main.c      ****         DataLine_Write(bit);
 230              		.loc 1 71 0
 231 0066 7B69     		ldr	r3, [r7, #20]
 232 0068 DBB2     		uxtb	r3, r3
 233 006a 1846     		mov	r0, r3
 234 006c FFF7FEFF 		bl	DataLine_Write
  72:.\main.c      ****         pump();
 235              		.loc 1 72 0
 236 0070 FFF7FEFF 		bl	pump
 237              	.LBE3:
 238              		.loc 1 68 0
 239 0074 FB68     		ldr	r3, [r7, #12]
 240 0076 03F1FF33 		add	r3, r3, #-1
 241 007a FB60     		str	r3, [r7, #12]
 242              	.L10:
 243 007c FB68     		ldr	r3, [r7, #12]
 244 007e 002B     		cmp	r3, #0
 245 0080 EADA     		bge	.L11
  73:.\main.c      ****     }    
  74:.\main.c      ****     
  75:.\main.c      ****     DataLine_Write(0); // Don't Care bit
 246              		.loc 1 75 0
 247 0082 4FF00000 		mov	r0, #0
 248 0086 FFF7FEFF 		bl	DataLine_Write
  76:.\main.c      ****     pump();
 249              		.loc 1 76 0
 250 008a FFF7FEFF 		bl	pump
  77:.\main.c      **** 
  78:.\main.c      ****     }
 251              		.loc 1 78 0
 252 008e 07F11807 		add	r7, r7, #24
 253 0092 BD46     		mov	sp, r7
 254 0094 80BD     		pop	{r7, pc}
 255              		.cfi_endproc
 256              	.LFE32:
 257              		.size	SccbWritePhase1, .-SccbWritePhase1
 258 0096 00BF     		.section	.text.SccbWrite,"ax",%progbits
 259              		.align	2
 260              		.global	SccbWrite
ARM GAS  C:\Users\Craig\AppData\Local\Temp\ccirp6eR.s 			page 7


 261              		.thumb
 262              		.thumb_func
 263              		.type	SccbWrite, %function
 264              	SccbWrite:
 265              	.LFB33:
  79:.\main.c      ****     
  80:.\main.c      **** 
  81:.\main.c      **** 
  82:.\main.c      **** void SccbWrite(uint8 id, uint8 addr, uint8 byte)
  83:.\main.c      **** {
 266              		.loc 1 83 0
 267              		.cfi_startproc
 268              		@ args = 0, pretend = 0, frame = 16
 269              		@ frame_needed = 1, uses_anonymous_args = 0
 270 0000 80B5     		push	{r7, lr}
 271              	.LCFI9:
 272              		.cfi_def_cfa_offset 8
 273 0002 84B0     		sub	sp, sp, #16
 274              	.LCFI10:
 275              		.cfi_def_cfa_offset 24
 276 0004 00AF     		add	r7, sp, #0
 277              		.cfi_offset 14, -4
 278              		.cfi_offset 7, -8
 279              	.LCFI11:
 280              		.cfi_def_cfa_register 7
 281 0006 1346     		mov	r3, r2
 282 0008 0246     		mov	r2, r0
 283 000a FA71     		strb	r2, [r7, #7]
 284 000c 0A46     		mov	r2, r1
 285 000e BA71     		strb	r2, [r7, #6]
 286 0010 7B71     		strb	r3, [r7, #5]
  84:.\main.c      ****     SccbWritePhase1(id, addr);
 287              		.loc 1 84 0
 288 0012 FA79     		ldrb	r2, [r7, #7]	@ zero_extendqisi2
 289 0014 BB79     		ldrb	r3, [r7, #6]	@ zero_extendqisi2
 290 0016 1046     		mov	r0, r2
 291 0018 1946     		mov	r1, r3
 292 001a FFF7FEFF 		bl	SccbWritePhase1
  85:.\main.c      ****     int i;
  86:.\main.c      ****     for( i=sizeof(byte)*CHAR_BIT-1; i>=0;--i) // write the register
 293              		.loc 1 86 0
 294 001e 4FF00703 		mov	r3, #7
 295 0022 BB60     		str	r3, [r7, #8]
 296 0024 11E0     		b	.L14
 297              	.L15:
 298              	.LBB4:
  87:.\main.c      ****     {
  88:.\main.c      ****         int bit = (byte>>i) & 1;
 299              		.loc 1 88 0
 300 0026 7A79     		ldrb	r2, [r7, #5]	@ zero_extendqisi2
 301 0028 BB68     		ldr	r3, [r7, #8]
 302 002a 42FA03F3 		asr	r3, r2, r3
 303 002e 03F00103 		and	r3, r3, #1
 304 0032 FB60     		str	r3, [r7, #12]
  89:.\main.c      ****         DataLine_Write(bit);
 305              		.loc 1 89 0
 306 0034 FB68     		ldr	r3, [r7, #12]
ARM GAS  C:\Users\Craig\AppData\Local\Temp\ccirp6eR.s 			page 8


 307 0036 DBB2     		uxtb	r3, r3
 308 0038 1846     		mov	r0, r3
 309 003a FFF7FEFF 		bl	DataLine_Write
  90:.\main.c      ****         pump();
 310              		.loc 1 90 0
 311 003e FFF7FEFF 		bl	pump
 312              	.LBE4:
 313              		.loc 1 86 0
 314 0042 BB68     		ldr	r3, [r7, #8]
 315 0044 03F1FF33 		add	r3, r3, #-1
 316 0048 BB60     		str	r3, [r7, #8]
 317              	.L14:
 318 004a BB68     		ldr	r3, [r7, #8]
 319 004c 002B     		cmp	r3, #0
 320 004e EADA     		bge	.L15
  91:.\main.c      ****     }    
  92:.\main.c      ****     
  93:.\main.c      ****     DataLine_Write(0); // Don't Care bit
 321              		.loc 1 93 0
 322 0050 4FF00000 		mov	r0, #0
 323 0054 FFF7FEFF 		bl	DataLine_Write
  94:.\main.c      ****     pump();
 324              		.loc 1 94 0
 325 0058 FFF7FEFF 		bl	pump
  95:.\main.c      ****     endSeq();
 326              		.loc 1 95 0
 327 005c FFF7FEFF 		bl	endSeq
  96:.\main.c      ****     
  97:.\main.c      **** }
 328              		.loc 1 97 0
 329 0060 07F11007 		add	r7, r7, #16
 330 0064 BD46     		mov	sp, r7
 331 0066 80BD     		pop	{r7, pc}
 332              		.cfi_endproc
 333              	.LFE33:
 334              		.size	SccbWrite, .-SccbWrite
 335              		.section	.text.SccbRead,"ax",%progbits
 336              		.align	2
 337              		.global	SccbRead
 338              		.thumb
 339              		.thumb_func
 340              		.type	SccbRead, %function
 341              	SccbRead:
 342              	.LFB34:
  98:.\main.c      **** 
  99:.\main.c      **** void SccbRead(uint8 id, uint8 addr )
 100:.\main.c      **** {
 343              		.loc 1 100 0
 344              		.cfi_startproc
 345              		@ args = 0, pretend = 0, frame = 16
 346              		@ frame_needed = 1, uses_anonymous_args = 0
 347 0000 80B5     		push	{r7, lr}
 348              	.LCFI12:
 349              		.cfi_def_cfa_offset 8
 350 0002 84B0     		sub	sp, sp, #16
 351              	.LCFI13:
 352              		.cfi_def_cfa_offset 24
ARM GAS  C:\Users\Craig\AppData\Local\Temp\ccirp6eR.s 			page 9


 353 0004 00AF     		add	r7, sp, #0
 354              		.cfi_offset 14, -4
 355              		.cfi_offset 7, -8
 356              	.LCFI14:
 357              		.cfi_def_cfa_register 7
 358 0006 0246     		mov	r2, r0
 359 0008 0B46     		mov	r3, r1
 360 000a FA71     		strb	r2, [r7, #7]
 361 000c BB71     		strb	r3, [r7, #6]
 101:.\main.c      ****     int i;
 102:.\main.c      ****     SccbWritePhase1(id, addr);
 362              		.loc 1 102 0
 363 000e FA79     		ldrb	r2, [r7, #7]	@ zero_extendqisi2
 364 0010 BB79     		ldrb	r3, [r7, #6]	@ zero_extendqisi2
 365 0012 1046     		mov	r0, r2
 366 0014 1946     		mov	r1, r3
 367 0016 FFF7FEFF 		bl	SccbWritePhase1
 103:.\main.c      ****     endSeq();
 368              		.loc 1 103 0
 369 001a FFF7FEFF 		bl	endSeq
 104:.\main.c      ****     startSeq();
 370              		.loc 1 104 0
 371 001e FFF7FEFF 		bl	startSeq
 105:.\main.c      ****     
 106:.\main.c      ****     //Phase 1 Read
 107:.\main.c      ****     id++; // for read
 372              		.loc 1 107 0
 373 0022 FB79     		ldrb	r3, [r7, #7]
 374 0024 03F10103 		add	r3, r3, #1
 375 0028 FB71     		strb	r3, [r7, #7]
 108:.\main.c      ****     for( i=sizeof(id)*CHAR_BIT-1; i>=0;--i) // write the device id+1 for read
 376              		.loc 1 108 0
 377 002a 4FF00703 		mov	r3, #7
 378 002e BB60     		str	r3, [r7, #8]
 379 0030 11E0     		b	.L18
 380              	.L19:
 381              	.LBB5:
 109:.\main.c      ****     {
 110:.\main.c      ****         int bit = (id>>i) & 1;
 382              		.loc 1 110 0
 383 0032 FA79     		ldrb	r2, [r7, #7]	@ zero_extendqisi2
 384 0034 BB68     		ldr	r3, [r7, #8]
 385 0036 42FA03F3 		asr	r3, r2, r3
 386 003a 03F00103 		and	r3, r3, #1
 387 003e FB60     		str	r3, [r7, #12]
 111:.\main.c      ****         DataLine_Write(bit);
 388              		.loc 1 111 0
 389 0040 FB68     		ldr	r3, [r7, #12]
 390 0042 DBB2     		uxtb	r3, r3
 391 0044 1846     		mov	r0, r3
 392 0046 FFF7FEFF 		bl	DataLine_Write
 112:.\main.c      ****         pump();
 393              		.loc 1 112 0
 394 004a FFF7FEFF 		bl	pump
 395              	.LBE5:
 396              		.loc 1 108 0
 397 004e BB68     		ldr	r3, [r7, #8]
ARM GAS  C:\Users\Craig\AppData\Local\Temp\ccirp6eR.s 			page 10


 398 0050 03F1FF33 		add	r3, r3, #-1
 399 0054 BB60     		str	r3, [r7, #8]
 400              	.L18:
 401 0056 BB68     		ldr	r3, [r7, #8]
 402 0058 002B     		cmp	r3, #0
 403 005a EADA     		bge	.L19
 113:.\main.c      ****     }
 114:.\main.c      ****     
 115:.\main.c      ****     //Phase 2 read
 116:.\main.c      ****     // read data 
 117:.\main.c      ****     pump(); //don't care bit
 404              		.loc 1 117 0
 405 005c FFF7FEFF 		bl	pump
 118:.\main.c      ****     
 119:.\main.c      ****     
 120:.\main.c      ****     for( i=7; i>=0;--i) // write the device id
 406              		.loc 1 120 0
 407 0060 4FF00703 		mov	r3, #7
 408 0064 BB60     		str	r3, [r7, #8]
 409 0066 0FE0     		b	.L20
 410              	.L21:
 121:.\main.c      ****     {
 122:.\main.c      ****        
 123:.\main.c      ****        /*if(i==8){DataLine_Read();} // ignore first bit
 124:.\main.c      ****        
 125:.\main.c      ****        else{LCD_Char_1_PrintNumber(DataLine_Read());}*/
 126:.\main.c      ****        
 127:.\main.c      ****         LCD_Char_1_PrintNumber(DataLine_Read());
 411              		.loc 1 127 0
 412 0068 FFF7FEFF 		bl	DataLine_Read
 413 006c 0346     		mov	r3, r0
 414 006e 1846     		mov	r0, r3
 415 0070 FFF7FEFF 		bl	LCD_Char_1_PrintNumber
 128:.\main.c      ****         CyDelayUs(15);
 416              		.loc 1 128 0
 417 0074 4FF00F00 		mov	r0, #15
 418 0078 FFF7FEFF 		bl	CyDelayUs
 129:.\main.c      ****         pump();
 419              		.loc 1 129 0
 420 007c FFF7FEFF 		bl	pump
 421              		.loc 1 120 0
 422 0080 BB68     		ldr	r3, [r7, #8]
 423 0082 03F1FF33 		add	r3, r3, #-1
 424 0086 BB60     		str	r3, [r7, #8]
 425              	.L20:
 426 0088 BB68     		ldr	r3, [r7, #8]
 427 008a 002B     		cmp	r3, #0
 428 008c ECDA     		bge	.L21
 130:.\main.c      ****     }
 131:.\main.c      ****     
 132:.\main.c      ****     DataLine_Write(1);
 429              		.loc 1 132 0
 430 008e 4FF00100 		mov	r0, #1
 431 0092 FFF7FEFF 		bl	DataLine_Write
 133:.\main.c      ****     pump();
 432              		.loc 1 133 0
 433 0096 FFF7FEFF 		bl	pump
ARM GAS  C:\Users\Craig\AppData\Local\Temp\ccirp6eR.s 			page 11


 134:.\main.c      ****     DataLine_Write(0);
 434              		.loc 1 134 0
 435 009a 4FF00000 		mov	r0, #0
 436 009e FFF7FEFF 		bl	DataLine_Write
 135:.\main.c      ****     CyDelayUs(4);   
 437              		.loc 1 135 0
 438 00a2 4FF00400 		mov	r0, #4
 439 00a6 FFF7FEFF 		bl	CyDelayUs
 136:.\main.c      ****  
 137:.\main.c      ****     endSeq();
 440              		.loc 1 137 0
 441 00aa FFF7FEFF 		bl	endSeq
 138:.\main.c      ****     
 139:.\main.c      **** }
 442              		.loc 1 139 0
 443 00ae 07F11007 		add	r7, r7, #16
 444 00b2 BD46     		mov	sp, r7
 445 00b4 80BD     		pop	{r7, pc}
 446              		.cfi_endproc
 447              	.LFE34:
 448              		.size	SccbRead, .-SccbRead
 449 00b6 00BF     		.section	.text.CameraConfig,"ax",%progbits
 450              		.align	2
 451              		.global	CameraConfig
 452              		.thumb
 453              		.thumb_func
 454              		.type	CameraConfig, %function
 455              	CameraConfig:
 456              	.LFB35:
 140:.\main.c      **** void CameraConfig()
 141:.\main.c      **** {
 457              		.loc 1 141 0
 458              		.cfi_startproc
 459              		@ args = 0, pretend = 0, frame = 0
 460              		@ frame_needed = 1, uses_anonymous_args = 0
 461 0000 80B5     		push	{r7, lr}
 462              	.LCFI15:
 463              		.cfi_def_cfa_offset 8
 464 0002 00AF     		add	r7, sp, #0
 465              		.cfi_offset 14, -4
 466              		.cfi_offset 7, -8
 467              	.LCFI16:
 468              		.cfi_def_cfa_register 7
 142:.\main.c      ****     //SccbWrite(0x60,0x12,0x80); // initiates soft reset
 143:.\main.c      ****     SccbWrite(0x60,0x12,0x10); // Binning 08 is 1/8 binning
 469              		.loc 1 143 0
 470 0004 4FF06000 		mov	r0, #96
 471 0008 4FF01201 		mov	r1, #18
 472 000c 4FF01002 		mov	r2, #16
 473 0010 FFF7FEFF 		bl	SccbWrite
 144:.\main.c      ****     SccbWrite(0x60,0x11,0x7f); // Output clock divider
 474              		.loc 1 144 0
 475 0014 4FF06000 		mov	r0, #96
 476 0018 4FF01101 		mov	r1, #17
 477 001c 4FF07F02 		mov	r2, #127
 478 0020 FFF7FEFF 		bl	SccbWrite
 145:.\main.c      ****     SccbWrite(0x60,0x32,0xc0); //pixel clock divider 1/4
ARM GAS  C:\Users\Craig\AppData\Local\Temp\ccirp6eR.s 			page 12


 479              		.loc 1 145 0
 480 0024 4FF06000 		mov	r0, #96
 481 0028 4FF03201 		mov	r1, #50
 482 002c 4FF0C002 		mov	r2, #192
 483 0030 FFF7FEFF 		bl	SccbWrite
 146:.\main.c      ****     SccbWrite(0x60,0x15,0x20); // PCLK output only when HREF high
 484              		.loc 1 146 0
 485 0034 4FF06000 		mov	r0, #96
 486 0038 4FF01501 		mov	r1, #21
 487 003c 4FF02002 		mov	r2, #32
 488 0040 FFF7FEFF 		bl	SccbWrite
 147:.\main.c      ****     SccbWrite(0x60,0x80,0x11); //Color bar enable (Test pattern?)
 489              		.loc 1 147 0
 490 0044 4FF06000 		mov	r0, #96
 491 0048 4FF08001 		mov	r1, #128
 492 004c 4FF01102 		mov	r2, #17
 493 0050 FFF7FEFF 		bl	SccbWrite
 148:.\main.c      ****     //SccbWrite(0x60,0x1b,0x05); //pixel shift
 149:.\main.c      ****     SccbWrite(0x60,0x09,0x04); //Slave Mode
 494              		.loc 1 149 0
 495 0054 4FF06000 		mov	r0, #96
 496 0058 4FF00901 		mov	r1, #9
 497 005c 4FF00402 		mov	r2, #4
 498 0060 FFF7FEFF 		bl	SccbWrite
 150:.\main.c      ****     //SccbRead(0x60,0x12);
 151:.\main.c      **** 
 152:.\main.c      **** }
 499              		.loc 1 152 0
 500 0064 80BD     		pop	{r7, pc}
 501              		.cfi_endproc
 502              	.LFE35:
 503              		.size	CameraConfig, .-CameraConfig
 504              		.comm	buffer,350,4
 505              		.comm	length,1,1
 506              		.comm	pixel,1,1
 507              		.comm	row,2,2
 508              		.global	column
 509 0066 00BF     		.bss
 510              		.align	1
 511              		.type	column, %object
 512              		.size	column, 2
 513              	column:
 514 0006 0000     		.space	2
 515              		.comm	pos,1,1
 516              		.comm	imageNumber,1,1
 517              		.comm	state,1,1
 518              		.global	status
 519              		.type	status, %object
 520              		.size	status, 1
 521              	status:
 522 0008 00       		.space	1
 523              		.comm	countpc,2,2
 524              		.section	.text.sendData,"ax",%progbits
 525              		.align	2
 526              		.global	sendData
 527              		.thumb
 528              		.thumb_func
ARM GAS  C:\Users\Craig\AppData\Local\Temp\ccirp6eR.s 			page 13


 529              		.type	sendData, %function
 530              	sendData:
 531              	.LFB36:
 153:.\main.c      **** 
 154:.\main.c      **** //###################### END SCCB FUNCTIONS ######################
 155:.\main.c      **** 
 156:.\main.c      **** uint8 buffer[350],length;
 157:.\main.c      **** uint8 pixel;
 158:.\main.c      **** uint16 row, column=0;
 159:.\main.c      **** //uint8 imageData0[350][350];
 160:.\main.c      **** uint8 pos;
 161:.\main.c      **** uint8 imageNumber;
 162:.\main.c      **** uint8 state;
 163:.\main.c      **** uint8 status=0;
 164:.\main.c      **** uint16 countpc;
 165:.\main.c      **** 
 166:.\main.c      **** void sendData()
 167:.\main.c      **** {
 532              		.loc 1 167 0
 533              		.cfi_startproc
 534              		@ args = 0, pretend = 0, frame = 0
 535              		@ frame_needed = 1, uses_anonymous_args = 0
 536 0000 80B5     		push	{r7, lr}
 537              	.LCFI17:
 538              		.cfi_def_cfa_offset 8
 539 0002 00AF     		add	r7, sp, #0
 540              		.cfi_offset 14, -4
 541              		.cfi_offset 7, -8
 542              	.LCFI18:
 543              		.cfi_def_cfa_register 7
 168:.\main.c      ****         Pin_5_Write(1);
 544              		.loc 1 168 0
 545 0004 4FF00100 		mov	r0, #1
 546 0008 FFF7FEFF 		bl	Pin_5_Write
 169:.\main.c      ****         LED_Write(0);
 547              		.loc 1 169 0
 548 000c 4FF00000 		mov	r0, #0
 549 0010 FFF7FEFF 		bl	LED_Write
 550              	.L26:
 170:.\main.c      ****         while(USB_bGetEPState(1) != USB_IN_BUFFER_EMPTY); 
 551              		.loc 1 170 0
 552 0014 4FF00100 		mov	r0, #1
 553 0018 FFF7FEFF 		bl	USB_GetEPState
 554 001c 0346     		mov	r3, r0
 555 001e 012B     		cmp	r3, #1
 556 0020 F8D1     		bne	.L26
 171:.\main.c      ****         USB_LoadInEP(1, &buffer[0], 64);
 557              		.loc 1 171 0
 558 0022 4FF00100 		mov	r0, #1
 559 0026 40F20001 		movw	r1, #:lower16:buffer
 560 002a C0F20001 		movt	r1, #:upper16:buffer
 561 002e 4FF04002 		mov	r2, #64
 562 0032 FFF7FEFF 		bl	USB_LoadInEP
 563              	.L27:
 172:.\main.c      ****         
 173:.\main.c      ****             //LCD_Char_1_PrintNumber(USB_bGetEPState(1));
 174:.\main.c      ****         while(USB_bGetEPState(1) != USB_IN_BUFFER_EMPTY);
ARM GAS  C:\Users\Craig\AppData\Local\Temp\ccirp6eR.s 			page 14


 564              		.loc 1 174 0
 565 0036 4FF00100 		mov	r0, #1
 566 003a FFF7FEFF 		bl	USB_GetEPState
 567 003e 0346     		mov	r3, r0
 568 0040 012B     		cmp	r3, #1
 569 0042 F8D1     		bne	.L27
 175:.\main.c      ****         USB_LoadInEP(1, &buffer[64], 64);
 570              		.loc 1 175 0
 571 0044 4FF00100 		mov	r0, #1
 572 0048 1B49     		ldr	r1, .L32
 573 004a 4FF04002 		mov	r2, #64
 574 004e FFF7FEFF 		bl	USB_LoadInEP
 575              	.L28:
 176:.\main.c      ****            // LCD_Char_1_PrintNumber(USB_bGetEPState(1));
 177:.\main.c      ****         while(USB_bGetEPState(1) != USB_IN_BUFFER_EMPTY);
 576              		.loc 1 177 0
 577 0052 4FF00100 		mov	r0, #1
 578 0056 FFF7FEFF 		bl	USB_GetEPState
 579 005a 0346     		mov	r3, r0
 580 005c 012B     		cmp	r3, #1
 581 005e F8D1     		bne	.L28
 178:.\main.c      ****         USB_LoadInEP(1, &buffer[128], 64);
 582              		.loc 1 178 0
 583 0060 4FF00100 		mov	r0, #1
 584 0064 1549     		ldr	r1, .L32+4
 585 0066 4FF04002 		mov	r2, #64
 586 006a FFF7FEFF 		bl	USB_LoadInEP
 587              	.L29:
 179:.\main.c      ****            // LCD_Char_1_PrintNumber(USB_bGetEPState(1));
 180:.\main.c      ****         while(USB_bGetEPState(1) != USB_IN_BUFFER_EMPTY);
 588              		.loc 1 180 0
 589 006e 4FF00100 		mov	r0, #1
 590 0072 FFF7FEFF 		bl	USB_GetEPState
 591 0076 0346     		mov	r3, r0
 592 0078 012B     		cmp	r3, #1
 593 007a F8D1     		bne	.L29
 181:.\main.c      ****         USB_LoadInEP(1, &buffer[192], 64);
 594              		.loc 1 181 0
 595 007c 4FF00100 		mov	r0, #1
 596 0080 0F49     		ldr	r1, .L32+8
 597 0082 4FF04002 		mov	r2, #64
 598 0086 FFF7FEFF 		bl	USB_LoadInEP
 599              	.L30:
 182:.\main.c      ****            // LCD_Char_1_PrintNumber(USB_bGetEPState(1));
 183:.\main.c      ****         while(USB_bGetEPState(1) != USB_IN_BUFFER_EMPTY);
 600              		.loc 1 183 0
 601 008a 4FF00100 		mov	r0, #1
 602 008e FFF7FEFF 		bl	USB_GetEPState
 603 0092 0346     		mov	r3, r0
 604 0094 012B     		cmp	r3, #1
 605 0096 F8D1     		bne	.L30
 184:.\main.c      ****         USB_LoadInEP(1, &buffer[256], 64);
 606              		.loc 1 184 0
 607 0098 4FF00100 		mov	r0, #1
 608 009c 0949     		ldr	r1, .L32+12
 609 009e 4FF04002 		mov	r2, #64
 610 00a2 FFF7FEFF 		bl	USB_LoadInEP
ARM GAS  C:\Users\Craig\AppData\Local\Temp\ccirp6eR.s 			page 15


 185:.\main.c      ****            // LCD_Char_1_PrintNumber(USB_bGetEPState(1));
 186:.\main.c      ****         LED_Write(1);
 611              		.loc 1 186 0
 612 00a6 4FF00100 		mov	r0, #1
 613 00aa FFF7FEFF 		bl	LED_Write
 187:.\main.c      ****         Pin_5_Write(0);
 614              		.loc 1 187 0
 615 00ae 4FF00000 		mov	r0, #0
 616 00b2 FFF7FEFF 		bl	Pin_5_Write
 188:.\main.c      ****         /*
 189:.\main.c      ****         
 190:.\main.c      ****         while(USB_bGetEPState(1) != USB_IN_BUFFER_EMPTY);
 191:.\main.c      ****         USB_LoadInEP(1, &buffer[64], 64);
 192:.\main.c      ****         while(USB_bGetEPState(1) != USB_IN_BUFFER_EMPTY);
 193:.\main.c      ****         USB_LoadInEP(1, &buffer[128], 64);
 194:.\main.c      ****         while(USB_bGetEPState(1) != USB_IN_BUFFER_EMPTY);
 195:.\main.c      ****         USB_LoadInEP(1, &buffer[192], 64);
 196:.\main.c      ****         while(USB_bGetEPState(1) != USB_IN_BUFFER_EMPTY);
 197:.\main.c      ****         USB_LoadInEP(1, &buffer[256], 64);
 198:.\main.c      ****        //Pin_5_Write(0);
 199:.\main.c      ****        */
 200:.\main.c      **** }
 617              		.loc 1 200 0
 618 00b6 80BD     		pop	{r7, pc}
 619              	.L33:
 620              		.align	2
 621              	.L32:
 622 00b8 40000000 		.word	buffer+64
 623 00bc 80000000 		.word	buffer+128
 624 00c0 C0000000 		.word	buffer+192
 625 00c4 00010000 		.word	buffer+256
 626              		.cfi_endproc
 627              	.LFE36:
 628              		.size	sendData, .-sendData
 629              		.section	.text.PCLK_Interrupt,"ax",%progbits
 630              		.align	2
 631              		.global	PCLK_Interrupt
 632              		.thumb
 633              		.thumb_func
 634              		.type	PCLK_Interrupt, %function
 635              	PCLK_Interrupt:
 636              	.LFB37:
 201:.\main.c      **** 
 202:.\main.c      **** 
 203:.\main.c      **** 
 204:.\main.c      **** CY_ISR(PCLK_Interrupt)
 205:.\main.c      **** {
 637              		.loc 1 205 0
 638              		.cfi_startproc
 639              		@ args = 0, pretend = 0, frame = 0
 640              		@ frame_needed = 1, uses_anonymous_args = 0
 641 0000 98B5     		push	{r3, r4, r7, lr}
 642              	.LCFI19:
 643              		.cfi_def_cfa_offset 16
 644 0002 00AF     		add	r7, sp, #0
 645              		.cfi_offset 14, -4
 646              		.cfi_offset 7, -8
ARM GAS  C:\Users\Craig\AppData\Local\Temp\ccirp6eR.s 			page 16


 647              		.cfi_offset 4, -12
 648              		.cfi_offset 3, -16
 649              	.LCFI20:
 650              		.cfi_def_cfa_register 7
 206:.\main.c      **** 
 207:.\main.c      ****    buffer[column]=DataBus_Read();
 651              		.loc 1 207 0
 652 0004 40F20003 		movw	r3, #:lower16:column
 653 0008 C0F20003 		movt	r3, #:upper16:column
 654 000c 1B88     		ldrh	r3, [r3, #0]
 655 000e 1C46     		mov	r4, r3
 656 0010 FFF7FEFF 		bl	DataBus_Read
 657 0014 0346     		mov	r3, r0
 658 0016 1A46     		mov	r2, r3
 659 0018 40F20003 		movw	r3, #:lower16:buffer
 660 001c C0F20003 		movt	r3, #:upper16:buffer
 661 0020 1A55     		strb	r2, [r3, r4]
 208:.\main.c      ****    ++column;
 662              		.loc 1 208 0
 663 0022 40F20003 		movw	r3, #:lower16:column
 664 0026 C0F20003 		movt	r3, #:upper16:column
 665 002a 1B88     		ldrh	r3, [r3, #0]
 666 002c 03F10103 		add	r3, r3, #1
 667 0030 9AB2     		uxth	r2, r3
 668 0032 40F20003 		movw	r3, #:lower16:column
 669 0036 C0F20003 		movt	r3, #:upper16:column
 670 003a 1A80     		strh	r2, [r3, #0]	@ movhi
 209:.\main.c      **** 
 210:.\main.c      **** }
 671              		.loc 1 210 0
 672 003c 98BD     		pop	{r3, r4, r7, pc}
 673              		.cfi_endproc
 674              	.LFE37:
 675              		.size	PCLK_Interrupt, .-PCLK_Interrupt
 676 003e 00BF     		.section	.text.VREF_Interrupt,"ax",%progbits
 677              		.align	2
 678              		.global	VREF_Interrupt
 679              		.thumb
 680              		.thumb_func
 681              		.type	VREF_Interrupt, %function
 682              	VREF_Interrupt:
 683              	.LFB38:
 211:.\main.c      **** 
 212:.\main.c      **** 
 213:.\main.c      **** CY_ISR(VREF_Interrupt)
 214:.\main.c      **** { 
 684              		.loc 1 214 0
 685              		.cfi_startproc
 686              		@ args = 0, pretend = 0, frame = 0
 687              		@ frame_needed = 1, uses_anonymous_args = 0
 688 0000 80B5     		push	{r7, lr}
 689              	.LCFI21:
 690              		.cfi_def_cfa_offset 8
 691 0002 00AF     		add	r7, sp, #0
 692              		.cfi_offset 14, -4
 693              		.cfi_offset 7, -8
 694              	.LCFI22:
ARM GAS  C:\Users\Craig\AppData\Local\Temp\ccirp6eR.s 			page 17


 695              		.cfi_def_cfa_register 7
 215:.\main.c      ****     Pin_5_Write(~Pin_5_Read());
 696              		.loc 1 215 0
 697 0004 FFF7FEFF 		bl	Pin_5_Read
 698 0008 0346     		mov	r3, r0
 699 000a 6FEA0303 		mvn	r3, r3
 700 000e DBB2     		uxtb	r3, r3
 701 0010 1846     		mov	r0, r3
 702 0012 FFF7FEFF 		bl	Pin_5_Write
 216:.\main.c      ****     sendData();
 703              		.loc 1 216 0
 704 0016 FFF7FEFF 		bl	sendData
 217:.\main.c      ****     //isr_HREF_Enable(); // Start the HREF interrupts
 218:.\main.c      ****     //isr_HREF_FALL_Enable();
 219:.\main.c      ****     //isr_PCLK_Enable();
 220:.\main.c      **** }
 705              		.loc 1 220 0
 706 001a 80BD     		pop	{r7, pc}
 707              		.cfi_endproc
 708              	.LFE38:
 709              		.size	VREF_Interrupt, .-VREF_Interrupt
 710              		.section	.text.HREF_Interrupt,"ax",%progbits
 711              		.align	2
 712              		.global	HREF_Interrupt
 713              		.thumb
 714              		.thumb_func
 715              		.type	HREF_Interrupt, %function
 716              	HREF_Interrupt:
 717              	.LFB39:
 221:.\main.c      **** 
 222:.\main.c      **** /*
 223:.\main.c      **** CY_ISR(VREF_FALL_Interrupt)
 224:.\main.c      **** { 
 225:.\main.c      ****     //LED_Write(0);
 226:.\main.c      ****     row=0;
 227:.\main.c      ****     isr_PCLK_Enable();  
 228:.\main.c      **** }*/
 229:.\main.c      **** 
 230:.\main.c      **** 
 231:.\main.c      **** CY_ISR(HREF_Interrupt)
 232:.\main.c      **** {
 718              		.loc 1 232 0
 719              		.cfi_startproc
 720              		@ args = 0, pretend = 0, frame = 0
 721              		@ frame_needed = 1, uses_anonymous_args = 0
 722              		@ link register save eliminated.
 723 0000 80B4     		push	{r7}
 724              	.LCFI23:
 725              		.cfi_def_cfa_offset 4
 726 0002 00AF     		add	r7, sp, #0
 727              		.cfi_offset 7, -4
 728              	.LCFI24:
 729              		.cfi_def_cfa_register 7
 233:.\main.c      **** 
 234:.\main.c      ****     //isr_PCLK_Enable();
 235:.\main.c      ****     column=0;
 730              		.loc 1 235 0
ARM GAS  C:\Users\Craig\AppData\Local\Temp\ccirp6eR.s 			page 18


 731 0004 40F20003 		movw	r3, #:lower16:column
 732 0008 C0F20003 		movt	r3, #:upper16:column
 733 000c 4FF00002 		mov	r2, #0
 734 0010 1A80     		strh	r2, [r3, #0]	@ movhi
 236:.\main.c      **** 
 237:.\main.c      **** }
 735              		.loc 1 237 0
 736 0012 BD46     		mov	sp, r7
 737 0014 80BC     		pop	{r7}
 738 0016 7047     		bx	lr
 739              		.cfi_endproc
 740              	.LFE39:
 741              		.size	HREF_Interrupt, .-HREF_Interrupt
 742              		.comm	pixelarray,5,4
 743              		.section	.text.HREF_FALL_Interrupt,"ax",%progbits
 744              		.align	2
 745              		.global	HREF_FALL_Interrupt
 746              		.thumb
 747              		.thumb_func
 748              		.type	HREF_FALL_Interrupt, %function
 749              	HREF_FALL_Interrupt:
 750              	.LFB40:
 238:.\main.c      **** 
 239:.\main.c      **** uint8 pixelarray[5];
 240:.\main.c      **** 
 241:.\main.c      **** 
 242:.\main.c      **** CY_ISR(HREF_FALL_Interrupt)
 243:.\main.c      **** {
 751              		.loc 1 243 0
 752              		.cfi_startproc
 753              		@ args = 0, pretend = 0, frame = 0
 754              		@ frame_needed = 1, uses_anonymous_args = 0
 755 0000 80B5     		push	{r7, lr}
 756              	.LCFI25:
 757              		.cfi_def_cfa_offset 8
 758 0002 00AF     		add	r7, sp, #0
 759              		.cfi_offset 14, -4
 760              		.cfi_offset 7, -8
 761              	.LCFI26:
 762              		.cfi_def_cfa_register 7
 244:.\main.c      ****     isr_PCLK_Disable();
 763              		.loc 1 244 0
 764 0004 FFF7FEFF 		bl	isr_PCLK_Disable
 245:.\main.c      ****     isr_HREF_Disable();
 765              		.loc 1 245 0
 766 0008 FFF7FEFF 		bl	isr_HREF_Disable
 246:.\main.c      ****     isr_HREF_FALL_Disable();
 767              		.loc 1 246 0
 768 000c FFF7FEFF 		bl	isr_HREF_FALL_Disable
 247:.\main.c      ****     isr_VREF_Disable();
 769              		.loc 1 247 0
 770 0010 FFF7FEFF 		bl	isr_VREF_Disable
 248:.\main.c      ****     sendData();
 771              		.loc 1 248 0
 772 0014 FFF7FEFF 		bl	sendData
 249:.\main.c      ****     
 250:.\main.c      **** }
ARM GAS  C:\Users\Craig\AppData\Local\Temp\ccirp6eR.s 			page 19


 773              		.loc 1 250 0
 774 0018 80BD     		pop	{r7, pc}
 775              		.cfi_endproc
 776              	.LFE40:
 777              		.size	HREF_FALL_Interrupt, .-HREF_FALL_Interrupt
 778              		.comm	testarray,320,4
 779              		.global	counter
 780 001a 00BF     		.bss
 781              		.type	counter, %object
 782              		.size	counter, 1
 783              	counter:
 784 0009 00       		.space	1
 785              		.comm	testi,1,1
 786              		.global	size
 787 000a 0000     		.data
 788              		.align	1
 789              		.type	size, %object
 790              		.size	size, 2
 791              	size:
 792 0000 FF00     		.short	255
 793              		.section	.text.RX_Interrupt,"ax",%progbits
 794              		.align	2
 795              		.global	RX_Interrupt
 796              		.thumb
 797              		.thumb_func
 798              		.type	RX_Interrupt, %function
 799              	RX_Interrupt:
 800              	.LFB41:
 251:.\main.c      **** uint8 testarray[320];
 252:.\main.c      **** uint8 counter=0;
 253:.\main.c      **** uint8 testi;
 254:.\main.c      **** uint16 size=255;
 255:.\main.c      **** 
 256:.\main.c      **** CY_ISR(RX_Interrupt)
 257:.\main.c      **** 
 258:.\main.c      **** {
 801              		.loc 1 258 0
 802              		.cfi_startproc
 803              		@ args = 0, pretend = 0, frame = 0
 804              		@ frame_needed = 1, uses_anonymous_args = 0
 805 0000 80B5     		push	{r7, lr}
 806              	.LCFI27:
 807              		.cfi_def_cfa_offset 8
 808 0002 00AF     		add	r7, sp, #0
 809              		.cfi_offset 14, -4
 810              		.cfi_offset 7, -8
 811              	.LCFI28:
 812              		.cfi_def_cfa_register 7
 259:.\main.c      ****     LED_Write(1); // Turn on an LED
 813              		.loc 1 259 0
 814 0004 4FF00100 		mov	r0, #1
 815 0008 FFF7FEFF 		bl	LED_Write
 260:.\main.c      **** 
 261:.\main.c      ****    isr_VREF_Enable(); // Start the Image
 816              		.loc 1 261 0
 817 000c FFF7FEFF 		bl	isr_VREF_Enable
 262:.\main.c      ****     
ARM GAS  C:\Users\Craig\AppData\Local\Temp\ccirp6eR.s 			page 20


 263:.\main.c      **** }
 818              		.loc 1 263 0
 819 0010 80BD     		pop	{r7, pc}
 820              		.cfi_endproc
 821              	.LFE41:
 822              		.size	RX_Interrupt, .-RX_Interrupt
 823 0012 00BF     		.section	.text.main,"ax",%progbits
 824              		.align	2
 825              		.global	main
 826              		.thumb
 827              		.thumb_func
 828              		.type	main, %function
 829              	main:
 830              	.LFB42:
 264:.\main.c      **** 
 265:.\main.c      **** 
 266:.\main.c      **** 
 267:.\main.c      **** void main()
 268:.\main.c      **** {
 831              		.loc 1 268 0
 832              		.cfi_startproc
 833              		@ args = 0, pretend = 0, frame = 0
 834              		@ frame_needed = 1, uses_anonymous_args = 0
 835 0000 80B5     		push	{r7, lr}
 836              	.LCFI29:
 837              		.cfi_def_cfa_offset 8
 838 0002 00AF     		add	r7, sp, #0
 839              		.cfi_offset 14, -4
 840              		.cfi_offset 7, -8
 841              	.LCFI30:
 842              		.cfi_def_cfa_register 7
 269:.\main.c      ****     /* Place your initialization/startup code here (e.g. MyInst_Start()) */
 270:.\main.c      ****    // uint8 test;
 271:.\main.c      ****     LCD_Char_1_Start();
 843              		.loc 1 271 0
 844 0004 FFF7FEFF 		bl	LCD_Char_1_Start
 272:.\main.c      ****     LCD_Char_1_DisplayOn();
 845              		.loc 1 272 0
 846 0008 4FF00C00 		mov	r0, #12
 847 000c FFF7FEFF 		bl	LCD_Char_1_WriteControl
 273:.\main.c      **** 
 274:.\main.c      ****     
 275:.\main.c      ****    // UART_Start();  
 276:.\main.c      ****     PWND_Write(0);
 848              		.loc 1 276 0
 849 0010 4FF00000 		mov	r0, #0
 850 0014 FFF7FEFF 		bl	PWND_Write
 277:.\main.c      ****     RST_B_Write(1);
 851              		.loc 1 277 0
 852 0018 4FF00100 		mov	r0, #1
 853 001c FFF7FEFF 		bl	RST_B_Write
 278:.\main.c      ****     FREX_Write(0);
 854              		.loc 1 278 0
 855 0020 4FF00000 		mov	r0, #0
 856 0024 FFF7FEFF 		bl	FREX_Write
 279:.\main.c      ****     EXPST_Write(0);
 857              		.loc 1 279 0
ARM GAS  C:\Users\Craig\AppData\Local\Temp\ccirp6eR.s 			page 21


 858 0028 4FF00000 		mov	r0, #0
 859 002c FFF7FEFF 		bl	EXPST_Write
 280:.\main.c      **** 
 281:.\main.c      ****     isr_rx_StartEx(RX_Interrupt);        //UART Read Interrupt
 860              		.loc 1 281 0
 861 0030 40F20000 		movw	r0, #:lower16:RX_Interrupt
 862 0034 C0F20000 		movt	r0, #:upper16:RX_Interrupt
 863 0038 FFF7FEFF 		bl	isr_rx_StartEx
 282:.\main.c      ****     isr_PCLK_StartEx(PCLK_Interrupt);    //Pixel Clock interrupt
 864              		.loc 1 282 0
 865 003c 40F20000 		movw	r0, #:lower16:PCLK_Interrupt
 866 0040 C0F20000 		movt	r0, #:upper16:PCLK_Interrupt
 867 0044 FFF7FEFF 		bl	isr_PCLK_StartEx
 283:.\main.c      ****     isr_VREF_StartEx(VREF_Interrupt);    // Rising vertical sync 
 868              		.loc 1 283 0
 869 0048 40F20000 		movw	r0, #:lower16:VREF_Interrupt
 870 004c C0F20000 		movt	r0, #:upper16:VREF_Interrupt
 871 0050 FFF7FEFF 		bl	isr_VREF_StartEx
 284:.\main.c      ****     //isr_VREF_FALL_StartEx(VREF_FALL_Interrupt); //Falling vertical sync
 285:.\main.c      ****     isr_HREF_StartEx(HREF_Interrupt); //Rising Horizontal sync
 872              		.loc 1 285 0
 873 0054 40F20000 		movw	r0, #:lower16:HREF_Interrupt
 874 0058 C0F20000 		movt	r0, #:upper16:HREF_Interrupt
 875 005c FFF7FEFF 		bl	isr_HREF_StartEx
 286:.\main.c      ****     isr_HREF_FALL_StartEx(HREF_FALL_Interrupt); // Falling Horizontal sync
 876              		.loc 1 286 0
 877 0060 40F20000 		movw	r0, #:lower16:HREF_FALL_Interrupt
 878 0064 C0F20000 		movt	r0, #:upper16:HREF_FALL_Interrupt
 879 0068 FFF7FEFF 		bl	isr_HREF_FALL_StartEx
 287:.\main.c      ****     
 288:.\main.c      ****     
 289:.\main.c      ****     isr_VREF_SetPriority(0); //highest priority
 880              		.loc 1 289 0
 881 006c 4FF00000 		mov	r0, #0
 882 0070 FFF7FEFF 		bl	isr_VREF_SetPriority
 290:.\main.c      ****     //isr_VREF_FALL_SetPriority(0);
 291:.\main.c      ****     isr_HREF_SetPriority(1);
 883              		.loc 1 291 0
 884 0074 4FF00100 		mov	r0, #1
 885 0078 FFF7FEFF 		bl	isr_HREF_SetPriority
 292:.\main.c      ****     //isr_HREF_LOW_SetPriority(1);
 293:.\main.c      ****     isr_PCLK_SetPriority(2);
 886              		.loc 1 293 0
 887 007c 4FF00200 		mov	r0, #2
 888 0080 FFF7FEFF 		bl	isr_PCLK_SetPriority
 294:.\main.c      ****     
 295:.\main.c      ****     isr_PCLK_Disable();
 889              		.loc 1 295 0
 890 0084 FFF7FEFF 		bl	isr_PCLK_Disable
 296:.\main.c      ****     isr_VREF_Disable();
 891              		.loc 1 296 0
 892 0088 FFF7FEFF 		bl	isr_VREF_Disable
 297:.\main.c      ****     //isr_VREF_FALL_Disable();
 298:.\main.c      ****     isr_HREF_Disable();
 893              		.loc 1 298 0
 894 008c FFF7FEFF 		bl	isr_HREF_Disable
 299:.\main.c      ****     isr_HREF_FALL_Disable();
ARM GAS  C:\Users\Craig\AppData\Local\Temp\ccirp6eR.s 			page 22


 895              		.loc 1 299 0
 896 0090 FFF7FEFF 		bl	isr_HREF_FALL_Disable
 300:.\main.c      ****     
 301:.\main.c      ****     CameraConfig();
 897              		.loc 1 301 0
 898 0094 FFF7FEFF 		bl	CameraConfig
 302:.\main.c      ****     
 303:.\main.c      ****     //global enable    
 304:.\main.c      ****     CyGlobalIntEnable; 
 899              		.loc 1 304 0
 900              	@ 304 ".\main.c" 1
 901 0098 62B6     		CPSIE   i
 902              	@ 0 "" 2
 305:.\main.c      ****     /*
 306:.\main.c      ****     FREX_Write(1);
 307:.\main.c      ****     CyDelayUs(50);
 308:.\main.c      ****     EXPST_Write(1);
 309:.\main.c      ****     CyDelayUs(50);
 310:.\main.c      ****     EXPST_Write(0);
 311:.\main.c      ****     CyDelayUs(50);
 312:.\main.c      ****     FREX_Write(0);
 313:.\main.c      ****     */
 314:.\main.c      ****     
 315:.\main.c      ****     //Start the USB and wait for it to connect
 316:.\main.c      ****     USB_Start(0u, USB_3V_OPERATION);
 903              		.loc 1 316 0
 904              		.thumb
 905 009a 4FF00000 		mov	r0, #0
 906 009e 4FF00001 		mov	r1, #0
 907 00a2 FFF7FEFF 		bl	USB_Start
 908              	.L45:
 317:.\main.c      ****     while(!USB_bGetConfiguration());
 909              		.loc 1 317 0
 910 00a6 FFF7FEFF 		bl	USB_GetConfiguration
 911 00aa 0346     		mov	r3, r0
 912 00ac 002B     		cmp	r3, #0
 913 00ae FAD0     		beq	.L45
 318:.\main.c      ****     
 319:.\main.c      ****     //Enable the EndPoint as output
 320:.\main.c      ****     USB_EnableOutEP(2);
 914              		.loc 1 320 0
 915 00b0 4FF00200 		mov	r0, #2
 916 00b4 FFF7FEFF 		bl	USB_EnableOutEP
 917              	.L46:
 321:.\main.c      ****     
 322:.\main.c      ****     
 323:.\main.c      ****     //Read from the computer 
 324:.\main.c      ****     while(USB_bGetEPState(2) !=USB_OUT_BUFFER_FULL);
 918              		.loc 1 324 0
 919 00b8 4FF00200 		mov	r0, #2
 920 00bc FFF7FEFF 		bl	USB_GetEPState
 921 00c0 0346     		mov	r3, r0
 922 00c2 012B     		cmp	r3, #1
 923 00c4 F8D1     		bne	.L46
 325:.\main.c      ****     length = USB_wGetEPCount(2);
 924              		.loc 1 325 0
 925 00c6 4FF00200 		mov	r0, #2
ARM GAS  C:\Users\Craig\AppData\Local\Temp\ccirp6eR.s 			page 23


 926 00ca FFF7FEFF 		bl	USB_GetEPCount
 927 00ce 0346     		mov	r3, r0
 928 00d0 DAB2     		uxtb	r2, r3
 929 00d2 40F20003 		movw	r3, #:lower16:length
 930 00d6 C0F20003 		movt	r3, #:upper16:length
 931 00da 1A70     		strb	r2, [r3, #0]
 326:.\main.c      ****     USB_ReadOutEP(2, &buffer[0], length);
 932              		.loc 1 326 0
 933 00dc 40F20003 		movw	r3, #:lower16:length
 934 00e0 C0F20003 		movt	r3, #:upper16:length
 935 00e4 1B78     		ldrb	r3, [r3, #0]	@ zero_extendqisi2
 936 00e6 4FF00200 		mov	r0, #2
 937 00ea 40F20001 		movw	r1, #:lower16:buffer
 938 00ee C0F20001 		movt	r1, #:upper16:buffer
 939 00f2 1A46     		mov	r2, r3
 940 00f4 FFF7FEFF 		bl	USB_ReadOutEP
 327:.\main.c      ****     
 328:.\main.c      ****     //Start the transmission capture
 329:.\main.c      ****     LED_Write(1);
 941              		.loc 1 329 0
 942 00f8 4FF00100 		mov	r0, #1
 943 00fc FFF7FEFF 		bl	LED_Write
 330:.\main.c      ****     
 331:.\main.c      ****     isr_VREF_ClearPending();
 944              		.loc 1 331 0
 945 0100 FFF7FEFF 		bl	isr_VREF_ClearPending
 332:.\main.c      ****    // isr_VREF_Enable();
 333:.\main.c      ****     sendData();
 946              		.loc 1 333 0
 947 0104 FFF7FEFF 		bl	sendData
 948              	.L47:
 334:.\main.c      ****     
 335:.\main.c      ****       
 336:.\main.c      ****     
 337:.\main.c      ****     for(;;)
 338:.\main.c      ****     {
 339:.\main.c      ****         /* Place your application code here. */
 340:.\main.c      ****         
 341:.\main.c      ****         /*
 342:.\main.c      ****          if (pos >=255)
 343:.\main.c      ****         {
 344:.\main.c      ****             // CyGlobalIntDisable;
 345:.\main.c      ****             isr_PCLK_Disable();
 346:.\main.c      ****             isr_HREF_Disable();
 347:.\main.c      ****             isr_VREF_Disable();       
 348:.\main.c      ****              sendData();
 349:.\main.c      ****         //LED_Write(1);
 350:.\main.c      ****         }*/
 351:.\main.c      ****     }
 949              		.loc 1 351 0
 950 0108 FEE7     		b	.L47
 951              		.cfi_endproc
 952              	.LFE42:
 953              		.size	main, .-main
 954 010a 00BF     		.text
 955              	.Letext0: