ARM GAS  C:\Users\Craig\AppData\Local\Temp\cc9NnIsK.s 			page 1


   1              		.syntax unified
   2              		.cpu cortex-m3
   3              		.fpu softvfp
   4              		.eabi_attribute 20, 1
   5              		.eabi_attribute 21, 1
   6              		.eabi_attribute 23, 3
   7              		.eabi_attribute 24, 1
   8              		.eabi_attribute 25, 1
   9              		.eabi_attribute 26, 1
  10              		.eabi_attribute 30, 6
  11              		.eabi_attribute 18, 4
  12              		.thumb
  13              		.file	"USB_std.c"
  14              		.section	.debug_abbrev,"",%progbits
  15              	.Ldebug_abbrev0:
  16              		.section	.debug_info,"",%progbits
  17              	.Ldebug_info0:
  18              		.section	.debug_line,"",%progbits
  19              	.Ldebug_line0:
  20 0000 AE020000 		.text
  20      02006900 
  20      00000201 
  20      FB0E0D00 
  20      01010101 
  21              	.Ltext0:
  22              		.cfi_sections	.debug_frame
  23              		.comm	USB_tBuffer,2,4
  24              		.comm	USB_fwSerialNumberStringDescriptor,4,4
  25              		.global	USB_snStringConfirm
  26              		.bss
  27              		.type	USB_snStringConfirm, %object
  28              		.size	USB_snStringConfirm, 1
  29              	USB_snStringConfirm:
  30 0000 00       		.space	1
  31              		.section	.text.USB_SerialNumString,"ax",%progbits
  32              		.align	2
  33              		.global	USB_SerialNumString
  34              		.thumb
  35              		.thumb_func
  36              		.type	USB_SerialNumString, %function
  37              	USB_SerialNumString:
  38              	.LFB0:
  39              		.file 1 ".\\Generated_Source\\PSoC5\\USB_std.c"
   1:.\Generated_Source\PSoC5/USB_std.c **** /*******************************************************************************
   2:.\Generated_Source\PSoC5/USB_std.c **** * File Name: USB_std.c
   3:.\Generated_Source\PSoC5/USB_std.c **** * Version 2.50
   4:.\Generated_Source\PSoC5/USB_std.c **** *
   5:.\Generated_Source\PSoC5/USB_std.c **** * Description:
   6:.\Generated_Source\PSoC5/USB_std.c **** *  USB Standard request handler.
   7:.\Generated_Source\PSoC5/USB_std.c **** *
   8:.\Generated_Source\PSoC5/USB_std.c **** * Note:
   9:.\Generated_Source\PSoC5/USB_std.c **** *
  10:.\Generated_Source\PSoC5/USB_std.c **** ********************************************************************************
  11:.\Generated_Source\PSoC5/USB_std.c **** * Copyright 2008-2012, Cypress Semiconductor Corporation.  All rights reserved.
  12:.\Generated_Source\PSoC5/USB_std.c **** * You may use this file only in accordance with the license, terms, conditions,
  13:.\Generated_Source\PSoC5/USB_std.c **** * disclaimers, and limitations in the end user license agreement accompanying
  14:.\Generated_Source\PSoC5/USB_std.c **** * the software package with which this file was provided.
ARM GAS  C:\Users\Craig\AppData\Local\Temp\cc9NnIsK.s 			page 2


  15:.\Generated_Source\PSoC5/USB_std.c **** *******************************************************************************/
  16:.\Generated_Source\PSoC5/USB_std.c **** 
  17:.\Generated_Source\PSoC5/USB_std.c **** #include "USB.h"
  18:.\Generated_Source\PSoC5/USB_std.c **** 
  19:.\Generated_Source\PSoC5/USB_std.c **** 
  20:.\Generated_Source\PSoC5/USB_std.c **** /***************************************
  21:.\Generated_Source\PSoC5/USB_std.c **** * External references
  22:.\Generated_Source\PSoC5/USB_std.c **** ***************************************/
  23:.\Generated_Source\PSoC5/USB_std.c **** 
  24:.\Generated_Source\PSoC5/USB_std.c **** extern const uint8 CYCODE USB_DEVICE0_DESCR[];
  25:.\Generated_Source\PSoC5/USB_std.c **** extern const uint8 CYCODE USB_DEVICE0_CONFIGURATION0_DESCR[];
  26:.\Generated_Source\PSoC5/USB_std.c **** extern const uint8 CYCODE USB_STRING_DESCRIPTORS[];
  27:.\Generated_Source\PSoC5/USB_std.c **** extern const uint8 CYCODE USB_MSOS_DESCRIPTOR[];
  28:.\Generated_Source\PSoC5/USB_std.c **** extern const uint8 CYCODE USB_SN_STRING_DESCRIPTOR[];
  29:.\Generated_Source\PSoC5/USB_std.c **** 
  30:.\Generated_Source\PSoC5/USB_std.c **** extern volatile uint8 USB_device;
  31:.\Generated_Source\PSoC5/USB_std.c **** extern volatile uint8 USB_configuration;
  32:.\Generated_Source\PSoC5/USB_std.c **** extern volatile uint8 USB_configurationChanged;
  33:.\Generated_Source\PSoC5/USB_std.c **** extern volatile uint8 USB_interfaceNumber;
  34:.\Generated_Source\PSoC5/USB_std.c **** extern volatile uint8 USB_interfaceSetting[];
  35:.\Generated_Source\PSoC5/USB_std.c **** extern volatile uint8 USB_interfaceSetting_last[];
  36:.\Generated_Source\PSoC5/USB_std.c **** extern volatile uint8 USB_deviceAddress;
  37:.\Generated_Source\PSoC5/USB_std.c **** extern volatile uint8 USB_deviceStatus;
  38:.\Generated_Source\PSoC5/USB_std.c **** extern volatile uint8 USB_interfaceStatus[];
  39:.\Generated_Source\PSoC5/USB_std.c **** extern uint8 CYCODE *USB_interfaceClass;
  40:.\Generated_Source\PSoC5/USB_std.c **** extern const T_USB_LUT CYCODE USB_TABLE[];
  41:.\Generated_Source\PSoC5/USB_std.c **** extern volatile T_USB_EP_CTL_BLOCK USB_EP[];
  42:.\Generated_Source\PSoC5/USB_std.c **** extern volatile T_USB_TD USB_currentTD;
  43:.\Generated_Source\PSoC5/USB_std.c **** #if defined(USB_ENABLE_CDC_CLASS)
  44:.\Generated_Source\PSoC5/USB_std.c ****     extern volatile uint8 USB_cdc_data_in_ep;
  45:.\Generated_Source\PSoC5/USB_std.c ****     extern volatile uint8 USB_cdc_data_out_ep;
  46:.\Generated_Source\PSoC5/USB_std.c **** #endif  /* End USB_ENABLE_CDC_CLASS*/
  47:.\Generated_Source\PSoC5/USB_std.c **** #if defined(USB_ENABLE_MIDI_STREAMING)
  48:.\Generated_Source\PSoC5/USB_std.c ****     extern volatile uint8 USB_midi_in_ep;
  49:.\Generated_Source\PSoC5/USB_std.c ****     extern volatile uint8 USB_midi_out_ep;
  50:.\Generated_Source\PSoC5/USB_std.c **** #endif /* End USB_ENABLE_MIDI_STREAMING */
  51:.\Generated_Source\PSoC5/USB_std.c **** 
  52:.\Generated_Source\PSoC5/USB_std.c **** 
  53:.\Generated_Source\PSoC5/USB_std.c **** /***************************************
  54:.\Generated_Source\PSoC5/USB_std.c **** *         Forward references
  55:.\Generated_Source\PSoC5/USB_std.c **** ***************************************/
  56:.\Generated_Source\PSoC5/USB_std.c **** 
  57:.\Generated_Source\PSoC5/USB_std.c **** uint8 USB_InitControlRead(void) ;
  58:.\Generated_Source\PSoC5/USB_std.c **** uint8 USB_InitControlWrite(void) ;
  59:.\Generated_Source\PSoC5/USB_std.c **** uint8 USB_InitNoDataControlTransfer(void) ;
  60:.\Generated_Source\PSoC5/USB_std.c **** uint8 USB_DispatchClassRqst(void) ;
  61:.\Generated_Source\PSoC5/USB_std.c **** 
  62:.\Generated_Source\PSoC5/USB_std.c **** void USB_Config(uint8 clearAltSetting) ;
  63:.\Generated_Source\PSoC5/USB_std.c **** void USB_ConfigAltChanged(void) ;
  64:.\Generated_Source\PSoC5/USB_std.c **** T_USB_LUT *USB_GetConfigTablePtr(uint8 c)
  65:.\Generated_Source\PSoC5/USB_std.c ****                                                             ;
  66:.\Generated_Source\PSoC5/USB_std.c **** T_USB_LUT *USB_GetDeviceTablePtr(void)
  67:.\Generated_Source\PSoC5/USB_std.c ****                                                             ;
  68:.\Generated_Source\PSoC5/USB_std.c **** uint8 USB_ClearEndpointHalt(void) ;
  69:.\Generated_Source\PSoC5/USB_std.c **** uint8 USB_SetEndpointHalt(void) ;
  70:.\Generated_Source\PSoC5/USB_std.c **** uint8 USB_ValidateAlternateSetting(void) ;
  71:.\Generated_Source\PSoC5/USB_std.c **** 
ARM GAS  C:\Users\Craig\AppData\Local\Temp\cc9NnIsK.s 			page 3


  72:.\Generated_Source\PSoC5/USB_std.c **** /*DIE ID string descriptor for 8 bytes ID*/
  73:.\Generated_Source\PSoC5/USB_std.c **** #if defined(USB_ENABLE_IDSN_STRING)
  74:.\Generated_Source\PSoC5/USB_std.c ****     void USB_ReadDieID(uint8 *descr) ;
  75:.\Generated_Source\PSoC5/USB_std.c ****     uint8 USB_idSerialNumberStringDescriptor[0x22u]={0x22u, USB_DESCR_STRING};
  76:.\Generated_Source\PSoC5/USB_std.c **** #endif /* USB_ENABLE_IDSN_STRING */
  77:.\Generated_Source\PSoC5/USB_std.c **** 
  78:.\Generated_Source\PSoC5/USB_std.c **** #if(USB_EP_MM != USB__EP_MANUAL)
  79:.\Generated_Source\PSoC5/USB_std.c ****     void USB_Stop_DMA(uint8 epNumber) ;
  80:.\Generated_Source\PSoC5/USB_std.c **** #endif   /* End USB_EP_MM != USB__EP_MANUAL */
  81:.\Generated_Source\PSoC5/USB_std.c **** uint8 CYCODE *USB_GetInterfaceClassTablePtr(void)
  82:.\Generated_Source\PSoC5/USB_std.c ****                                                     ;
  83:.\Generated_Source\PSoC5/USB_std.c **** 
  84:.\Generated_Source\PSoC5/USB_std.c **** 
  85:.\Generated_Source\PSoC5/USB_std.c **** /***************************************
  86:.\Generated_Source\PSoC5/USB_std.c **** * Global data allocation
  87:.\Generated_Source\PSoC5/USB_std.c **** ***************************************/
  88:.\Generated_Source\PSoC5/USB_std.c **** 
  89:.\Generated_Source\PSoC5/USB_std.c **** volatile uint8 USB_tBuffer[USB_EP_STATUS_LENGTH > USB_DEVICE_STATUS_LENGTH ? \
  90:.\Generated_Source\PSoC5/USB_std.c ****                                USB_EP_STATUS_LENGTH : USB_DEVICE_STATUS_LENGTH];
  91:.\Generated_Source\PSoC5/USB_std.c **** volatile uint8 *USB_fwSerialNumberStringDescriptor;
  92:.\Generated_Source\PSoC5/USB_std.c **** volatile uint8 USB_snStringConfirm = USB_FALSE;
  93:.\Generated_Source\PSoC5/USB_std.c **** 
  94:.\Generated_Source\PSoC5/USB_std.c **** 
  95:.\Generated_Source\PSoC5/USB_std.c **** /*******************************************************************************
  96:.\Generated_Source\PSoC5/USB_std.c **** * Function Name: USB_SerialNumString
  97:.\Generated_Source\PSoC5/USB_std.c **** ********************************************************************************
  98:.\Generated_Source\PSoC5/USB_std.c **** *
  99:.\Generated_Source\PSoC5/USB_std.c **** * Summary:
 100:.\Generated_Source\PSoC5/USB_std.c **** *  Application firmware may supply the source of the USB device descriptors
 101:.\Generated_Source\PSoC5/USB_std.c **** *  serial number string during runtime.
 102:.\Generated_Source\PSoC5/USB_std.c **** *
 103:.\Generated_Source\PSoC5/USB_std.c **** * Parameters:
 104:.\Generated_Source\PSoC5/USB_std.c **** *  snString:  pointer to string.
 105:.\Generated_Source\PSoC5/USB_std.c **** *
 106:.\Generated_Source\PSoC5/USB_std.c **** * Return:
 107:.\Generated_Source\PSoC5/USB_std.c **** *  None.
 108:.\Generated_Source\PSoC5/USB_std.c **** *
 109:.\Generated_Source\PSoC5/USB_std.c **** * Reentrant:
 110:.\Generated_Source\PSoC5/USB_std.c **** *  No.
 111:.\Generated_Source\PSoC5/USB_std.c **** *
 112:.\Generated_Source\PSoC5/USB_std.c **** *******************************************************************************/
 113:.\Generated_Source\PSoC5/USB_std.c **** void  USB_SerialNumString(uint8 *snString) 
 114:.\Generated_Source\PSoC5/USB_std.c **** {
  40              		.loc 1 114 0
  41              		.cfi_startproc
  42              		@ args = 0, pretend = 0, frame = 8
  43              		@ frame_needed = 1, uses_anonymous_args = 0
  44              		@ link register save eliminated.
  45 0000 80B4     		push	{r7}
  46              	.LCFI0:
  47              		.cfi_def_cfa_offset 4
  48 0002 83B0     		sub	sp, sp, #12
  49              	.LCFI1:
  50              		.cfi_def_cfa_offset 16
  51 0004 00AF     		add	r7, sp, #0
  52              		.cfi_offset 7, -4
  53              	.LCFI2:
ARM GAS  C:\Users\Craig\AppData\Local\Temp\cc9NnIsK.s 			page 4


  54              		.cfi_def_cfa_register 7
  55 0006 7860     		str	r0, [r7, #4]
 115:.\Generated_Source\PSoC5/USB_std.c ****     #if defined(USB_ENABLE_FWSN_STRING)
 116:.\Generated_Source\PSoC5/USB_std.c ****         USB_snStringConfirm = USB_FALSE;
 117:.\Generated_Source\PSoC5/USB_std.c ****         if(snString != NULL)
 118:.\Generated_Source\PSoC5/USB_std.c ****         {
 119:.\Generated_Source\PSoC5/USB_std.c ****             USB_fwSerialNumberStringDescriptor = snString;
 120:.\Generated_Source\PSoC5/USB_std.c ****             /* check descriptor validation */
 121:.\Generated_Source\PSoC5/USB_std.c ****             if( (USB_fwSerialNumberStringDescriptor[0u] > 1u ) &&  \
 122:.\Generated_Source\PSoC5/USB_std.c ****                 (USB_fwSerialNumberStringDescriptor[1u] == USB_DESCR_STRING) )
 123:.\Generated_Source\PSoC5/USB_std.c ****             {
 124:.\Generated_Source\PSoC5/USB_std.c ****                 USB_snStringConfirm = USB_TRUE;
 125:.\Generated_Source\PSoC5/USB_std.c ****             }
 126:.\Generated_Source\PSoC5/USB_std.c ****         }
 127:.\Generated_Source\PSoC5/USB_std.c ****     #else
 128:.\Generated_Source\PSoC5/USB_std.c ****         snString = snString;
 129:.\Generated_Source\PSoC5/USB_std.c ****     #endif  /* USB_ENABLE_FWSN_STRING */
 130:.\Generated_Source\PSoC5/USB_std.c **** }
  56              		.loc 1 130 0
  57 0008 07F10C07 		add	r7, r7, #12
  58 000c BD46     		mov	sp, r7
  59 000e 80BC     		pop	{r7}
  60 0010 7047     		bx	lr
  61              		.cfi_endproc
  62              	.LFE0:
  63              		.size	USB_SerialNumString, .-USB_SerialNumString
  64 0012 00BF     		.section	.text.USB_HandleStandardRqst,"ax",%progbits
  65              		.align	2
  66              		.global	USB_HandleStandardRqst
  67              		.thumb
  68              		.thumb_func
  69              		.type	USB_HandleStandardRqst, %function
  70              	USB_HandleStandardRqst:
  71              	.LFB1:
 131:.\Generated_Source\PSoC5/USB_std.c **** 
 132:.\Generated_Source\PSoC5/USB_std.c **** 
 133:.\Generated_Source\PSoC5/USB_std.c **** /*******************************************************************************
 134:.\Generated_Source\PSoC5/USB_std.c **** * Function Name: USB_HandleStandardRqst
 135:.\Generated_Source\PSoC5/USB_std.c **** ********************************************************************************
 136:.\Generated_Source\PSoC5/USB_std.c **** *
 137:.\Generated_Source\PSoC5/USB_std.c **** * Summary:
 138:.\Generated_Source\PSoC5/USB_std.c **** *  This Routine dispatches standard requests
 139:.\Generated_Source\PSoC5/USB_std.c **** *
 140:.\Generated_Source\PSoC5/USB_std.c **** * Parameters:
 141:.\Generated_Source\PSoC5/USB_std.c **** *  None.
 142:.\Generated_Source\PSoC5/USB_std.c **** *
 143:.\Generated_Source\PSoC5/USB_std.c **** * Return:
 144:.\Generated_Source\PSoC5/USB_std.c **** *  TRUE if request handled.
 145:.\Generated_Source\PSoC5/USB_std.c **** *
 146:.\Generated_Source\PSoC5/USB_std.c **** * Reentrant:
 147:.\Generated_Source\PSoC5/USB_std.c **** *  No.
 148:.\Generated_Source\PSoC5/USB_std.c **** *
 149:.\Generated_Source\PSoC5/USB_std.c **** *******************************************************************************/
 150:.\Generated_Source\PSoC5/USB_std.c **** uint8 USB_HandleStandardRqst(void) 
 151:.\Generated_Source\PSoC5/USB_std.c **** {
  72              		.loc 1 151 0
  73              		.cfi_startproc
ARM GAS  C:\Users\Craig\AppData\Local\Temp\cc9NnIsK.s 			page 5


  74              		@ args = 0, pretend = 0, frame = 16
  75              		@ frame_needed = 1, uses_anonymous_args = 0
  76 0000 80B5     		push	{r7, lr}
  77              	.LCFI3:
  78              		.cfi_def_cfa_offset 8
  79 0002 84B0     		sub	sp, sp, #16
  80              	.LCFI4:
  81              		.cfi_def_cfa_offset 24
  82 0004 00AF     		add	r7, sp, #0
  83              		.cfi_offset 14, -4
  84              		.cfi_offset 7, -8
  85              	.LCFI5:
  86              		.cfi_def_cfa_register 7
 152:.\Generated_Source\PSoC5/USB_std.c ****     uint8 requestHandled = USB_FALSE;
  87              		.loc 1 152 0
  88 0006 4FF00003 		mov	r3, #0
  89 000a FB70     		strb	r3, [r7, #3]
 153:.\Generated_Source\PSoC5/USB_std.c ****     #if defined(USB_ENABLE_STRINGS)
 154:.\Generated_Source\PSoC5/USB_std.c ****         volatile uint8 *pStr = 0u;
  90              		.loc 1 154 0
  91 000c 4FF00003 		mov	r3, #0
  92 0010 7B60     		str	r3, [r7, #4]
 155:.\Generated_Source\PSoC5/USB_std.c ****         #if defined(USB_ENABLE_DESCRIPTOR_STRINGS)
 156:.\Generated_Source\PSoC5/USB_std.c ****             uint8 nStr;
 157:.\Generated_Source\PSoC5/USB_std.c ****         #endif /* USB_ENABLE_DESCRIPTOR_STRINGS */
 158:.\Generated_Source\PSoC5/USB_std.c ****     #endif /* USB_ENABLE_STRINGS */
 159:.\Generated_Source\PSoC5/USB_std.c ****     uint16 count;
 160:.\Generated_Source\PSoC5/USB_std.c **** 
 161:.\Generated_Source\PSoC5/USB_std.c ****     T_USB_LUT *pTmp;
 162:.\Generated_Source\PSoC5/USB_std.c ****     USB_currentTD.count = 0u;
  93              		.loc 1 162 0
  94 0012 40F20003 		movw	r3, #:lower16:USB_currentTD
  95 0016 C0F20003 		movt	r3, #:upper16:USB_currentTD
  96 001a 4FF00002 		mov	r2, #0
  97 001e 1A80     		strh	r2, [r3, #0]	@ movhi
 163:.\Generated_Source\PSoC5/USB_std.c **** 
 164:.\Generated_Source\PSoC5/USB_std.c ****     if ((CY_GET_REG8(USB_bmRequestType) & USB_RQST_DIR_MASK) == USB_RQST_DIR_D2H)
  98              		.loc 1 164 0
  99 0020 46F20003 		movw	r3, #:lower16:1073766400
 100 0024 C4F20003 		movt	r3, #:upper16:1073766400
 101 0028 1B78     		ldrb	r3, [r3, #0]
 102 002a DBB2     		uxtb	r3, r3
 103 002c 5BB2     		sxtb	r3, r3
 104 002e 002B     		cmp	r3, #0
 105 0030 80F26781 		bge	.L4
 165:.\Generated_Source\PSoC5/USB_std.c ****     {
 166:.\Generated_Source\PSoC5/USB_std.c ****         /* Control Read */
 167:.\Generated_Source\PSoC5/USB_std.c ****         switch (CY_GET_REG8(USB_bRequest))
 106              		.loc 1 167 0
 107 0034 46F20103 		movw	r3, #:lower16:1073766401
 108 0038 C4F20003 		movt	r3, #:upper16:1073766401
 109 003c 1B78     		ldrb	r3, [r3, #0]
 110 003e DBB2     		uxtb	r3, r3
 111 0040 0A2B     		cmp	r3, #10
 112 0042 00F2B182 		bhi	.L42
 113 0046 01A2     		adr	r2, .L10
 114 0048 52F823F0 		ldr	pc, [r2, r3, lsl #2]
ARM GAS  C:\Users\Craig\AppData\Local\Temp\cc9NnIsK.s 			page 6


 115              		.align	2
 116              	.L10:
 117 004c C7010000 		.word	.L6+1
 118 0050 A9050000 		.word	.L42+1
 119 0054 A9050000 		.word	.L42+1
 120 0058 A9050000 		.word	.L42+1
 121 005c A9050000 		.word	.L42+1
 122 0060 A9050000 		.word	.L42+1
 123 0064 79000000 		.word	.L7+1
 124 0068 A9050000 		.word	.L42+1
 125 006c 9D020000 		.word	.L8+1
 126 0070 A9050000 		.word	.L42+1
 127 0074 C9020000 		.word	.L9+1
 128              	.L7:
 168:.\Generated_Source\PSoC5/USB_std.c ****         {
 169:.\Generated_Source\PSoC5/USB_std.c ****             case USB_GET_DESCRIPTOR:
 170:.\Generated_Source\PSoC5/USB_std.c ****                 if (CY_GET_REG8(USB_wValueHi) == USB_DESCR_DEVICE)
 129              		.loc 1 170 0
 130 0078 46F20303 		movw	r3, #:lower16:1073766403
 131 007c C4F20003 		movt	r3, #:upper16:1073766403
 132 0080 1B78     		ldrb	r3, [r3, #0]
 133 0082 DBB2     		uxtb	r3, r3
 134 0084 012B     		cmp	r3, #1
 135 0086 17D1     		bne	.L11
 171:.\Generated_Source\PSoC5/USB_std.c ****                 {
 172:.\Generated_Source\PSoC5/USB_std.c ****                     pTmp = USB_GetDeviceTablePtr();
 136              		.loc 1 172 0
 137 0088 FFF7FEFF 		bl	USB_GetDeviceTablePtr
 138 008c 0346     		mov	r3, r0
 139 008e FB60     		str	r3, [r7, #12]
 173:.\Generated_Source\PSoC5/USB_std.c ****                     USB_currentTD.pData = pTmp->p_list;
 140              		.loc 1 173 0
 141 0090 FB68     		ldr	r3, [r7, #12]
 142 0092 5B68     		ldr	r3, [r3, #4]
 143 0094 1A46     		mov	r2, r3
 144 0096 40F20003 		movw	r3, #:lower16:USB_currentTD
 145 009a C0F20003 		movt	r3, #:upper16:USB_currentTD
 146 009e 5A60     		str	r2, [r3, #4]
 174:.\Generated_Source\PSoC5/USB_std.c ****                     USB_currentTD.count = USB_DEVICE_DESCR_LENGTH;
 147              		.loc 1 174 0
 148 00a0 40F20003 		movw	r3, #:lower16:USB_currentTD
 149 00a4 C0F20003 		movt	r3, #:upper16:USB_currentTD
 150 00a8 4FF01202 		mov	r2, #18
 151 00ac 1A80     		strh	r2, [r3, #0]	@ movhi
 175:.\Generated_Source\PSoC5/USB_std.c ****                     requestHandled  = USB_InitControlRead();
 152              		.loc 1 175 0
 153 00ae FFF7FEFF 		bl	USB_InitControlRead
 154 00b2 0346     		mov	r3, r0
 155 00b4 FB70     		strb	r3, [r7, #3]
 176:.\Generated_Source\PSoC5/USB_std.c ****                 }
 177:.\Generated_Source\PSoC5/USB_std.c ****                 else if (CY_GET_REG8(USB_wValueHi) == USB_DESCR_CONFIG)
 178:.\Generated_Source\PSoC5/USB_std.c ****                 {
 179:.\Generated_Source\PSoC5/USB_std.c ****                     pTmp = USB_GetConfigTablePtr(CY_GET_REG8(USB_wValueLo));
 180:.\Generated_Source\PSoC5/USB_std.c ****                     USB_currentTD.pData = pTmp->p_list;
 181:.\Generated_Source\PSoC5/USB_std.c ****                     count = ((uint16)(USB_currentTD.pData)[ \
 182:.\Generated_Source\PSoC5/USB_std.c ****                                       USB_CONFIG_DESCR_TOTAL_LENGTH_HI] << 8u) | \
 183:.\Generated_Source\PSoC5/USB_std.c ****                                      (USB_currentTD.pData)[USB_CONFIG_DESCR_TOTAL_LENGTH_LOW];
ARM GAS  C:\Users\Craig\AppData\Local\Temp\cc9NnIsK.s 			page 7


 184:.\Generated_Source\PSoC5/USB_std.c ****                     USB_currentTD.count = count;
 185:.\Generated_Source\PSoC5/USB_std.c ****                     requestHandled  = USB_InitControlRead();
 186:.\Generated_Source\PSoC5/USB_std.c ****                 }
 187:.\Generated_Source\PSoC5/USB_std.c ****                 #if defined(USB_ENABLE_STRINGS)
 188:.\Generated_Source\PSoC5/USB_std.c ****                 else if (CY_GET_REG8(USB_wValueHi) == USB_DESCR_STRING)
 189:.\Generated_Source\PSoC5/USB_std.c ****                 {
 190:.\Generated_Source\PSoC5/USB_std.c ****                     /* Descriptor Strings*/
 191:.\Generated_Source\PSoC5/USB_std.c ****                     #if defined(USB_ENABLE_DESCRIPTOR_STRINGS)
 192:.\Generated_Source\PSoC5/USB_std.c ****                         nStr = 0u;
 193:.\Generated_Source\PSoC5/USB_std.c ****                         pStr = (volatile uint8 *)&USB_STRING_DESCRIPTORS[0u];
 194:.\Generated_Source\PSoC5/USB_std.c ****                         while ( (CY_GET_REG8(USB_wValueLo) > nStr) && (*pStr != 0u ))
 195:.\Generated_Source\PSoC5/USB_std.c ****                         {
 196:.\Generated_Source\PSoC5/USB_std.c ****                             pStr += *pStr;
 197:.\Generated_Source\PSoC5/USB_std.c ****                             nStr++;
 198:.\Generated_Source\PSoC5/USB_std.c ****                         };
 199:.\Generated_Source\PSoC5/USB_std.c ****                     #endif /* End USB_ENABLE_DESCRIPTOR_STRINGS */
 200:.\Generated_Source\PSoC5/USB_std.c ****                     /* Microsoft OS String*/
 201:.\Generated_Source\PSoC5/USB_std.c ****                     #if defined(USB_ENABLE_MSOS_STRING)
 202:.\Generated_Source\PSoC5/USB_std.c ****                         if( CY_GET_REG8(USB_wValueLo) == USB_STRING_MSOS )
 203:.\Generated_Source\PSoC5/USB_std.c ****                         {
 204:.\Generated_Source\PSoC5/USB_std.c ****                             pStr = (volatile uint8 *)&USB_MSOS_DESCRIPTOR[0u];
 205:.\Generated_Source\PSoC5/USB_std.c ****                         }
 206:.\Generated_Source\PSoC5/USB_std.c ****                     #endif /* End USB_ENABLE_MSOS_STRING*/
 207:.\Generated_Source\PSoC5/USB_std.c ****                     /* SN string*/
 208:.\Generated_Source\PSoC5/USB_std.c ****                     #if defined(USB_ENABLE_SN_STRING)
 209:.\Generated_Source\PSoC5/USB_std.c ****                         if( (CY_GET_REG8(USB_wValueLo) != 0) && 
 210:.\Generated_Source\PSoC5/USB_std.c ****                             (CY_GET_REG8(USB_wValueLo) == 
 211:.\Generated_Source\PSoC5/USB_std.c ****                             USB_DEVICE0_DESCR[USB_DEVICE_DESCR_SN_SHIFT]) )
 212:.\Generated_Source\PSoC5/USB_std.c ****                         {
 213:.\Generated_Source\PSoC5/USB_std.c ****                             pStr = (volatile uint8 *)&USB_SN_STRING_DESCRIPTOR[0u];
 214:.\Generated_Source\PSoC5/USB_std.c ****                             if(USB_snStringConfirm != USB_FALSE)
 215:.\Generated_Source\PSoC5/USB_std.c ****                             {
 216:.\Generated_Source\PSoC5/USB_std.c ****                                 pStr = USB_fwSerialNumberStringDescriptor;
 217:.\Generated_Source\PSoC5/USB_std.c ****                             }
 218:.\Generated_Source\PSoC5/USB_std.c ****                             #if defined(USB_ENABLE_IDSN_STRING)
 219:.\Generated_Source\PSoC5/USB_std.c ****                                 /* Read DIE ID and genarete string descriptor in RAM*/
 220:.\Generated_Source\PSoC5/USB_std.c ****                                 USB_ReadDieID(USB_idSerialNumberStringDescriptor);
 221:.\Generated_Source\PSoC5/USB_std.c ****                                 pStr = USB_idSerialNumberStringDescriptor;
 222:.\Generated_Source\PSoC5/USB_std.c ****                             #endif    /* End USB_ENABLE_IDSN_STRING */
 223:.\Generated_Source\PSoC5/USB_std.c ****                         }
 224:.\Generated_Source\PSoC5/USB_std.c ****                     #endif    /* End USB_ENABLE_SN_STRING */
 225:.\Generated_Source\PSoC5/USB_std.c ****                     if (*pStr != 0u)
 226:.\Generated_Source\PSoC5/USB_std.c ****                     {
 227:.\Generated_Source\PSoC5/USB_std.c ****                         USB_currentTD.count = *pStr;
 228:.\Generated_Source\PSoC5/USB_std.c ****                         USB_currentTD.pData = pStr;
 229:.\Generated_Source\PSoC5/USB_std.c ****                         requestHandled  = USB_InitControlRead();
 230:.\Generated_Source\PSoC5/USB_std.c ****                     }
 231:.\Generated_Source\PSoC5/USB_std.c ****                 }
 232:.\Generated_Source\PSoC5/USB_std.c ****                 #endif /* End USB_ENABLE_STRINGS */
 233:.\Generated_Source\PSoC5/USB_std.c ****                 else
 234:.\Generated_Source\PSoC5/USB_std.c ****                 {
 235:.\Generated_Source\PSoC5/USB_std.c ****                     requestHandled = USB_DispatchClassRqst();
 236:.\Generated_Source\PSoC5/USB_std.c ****                 }
 237:.\Generated_Source\PSoC5/USB_std.c ****                 break;
 156              		.loc 1 237 0
 157 00b6 86E2     		b	.L22
 158              	.L11:
ARM GAS  C:\Users\Craig\AppData\Local\Temp\cc9NnIsK.s 			page 8


 159              		.loc 1 177 0
 160 00b8 46F20303 		movw	r3, #:lower16:1073766403
 161 00bc C4F20003 		movt	r3, #:upper16:1073766403
 162 00c0 1B78     		ldrb	r3, [r3, #0]
 163 00c2 DBB2     		uxtb	r3, r3
 164 00c4 022B     		cmp	r3, #2
 165 00c6 36D1     		bne	.L13
 166              		.loc 1 179 0
 167 00c8 46F20203 		movw	r3, #:lower16:1073766402
 168 00cc C4F20003 		movt	r3, #:upper16:1073766402
 169 00d0 1B78     		ldrb	r3, [r3, #0]
 170 00d2 DBB2     		uxtb	r3, r3
 171 00d4 1846     		mov	r0, r3
 172 00d6 FFF7FEFF 		bl	USB_GetConfigTablePtr
 173 00da 0346     		mov	r3, r0
 174 00dc FB60     		str	r3, [r7, #12]
 175              		.loc 1 180 0
 176 00de FB68     		ldr	r3, [r7, #12]
 177 00e0 5B68     		ldr	r3, [r3, #4]
 178 00e2 1A46     		mov	r2, r3
 179 00e4 40F20003 		movw	r3, #:lower16:USB_currentTD
 180 00e8 C0F20003 		movt	r3, #:upper16:USB_currentTD
 181 00ec 5A60     		str	r2, [r3, #4]
 182              		.loc 1 181 0
 183 00ee 40F20003 		movw	r3, #:lower16:USB_currentTD
 184 00f2 C0F20003 		movt	r3, #:upper16:USB_currentTD
 185 00f6 5B68     		ldr	r3, [r3, #4]
 186 00f8 03F10303 		add	r3, r3, #3
 187 00fc 1B78     		ldrb	r3, [r3, #0]
 188 00fe DBB2     		uxtb	r3, r3
 189 0100 4FEA0323 		lsl	r3, r3, #8
 190 0104 9AB2     		uxth	r2, r3
 191              		.loc 1 183 0
 192 0106 40F20003 		movw	r3, #:lower16:USB_currentTD
 193 010a C0F20003 		movt	r3, #:upper16:USB_currentTD
 194 010e 5B68     		ldr	r3, [r3, #4]
 195 0110 03F10203 		add	r3, r3, #2
 196 0114 1B78     		ldrb	r3, [r3, #0]
 197 0116 DBB2     		uxtb	r3, r3
 198              		.loc 1 181 0
 199 0118 42EA0303 		orr	r3, r2, r3
 200 011c 9BB2     		uxth	r3, r3
 201 011e 7B81     		strh	r3, [r7, #10]	@ movhi
 202              		.loc 1 184 0
 203 0120 40F20003 		movw	r3, #:lower16:USB_currentTD
 204 0124 C0F20003 		movt	r3, #:upper16:USB_currentTD
 205 0128 7A89     		ldrh	r2, [r7, #10]	@ movhi
 206 012a 1A80     		strh	r2, [r3, #0]	@ movhi
 207              		.loc 1 185 0
 208 012c FFF7FEFF 		bl	USB_InitControlRead
 209 0130 0346     		mov	r3, r0
 210 0132 FB70     		strb	r3, [r7, #3]
 211              		.loc 1 237 0
 212 0134 47E2     		b	.L22
 213              	.L13:
 214              		.loc 1 188 0
 215 0136 46F20303 		movw	r3, #:lower16:1073766403
ARM GAS  C:\Users\Craig\AppData\Local\Temp\cc9NnIsK.s 			page 9


 216 013a C4F20003 		movt	r3, #:upper16:1073766403
 217 013e 1B78     		ldrb	r3, [r3, #0]
 218 0140 DBB2     		uxtb	r3, r3
 219 0142 032B     		cmp	r3, #3
 220 0144 3AD1     		bne	.L14
 221              		.loc 1 192 0
 222 0146 4FF00003 		mov	r3, #0
 223 014a 7B72     		strb	r3, [r7, #9]
 224              		.loc 1 193 0
 225 014c 40F20003 		movw	r3, #:lower16:USB_STRING_DESCRIPTORS
 226 0150 C0F20003 		movt	r3, #:upper16:USB_STRING_DESCRIPTORS
 227 0154 7B60     		str	r3, [r7, #4]
 228              		.loc 1 194 0
 229 0156 09E0     		b	.L15
 230              	.L17:
 231              		.loc 1 196 0
 232 0158 7B68     		ldr	r3, [r7, #4]
 233 015a 1B78     		ldrb	r3, [r3, #0]
 234 015c DBB2     		uxtb	r3, r3
 235 015e 7A68     		ldr	r2, [r7, #4]
 236 0160 1344     		add	r3, r2, r3
 237 0162 7B60     		str	r3, [r7, #4]
 238              		.loc 1 197 0
 239 0164 7B7A     		ldrb	r3, [r7, #9]
 240 0166 03F10103 		add	r3, r3, #1
 241 016a 7B72     		strb	r3, [r7, #9]
 242              	.L15:
 243              		.loc 1 194 0
 244 016c 46F20203 		movw	r3, #:lower16:1073766402
 245 0170 C4F20003 		movt	r3, #:upper16:1073766402
 246 0174 1B78     		ldrb	r3, [r3, #0]
 247 0176 DBB2     		uxtb	r3, r3
 248 0178 7A7A     		ldrb	r2, [r7, #9]	@ zero_extendqisi2
 249 017a 9A42     		cmp	r2, r3
 250 017c 04D2     		bcs	.L16
 251 017e 7B68     		ldr	r3, [r7, #4]
 252 0180 1B78     		ldrb	r3, [r3, #0]
 253 0182 DBB2     		uxtb	r3, r3
 254 0184 002B     		cmp	r3, #0
 255 0186 E7D1     		bne	.L17
 256              	.L16:
 257              		.loc 1 225 0
 258 0188 7B68     		ldr	r3, [r7, #4]
 259 018a 1B78     		ldrb	r3, [r3, #0]
 260 018c DBB2     		uxtb	r3, r3
 261 018e 002B     		cmp	r3, #0
 262 0190 00F00C82 		beq	.L43
 263              		.loc 1 227 0
 264 0194 7B68     		ldr	r3, [r7, #4]
 265 0196 1B78     		ldrb	r3, [r3, #0]
 266 0198 DBB2     		uxtb	r3, r3
 267 019a 1A46     		mov	r2, r3
 268 019c 40F20003 		movw	r3, #:lower16:USB_currentTD
 269 01a0 C0F20003 		movt	r3, #:upper16:USB_currentTD
 270 01a4 1A80     		strh	r2, [r3, #0]	@ movhi
 271              		.loc 1 228 0
 272 01a6 40F20003 		movw	r3, #:lower16:USB_currentTD
ARM GAS  C:\Users\Craig\AppData\Local\Temp\cc9NnIsK.s 			page 10


 273 01aa C0F20003 		movt	r3, #:upper16:USB_currentTD
 274 01ae 7A68     		ldr	r2, [r7, #4]
 275 01b0 5A60     		str	r2, [r3, #4]
 276              		.loc 1 229 0
 277 01b2 FFF7FEFF 		bl	USB_InitControlRead
 278 01b6 0346     		mov	r3, r0
 279 01b8 FB70     		strb	r3, [r7, #3]
 280              		.loc 1 237 0
 281 01ba 04E2     		b	.L22
 282              	.L14:
 283              		.loc 1 235 0
 284 01bc FFF7FEFF 		bl	USB_DispatchClassRqst
 285 01c0 0346     		mov	r3, r0
 286 01c2 FB70     		strb	r3, [r7, #3]
 287              		.loc 1 237 0
 288 01c4 FFE1     		b	.L22
 289              	.L6:
 238:.\Generated_Source\PSoC5/USB_std.c ****             case USB_GET_STATUS:
 239:.\Generated_Source\PSoC5/USB_std.c ****                 switch ((CY_GET_REG8(USB_bmRequestType) & USB_RQST_RCPT_MASK))
 290              		.loc 1 239 0
 291 01c6 46F20003 		movw	r3, #:lower16:1073766400
 292 01ca C4F20003 		movt	r3, #:upper16:1073766400
 293 01ce 1B78     		ldrb	r3, [r3, #0]
 294 01d0 DBB2     		uxtb	r3, r3
 295 01d2 03F00303 		and	r3, r3, #3
 296 01d6 002B     		cmp	r3, #0
 297 01d8 39D0     		beq	.L20
 298 01da 022B     		cmp	r3, #2
 299 01dc 40F0E881 		bne	.L44
 300              	.L21:
 240:.\Generated_Source\PSoC5/USB_std.c ****                 {
 241:.\Generated_Source\PSoC5/USB_std.c ****                     case USB_RQST_RCPT_EP:
 242:.\Generated_Source\PSoC5/USB_std.c ****                         USB_currentTD.count = USB_EP_STATUS_LENGTH;
 301              		.loc 1 242 0
 302 01e0 40F20003 		movw	r3, #:lower16:USB_currentTD
 303 01e4 C0F20003 		movt	r3, #:upper16:USB_currentTD
 304 01e8 4FF00202 		mov	r2, #2
 305 01ec 1A80     		strh	r2, [r3, #0]	@ movhi
 243:.\Generated_Source\PSoC5/USB_std.c ****                         USB_tBuffer[0] = USB_EP[ \
 244:.\Generated_Source\PSoC5/USB_std.c ****                                         CY_GET_REG8(USB_wIndexLo) & USB_DIR_UNUSED].hwEpState;
 306              		.loc 1 244 0
 307 01ee 46F20403 		movw	r3, #:lower16:1073766404
 308 01f2 C4F20003 		movt	r3, #:upper16:1073766404
 309 01f6 1B78     		ldrb	r3, [r3, #0]
 310 01f8 DBB2     		uxtb	r3, r3
 311 01fa 03F07F01 		and	r1, r3, #127
 312              		.loc 1 243 0
 313 01fe 40F20002 		movw	r2, #:lower16:USB_EP
 314 0202 C0F20002 		movt	r2, #:upper16:USB_EP
 315 0206 0B46     		mov	r3, r1
 316 0208 4FEA4303 		lsl	r3, r3, #1
 317 020c 0B44     		add	r3, r3, r1
 318 020e 4FEA8303 		lsl	r3, r3, #2
 319 0212 1344     		add	r3, r3, r2
 320 0214 9B78     		ldrb	r3, [r3, #2]
 321 0216 DAB2     		uxtb	r2, r3
 322 0218 40F20003 		movw	r3, #:lower16:USB_tBuffer
ARM GAS  C:\Users\Craig\AppData\Local\Temp\cc9NnIsK.s 			page 11


 323 021c C0F20003 		movt	r3, #:upper16:USB_tBuffer
 324 0220 1A70     		strb	r2, [r3, #0]
 245:.\Generated_Source\PSoC5/USB_std.c ****                         USB_tBuffer[1] = 0u;
 325              		.loc 1 245 0
 326 0222 40F20003 		movw	r3, #:lower16:USB_tBuffer
 327 0226 C0F20003 		movt	r3, #:upper16:USB_tBuffer
 328 022a 4FF00002 		mov	r2, #0
 329 022e 5A70     		strb	r2, [r3, #1]
 246:.\Generated_Source\PSoC5/USB_std.c ****                         USB_currentTD.pData = &USB_tBuffer[0u];
 330              		.loc 1 246 0
 331 0230 40F20003 		movw	r3, #:lower16:USB_currentTD
 332 0234 C0F20003 		movt	r3, #:upper16:USB_currentTD
 333 0238 40F20002 		movw	r2, #:lower16:USB_tBuffer
 334 023c C0F20002 		movt	r2, #:upper16:USB_tBuffer
 335 0240 5A60     		str	r2, [r3, #4]
 247:.\Generated_Source\PSoC5/USB_std.c ****                         requestHandled  = USB_InitControlRead();
 336              		.loc 1 247 0
 337 0242 FFF7FEFF 		bl	USB_InitControlRead
 338 0246 0346     		mov	r3, r0
 339 0248 FB70     		strb	r3, [r7, #3]
 248:.\Generated_Source\PSoC5/USB_std.c ****                         break;
 340              		.loc 1 248 0
 341 024a 00BF     		nop
 249:.\Generated_Source\PSoC5/USB_std.c ****                     case USB_RQST_RCPT_DEV:
 250:.\Generated_Source\PSoC5/USB_std.c ****                         USB_currentTD.count = USB_DEVICE_STATUS_LENGTH;
 251:.\Generated_Source\PSoC5/USB_std.c ****                         USB_tBuffer[0u] = USB_deviceStatus;
 252:.\Generated_Source\PSoC5/USB_std.c ****                         USB_tBuffer[1u] = 0u;
 253:.\Generated_Source\PSoC5/USB_std.c ****                         USB_currentTD.pData = &USB_tBuffer[0u];
 254:.\Generated_Source\PSoC5/USB_std.c ****                         requestHandled  = USB_InitControlRead();
 255:.\Generated_Source\PSoC5/USB_std.c ****                         break;
 256:.\Generated_Source\PSoC5/USB_std.c ****                     default:    /* requestHandled is initialezed as FALSE by default */
 257:.\Generated_Source\PSoC5/USB_std.c ****                         break;
 258:.\Generated_Source\PSoC5/USB_std.c ****                 }
 259:.\Generated_Source\PSoC5/USB_std.c ****                 break;
 342              		.loc 1 259 0
 343 024c BBE1     		b	.L22
 344              	.L20:
 345              		.loc 1 250 0
 346 024e 40F20003 		movw	r3, #:lower16:USB_currentTD
 347 0252 C0F20003 		movt	r3, #:upper16:USB_currentTD
 348 0256 4FF00202 		mov	r2, #2
 349 025a 1A80     		strh	r2, [r3, #0]	@ movhi
 350              		.loc 1 251 0
 351 025c 40F20003 		movw	r3, #:lower16:USB_deviceStatus
 352 0260 C0F20003 		movt	r3, #:upper16:USB_deviceStatus
 353 0264 1B78     		ldrb	r3, [r3, #0]
 354 0266 DAB2     		uxtb	r2, r3
 355 0268 40F20003 		movw	r3, #:lower16:USB_tBuffer
 356 026c C0F20003 		movt	r3, #:upper16:USB_tBuffer
 357 0270 1A70     		strb	r2, [r3, #0]
 358              		.loc 1 252 0
 359 0272 40F20003 		movw	r3, #:lower16:USB_tBuffer
 360 0276 C0F20003 		movt	r3, #:upper16:USB_tBuffer
 361 027a 4FF00002 		mov	r2, #0
 362 027e 5A70     		strb	r2, [r3, #1]
 363              		.loc 1 253 0
 364 0280 40F20003 		movw	r3, #:lower16:USB_currentTD
ARM GAS  C:\Users\Craig\AppData\Local\Temp\cc9NnIsK.s 			page 12


 365 0284 C0F20003 		movt	r3, #:upper16:USB_currentTD
 366 0288 40F20002 		movw	r2, #:lower16:USB_tBuffer
 367 028c C0F20002 		movt	r2, #:upper16:USB_tBuffer
 368 0290 5A60     		str	r2, [r3, #4]
 369              		.loc 1 254 0
 370 0292 FFF7FEFF 		bl	USB_InitControlRead
 371 0296 0346     		mov	r3, r0
 372 0298 FB70     		strb	r3, [r7, #3]
 373              		.loc 1 259 0
 374 029a 94E1     		b	.L22
 375              	.L8:
 260:.\Generated_Source\PSoC5/USB_std.c ****             case USB_GET_CONFIGURATION:
 261:.\Generated_Source\PSoC5/USB_std.c ****                 USB_currentTD.count = 1u;
 376              		.loc 1 261 0
 377 029c 40F20003 		movw	r3, #:lower16:USB_currentTD
 378 02a0 C0F20003 		movt	r3, #:upper16:USB_currentTD
 379 02a4 4FF00102 		mov	r2, #1
 380 02a8 1A80     		strh	r2, [r3, #0]	@ movhi
 262:.\Generated_Source\PSoC5/USB_std.c ****                 USB_currentTD.pData = (uint8 *)&USB_configuration;
 381              		.loc 1 262 0
 382 02aa 40F20003 		movw	r3, #:lower16:USB_currentTD
 383 02ae C0F20003 		movt	r3, #:upper16:USB_currentTD
 384 02b2 40F20002 		movw	r2, #:lower16:USB_configuration
 385 02b6 C0F20002 		movt	r2, #:upper16:USB_configuration
 386 02ba 5A60     		str	r2, [r3, #4]
 263:.\Generated_Source\PSoC5/USB_std.c ****                 requestHandled  = USB_InitControlRead();
 387              		.loc 1 263 0
 388 02bc FFF7FEFF 		bl	USB_InitControlRead
 389 02c0 0346     		mov	r3, r0
 390 02c2 FB70     		strb	r3, [r7, #3]
 264:.\Generated_Source\PSoC5/USB_std.c ****                 break;
 391              		.loc 1 264 0
 392 02c4 00BF     		nop
 393 02c6 7EE1     		b	.L22
 394              	.L9:
 265:.\Generated_Source\PSoC5/USB_std.c ****             case USB_GET_INTERFACE:
 266:.\Generated_Source\PSoC5/USB_std.c ****                 USB_currentTD.count = 1u;
 395              		.loc 1 266 0
 396 02c8 40F20003 		movw	r3, #:lower16:USB_currentTD
 397 02cc C0F20003 		movt	r3, #:upper16:USB_currentTD
 398 02d0 4FF00102 		mov	r2, #1
 399 02d4 1A80     		strh	r2, [r3, #0]	@ movhi
 267:.\Generated_Source\PSoC5/USB_std.c ****                 USB_currentTD.pData = (uint8 *)&USB_interfaceSetting[ \
 268:.\Generated_Source\PSoC5/USB_std.c ****                                                                             CY_GET_REG8(USB_wIndexL
 400              		.loc 1 268 0
 401 02d6 46F20403 		movw	r3, #:lower16:1073766404
 402 02da C4F20003 		movt	r3, #:upper16:1073766404
 403 02de 1B78     		ldrb	r3, [r3, #0]
 404 02e0 DBB2     		uxtb	r3, r3
 405              		.loc 1 267 0
 406 02e2 1A46     		mov	r2, r3
 407 02e4 40F20003 		movw	r3, #:lower16:USB_interfaceSetting
 408 02e8 C0F20003 		movt	r3, #:upper16:USB_interfaceSetting
 409 02ec 1A44     		add	r2, r2, r3
 410 02ee 40F20003 		movw	r3, #:lower16:USB_currentTD
 411 02f2 C0F20003 		movt	r3, #:upper16:USB_currentTD
 412 02f6 5A60     		str	r2, [r3, #4]
ARM GAS  C:\Users\Craig\AppData\Local\Temp\cc9NnIsK.s 			page 13


 269:.\Generated_Source\PSoC5/USB_std.c ****                 requestHandled  = USB_InitControlRead();
 413              		.loc 1 269 0
 414 02f8 FFF7FEFF 		bl	USB_InitControlRead
 415 02fc 0346     		mov	r3, r0
 416 02fe FB70     		strb	r3, [r7, #3]
 417 0300 61E1     		b	.L22
 418              	.L4:
 270:.\Generated_Source\PSoC5/USB_std.c ****                 break;
 271:.\Generated_Source\PSoC5/USB_std.c ****             default: /* requestHandled is initialezed as FALSE by default */
 272:.\Generated_Source\PSoC5/USB_std.c ****                 break;
 273:.\Generated_Source\PSoC5/USB_std.c ****         }
 274:.\Generated_Source\PSoC5/USB_std.c ****     }
 275:.\Generated_Source\PSoC5/USB_std.c ****     else {
 276:.\Generated_Source\PSoC5/USB_std.c ****         /* Control Write */
 277:.\Generated_Source\PSoC5/USB_std.c ****         switch (CY_GET_REG8(USB_bRequest))
 419              		.loc 1 277 0
 420 0302 46F20103 		movw	r3, #:lower16:1073766401
 421 0306 C4F20003 		movt	r3, #:upper16:1073766401
 422 030a 1B78     		ldrb	r3, [r3, #0]
 423 030c DBB2     		uxtb	r3, r3
 424 030e 03F1FF33 		add	r3, r3, #-1
 425 0312 0A2B     		cmp	r3, #10
 426 0314 00F25781 		bhi	.L22
 427 0318 01A2     		adr	r2, .L28
 428 031a 52F823F0 		ldr	pc, [r2, r3, lsl #2]
 429 031e 00BF     		.align	2
 430              	.L28:
 431 0320 13040000 		.word	.L23+1
 432 0324 C7050000 		.word	.L22+1
 433 0328 E1040000 		.word	.L24+1
 434 032c C7050000 		.word	.L22+1
 435 0330 4D030000 		.word	.L25+1
 436 0334 C7050000 		.word	.L22+1
 437 0338 C7050000 		.word	.L22+1
 438 033c C7050000 		.word	.L22+1
 439 0340 6D030000 		.word	.L26+1
 440 0344 C7050000 		.word	.L22+1
 441 0348 A3030000 		.word	.L27+1
 442              	.L25:
 278:.\Generated_Source\PSoC5/USB_std.c ****         {
 279:.\Generated_Source\PSoC5/USB_std.c ****             case USB_SET_ADDRESS:
 280:.\Generated_Source\PSoC5/USB_std.c ****                 USB_deviceAddress = CY_GET_REG8(USB_wValueLo);
 443              		.loc 1 280 0
 444 034c 46F20203 		movw	r3, #:lower16:1073766402
 445 0350 C4F20003 		movt	r3, #:upper16:1073766402
 446 0354 1B78     		ldrb	r3, [r3, #0]
 447 0356 DAB2     		uxtb	r2, r3
 448 0358 40F20003 		movw	r3, #:lower16:USB_deviceAddress
 449 035c C0F20003 		movt	r3, #:upper16:USB_deviceAddress
 450 0360 1A70     		strb	r2, [r3, #0]
 281:.\Generated_Source\PSoC5/USB_std.c ****                 requestHandled = USB_InitNoDataControlTransfer();
 451              		.loc 1 281 0
 452 0362 FFF7FEFF 		bl	USB_InitNoDataControlTransfer
 453 0366 0346     		mov	r3, r0
 454 0368 FB70     		strb	r3, [r7, #3]
 282:.\Generated_Source\PSoC5/USB_std.c ****                 break;
 455              		.loc 1 282 0
ARM GAS  C:\Users\Craig\AppData\Local\Temp\cc9NnIsK.s 			page 14


 456 036a 2CE1     		b	.L22
 457              	.L26:
 283:.\Generated_Source\PSoC5/USB_std.c ****             case USB_SET_CONFIGURATION:
 284:.\Generated_Source\PSoC5/USB_std.c ****                 USB_configuration = CY_GET_REG8(USB_wValueLo);
 458              		.loc 1 284 0
 459 036c 46F20203 		movw	r3, #:lower16:1073766402
 460 0370 C4F20003 		movt	r3, #:upper16:1073766402
 461 0374 1B78     		ldrb	r3, [r3, #0]
 462 0376 DAB2     		uxtb	r2, r3
 463 0378 40F20003 		movw	r3, #:lower16:USB_configuration
 464 037c C0F20003 		movt	r3, #:upper16:USB_configuration
 465 0380 1A70     		strb	r2, [r3, #0]
 285:.\Generated_Source\PSoC5/USB_std.c ****                 USB_configurationChanged = USB_TRUE;
 466              		.loc 1 285 0
 467 0382 40F20003 		movw	r3, #:lower16:USB_configurationChanged
 468 0386 C0F20003 		movt	r3, #:upper16:USB_configurationChanged
 469 038a 4FF00102 		mov	r2, #1
 470 038e 1A70     		strb	r2, [r3, #0]
 286:.\Generated_Source\PSoC5/USB_std.c ****                 USB_Config(USB_TRUE);
 471              		.loc 1 286 0
 472 0390 4FF00100 		mov	r0, #1
 473 0394 FFF7FEFF 		bl	USB_Config
 287:.\Generated_Source\PSoC5/USB_std.c ****                 requestHandled = USB_InitNoDataControlTransfer();
 474              		.loc 1 287 0
 475 0398 FFF7FEFF 		bl	USB_InitNoDataControlTransfer
 476 039c 0346     		mov	r3, r0
 477 039e FB70     		strb	r3, [r7, #3]
 288:.\Generated_Source\PSoC5/USB_std.c ****                 break;
 478              		.loc 1 288 0
 479 03a0 11E1     		b	.L22
 480              	.L27:
 289:.\Generated_Source\PSoC5/USB_std.c ****             case USB_SET_INTERFACE:
 290:.\Generated_Source\PSoC5/USB_std.c ****                 if (USB_ValidateAlternateSetting())
 481              		.loc 1 290 0
 482 03a2 FFF7FEFF 		bl	USB_ValidateAlternateSetting
 483 03a6 0346     		mov	r3, r0
 484 03a8 002B     		cmp	r3, #0
 485 03aa 00F00381 		beq	.L45
 291:.\Generated_Source\PSoC5/USB_std.c ****                 {
 292:.\Generated_Source\PSoC5/USB_std.c ****                     USB_interfaceNumber = CY_GET_REG8(USB_wIndexLo);
 486              		.loc 1 292 0
 487 03ae 46F20403 		movw	r3, #:lower16:1073766404
 488 03b2 C4F20003 		movt	r3, #:upper16:1073766404
 489 03b6 1B78     		ldrb	r3, [r3, #0]
 490 03b8 DAB2     		uxtb	r2, r3
 491 03ba 40F20003 		movw	r3, #:lower16:USB_interfaceNumber
 492 03be C0F20003 		movt	r3, #:upper16:USB_interfaceNumber
 493 03c2 1A70     		strb	r2, [r3, #0]
 293:.\Generated_Source\PSoC5/USB_std.c ****                     USB_configurationChanged = USB_TRUE;
 494              		.loc 1 293 0
 495 03c4 40F20003 		movw	r3, #:lower16:USB_configurationChanged
 496 03c8 C0F20003 		movt	r3, #:upper16:USB_configurationChanged
 497 03cc 4FF00102 		mov	r2, #1
 498 03d0 1A70     		strb	r2, [r3, #0]
 294:.\Generated_Source\PSoC5/USB_std.c ****                     #if ((USB_EP_MA == USB__MA_DYNAMIC) && \
 295:.\Generated_Source\PSoC5/USB_std.c ****                          (USB_EP_MM == USB__EP_MANUAL) )
 296:.\Generated_Source\PSoC5/USB_std.c ****                         USB_Config(USB_FALSE);
ARM GAS  C:\Users\Craig\AppData\Local\Temp\cc9NnIsK.s 			page 15


 297:.\Generated_Source\PSoC5/USB_std.c ****                     #else
 298:.\Generated_Source\PSoC5/USB_std.c ****                         USB_ConfigAltChanged();
 499              		.loc 1 298 0
 500 03d2 FFF7FEFF 		bl	USB_ConfigAltChanged
 299:.\Generated_Source\PSoC5/USB_std.c ****                     #endif /* End (USB_EP_MA == USB__MA_DYNAMIC) */
 300:.\Generated_Source\PSoC5/USB_std.c ****                     /* Update handled Alt setting changes status */
 301:.\Generated_Source\PSoC5/USB_std.c ****                     USB_interfaceSetting_last[USB_interfaceNumber] = 
 501              		.loc 1 301 0
 502 03d6 40F20003 		movw	r3, #:lower16:USB_interfaceNumber
 503 03da C0F20003 		movt	r3, #:upper16:USB_interfaceNumber
 504 03de 1B78     		ldrb	r3, [r3, #0]
 505 03e0 DBB2     		uxtb	r3, r3
 506 03e2 1A46     		mov	r2, r3
 302:.\Generated_Source\PSoC5/USB_std.c ****                          USB_interfaceSetting[USB_interfaceNumber];
 507              		.loc 1 302 0
 508 03e4 40F20003 		movw	r3, #:lower16:USB_interfaceNumber
 509 03e8 C0F20003 		movt	r3, #:upper16:USB_interfaceNumber
 510 03ec 1B78     		ldrb	r3, [r3, #0]
 511 03ee DBB2     		uxtb	r3, r3
 512 03f0 1946     		mov	r1, r3
 513 03f2 40F20003 		movw	r3, #:lower16:USB_interfaceSetting
 514 03f6 C0F20003 		movt	r3, #:upper16:USB_interfaceSetting
 515 03fa 5B5C     		ldrb	r3, [r3, r1]
 516 03fc D9B2     		uxtb	r1, r3
 517              		.loc 1 301 0
 518 03fe 40F20003 		movw	r3, #:lower16:USB_interfaceSetting_last
 519 0402 C0F20003 		movt	r3, #:upper16:USB_interfaceSetting_last
 520 0406 9954     		strb	r1, [r3, r2]
 303:.\Generated_Source\PSoC5/USB_std.c ****                     requestHandled = USB_InitNoDataControlTransfer();
 521              		.loc 1 303 0
 522 0408 FFF7FEFF 		bl	USB_InitNoDataControlTransfer
 523 040c 0346     		mov	r3, r0
 524 040e FB70     		strb	r3, [r7, #3]
 304:.\Generated_Source\PSoC5/USB_std.c ****                 }
 305:.\Generated_Source\PSoC5/USB_std.c ****                 break;
 525              		.loc 1 305 0
 526 0410 D9E0     		b	.L22
 527              	.L23:
 306:.\Generated_Source\PSoC5/USB_std.c ****             case USB_CLEAR_FEATURE:
 307:.\Generated_Source\PSoC5/USB_std.c ****                 switch (CY_GET_REG8(USB_bmRequestType) & USB_RQST_RCPT_MASK)
 528              		.loc 1 307 0
 529 0412 46F20003 		movw	r3, #:lower16:1073766400
 530 0416 C4F20003 		movt	r3, #:upper16:1073766400
 531 041a 1B78     		ldrb	r3, [r3, #0]
 532 041c DBB2     		uxtb	r3, r3
 533 041e 03F00303 		and	r3, r3, #3
 534 0422 012B     		cmp	r3, #1
 535 0424 2CD0     		beq	.L32
 536 0426 012B     		cmp	r3, #1
 537 0428 0FD3     		bcc	.L31
 538 042a 022B     		cmp	r3, #2
 539 042c 40F0C480 		bne	.L46
 540              	.L33:
 308:.\Generated_Source\PSoC5/USB_std.c ****                 {
 309:.\Generated_Source\PSoC5/USB_std.c ****                     case USB_RQST_RCPT_EP:
 310:.\Generated_Source\PSoC5/USB_std.c ****                         if (CY_GET_REG8(USB_wValueLo) == USB_ENDPOINT_HALT)
 541              		.loc 1 310 0
ARM GAS  C:\Users\Craig\AppData\Local\Temp\cc9NnIsK.s 			page 16


 542 0430 46F20203 		movw	r3, #:lower16:1073766402
 543 0434 C4F20003 		movt	r3, #:upper16:1073766402
 544 0438 1B78     		ldrb	r3, [r3, #0]
 545 043a DBB2     		uxtb	r3, r3
 546 043c 002B     		cmp	r3, #0
 547 043e 03D1     		bne	.L34
 311:.\Generated_Source\PSoC5/USB_std.c ****                         {
 312:.\Generated_Source\PSoC5/USB_std.c ****                             requestHandled = USB_ClearEndpointHalt();
 548              		.loc 1 312 0
 549 0440 FFF7FEFF 		bl	USB_ClearEndpointHalt
 550 0444 0346     		mov	r3, r0
 551 0446 FB70     		strb	r3, [r7, #3]
 552              	.L34:
 313:.\Generated_Source\PSoC5/USB_std.c ****                         }
 314:.\Generated_Source\PSoC5/USB_std.c ****                         break;
 553              		.loc 1 314 0
 554 0448 49E0     		b	.L30
 555              	.L31:
 315:.\Generated_Source\PSoC5/USB_std.c ****                     case USB_RQST_RCPT_DEV:
 316:.\Generated_Source\PSoC5/USB_std.c ****                         /* Clear device REMOTE_WAKEUP */
 317:.\Generated_Source\PSoC5/USB_std.c ****                         if (CY_GET_REG8(USB_wValueLo) == USB_DEVICE_REMOTE_WAKEUP)
 556              		.loc 1 317 0
 557 044a 46F20203 		movw	r3, #:lower16:1073766402
 558 044e C4F20003 		movt	r3, #:upper16:1073766402
 559 0452 1B78     		ldrb	r3, [r3, #0]
 560 0454 DBB2     		uxtb	r3, r3
 561 0456 012B     		cmp	r3, #1
 562 0458 11D1     		bne	.L35
 318:.\Generated_Source\PSoC5/USB_std.c ****                         {
 319:.\Generated_Source\PSoC5/USB_std.c ****                             USB_deviceStatus &= ~USB_DEVICE_STATUS_REMOTE_WAKEUP;
 563              		.loc 1 319 0
 564 045a 40F20003 		movw	r3, #:lower16:USB_deviceStatus
 565 045e C0F20003 		movt	r3, #:upper16:USB_deviceStatus
 566 0462 1B78     		ldrb	r3, [r3, #0]
 567 0464 DBB2     		uxtb	r3, r3
 568 0466 1A46     		mov	r2, r3
 569 0468 02F0FD02 		and	r2, r2, #253
 570 046c 40F20003 		movw	r3, #:lower16:USB_deviceStatus
 571 0470 C0F20003 		movt	r3, #:upper16:USB_deviceStatus
 572 0474 1A70     		strb	r2, [r3, #0]
 320:.\Generated_Source\PSoC5/USB_std.c ****                             requestHandled = USB_InitNoDataControlTransfer();
 573              		.loc 1 320 0
 574 0476 FFF7FEFF 		bl	USB_InitNoDataControlTransfer
 575 047a 0346     		mov	r3, r0
 576 047c FB70     		strb	r3, [r7, #3]
 577              	.L35:
 321:.\Generated_Source\PSoC5/USB_std.c ****                         }
 322:.\Generated_Source\PSoC5/USB_std.c ****                         break;
 578              		.loc 1 322 0
 579 047e 2EE0     		b	.L30
 580              	.L32:
 323:.\Generated_Source\PSoC5/USB_std.c ****                     case USB_RQST_RCPT_IFC:
 324:.\Generated_Source\PSoC5/USB_std.c ****                         /* Validate interfaceNumber */
 325:.\Generated_Source\PSoC5/USB_std.c ****                         if (CY_GET_REG8(USB_wIndexLo) < USB_MAX_INTERFACES_NUMBER)
 581              		.loc 1 325 0
 582 0480 46F20403 		movw	r3, #:lower16:1073766404
 583 0484 C4F20003 		movt	r3, #:upper16:1073766404
ARM GAS  C:\Users\Craig\AppData\Local\Temp\cc9NnIsK.s 			page 17


 584 0488 1B78     		ldrb	r3, [r3, #0]
 585 048a DBB2     		uxtb	r3, r3
 586 048c 002B     		cmp	r3, #0
 587 048e 40F09580 		bne	.L47
 326:.\Generated_Source\PSoC5/USB_std.c ****                         {
 327:.\Generated_Source\PSoC5/USB_std.c ****                             USB_interfaceStatus[CY_GET_REG8(USB_wIndexLo)] &= \
 588              		.loc 1 327 0
 589 0492 46F20403 		movw	r3, #:lower16:1073766404
 590 0496 C4F20003 		movt	r3, #:upper16:1073766404
 591 049a 1B78     		ldrb	r3, [r3, #0]
 592 049c DBB2     		uxtb	r3, r3
 593 049e 1A46     		mov	r2, r3
 594 04a0 1946     		mov	r1, r3
 595 04a2 40F20003 		movw	r3, #:lower16:USB_interfaceStatus
 596 04a6 C0F20003 		movt	r3, #:upper16:USB_interfaceStatus
 597 04aa 5B5C     		ldrb	r3, [r3, r1]
 598 04ac DBB2     		uxtb	r3, r3
 599 04ae 1946     		mov	r1, r3
 328:.\Generated_Source\PSoC5/USB_std.c ****                                                                 ~(CY_GET_REG8(USB_wValueLo)) ;
 600              		.loc 1 328 0
 601 04b0 46F20203 		movw	r3, #:lower16:1073766402
 602 04b4 C4F20003 		movt	r3, #:upper16:1073766402
 603 04b8 1B78     		ldrb	r3, [r3, #0]
 604 04ba DBB2     		uxtb	r3, r3
 605              		.loc 1 327 0
 606 04bc 6FEA0303 		mvn	r3, r3
 607 04c0 DBB2     		uxtb	r3, r3
 608 04c2 01EA0303 		and	r3, r1, r3
 609 04c6 DBB2     		uxtb	r3, r3
 610 04c8 D9B2     		uxtb	r1, r3
 611 04ca 40F20003 		movw	r3, #:lower16:USB_interfaceStatus
 612 04ce C0F20003 		movt	r3, #:upper16:USB_interfaceStatus
 613 04d2 9954     		strb	r1, [r3, r2]
 329:.\Generated_Source\PSoC5/USB_std.c ****                             requestHandled = USB_InitNoDataControlTransfer();
 614              		.loc 1 329 0
 615 04d4 FFF7FEFF 		bl	USB_InitNoDataControlTransfer
 616 04d8 0346     		mov	r3, r0
 617 04da FB70     		strb	r3, [r7, #3]
 330:.\Generated_Source\PSoC5/USB_std.c ****                         }
 331:.\Generated_Source\PSoC5/USB_std.c ****                         break;
 332:.\Generated_Source\PSoC5/USB_std.c ****                     default:    /* requestHandled is initialezed as FALSE by default */
 333:.\Generated_Source\PSoC5/USB_std.c ****                         break;
 334:.\Generated_Source\PSoC5/USB_std.c ****                 }
 335:.\Generated_Source\PSoC5/USB_std.c ****                 break;
 618              		.loc 1 335 0
 619 04dc 73E0     		b	.L22
 620              	.L30:
 621 04de 72E0     		b	.L22
 622              	.L24:
 336:.\Generated_Source\PSoC5/USB_std.c ****             case USB_SET_FEATURE:
 337:.\Generated_Source\PSoC5/USB_std.c ****                 switch (CY_GET_REG8(USB_bmRequestType) & USB_RQST_RCPT_MASK)
 623              		.loc 1 337 0
 624 04e0 46F20003 		movw	r3, #:lower16:1073766400
 625 04e4 C4F20003 		movt	r3, #:upper16:1073766400
 626 04e8 1B78     		ldrb	r3, [r3, #0]
 627 04ea DBB2     		uxtb	r3, r3
 628 04ec 03F00303 		and	r3, r3, #3
ARM GAS  C:\Users\Craig\AppData\Local\Temp\cc9NnIsK.s 			page 18


 629 04f0 012B     		cmp	r3, #1
 630 04f2 2BD0     		beq	.L37
 631 04f4 012B     		cmp	r3, #1
 632 04f6 0ED3     		bcc	.L36
 633 04f8 022B     		cmp	r3, #2
 634 04fa 64D1     		bne	.L22
 635              	.L38:
 338:.\Generated_Source\PSoC5/USB_std.c ****                 {
 339:.\Generated_Source\PSoC5/USB_std.c ****                     case USB_RQST_RCPT_EP:
 340:.\Generated_Source\PSoC5/USB_std.c ****                         if (CY_GET_REG8(USB_wValueLo) == USB_ENDPOINT_HALT)
 636              		.loc 1 340 0
 637 04fc 46F20203 		movw	r3, #:lower16:1073766402
 638 0500 C4F20003 		movt	r3, #:upper16:1073766402
 639 0504 1B78     		ldrb	r3, [r3, #0]
 640 0506 DBB2     		uxtb	r3, r3
 641 0508 002B     		cmp	r3, #0
 642 050a 59D1     		bne	.L48
 341:.\Generated_Source\PSoC5/USB_std.c ****                         {
 342:.\Generated_Source\PSoC5/USB_std.c ****                             requestHandled = USB_SetEndpointHalt();
 643              		.loc 1 342 0
 644 050c FFF7FEFF 		bl	USB_SetEndpointHalt
 645 0510 0346     		mov	r3, r0
 646 0512 FB70     		strb	r3, [r7, #3]
 343:.\Generated_Source\PSoC5/USB_std.c ****                         }
 344:.\Generated_Source\PSoC5/USB_std.c ****                         break;
 647              		.loc 1 344 0
 648 0514 57E0     		b	.L22
 649              	.L36:
 345:.\Generated_Source\PSoC5/USB_std.c ****                     case USB_RQST_RCPT_DEV:
 346:.\Generated_Source\PSoC5/USB_std.c ****                         /* Set device REMOTE_WAKEUP */
 347:.\Generated_Source\PSoC5/USB_std.c ****                         if (CY_GET_REG8(USB_wValueLo) == USB_DEVICE_REMOTE_WAKEUP)
 650              		.loc 1 347 0
 651 0516 46F20203 		movw	r3, #:lower16:1073766402
 652 051a C4F20003 		movt	r3, #:upper16:1073766402
 653 051e 1B78     		ldrb	r3, [r3, #0]
 654 0520 DBB2     		uxtb	r3, r3
 655 0522 012B     		cmp	r3, #1
 656 0524 4ED1     		bne	.L49
 348:.\Generated_Source\PSoC5/USB_std.c ****                         {
 349:.\Generated_Source\PSoC5/USB_std.c ****                             USB_deviceStatus |= USB_DEVICE_STATUS_REMOTE_WAKEUP;
 657              		.loc 1 349 0
 658 0526 40F20003 		movw	r3, #:lower16:USB_deviceStatus
 659 052a C0F20003 		movt	r3, #:upper16:USB_deviceStatus
 660 052e 1B78     		ldrb	r3, [r3, #0]
 661 0530 DBB2     		uxtb	r3, r3
 662 0532 43F00203 		orr	r3, r3, #2
 663 0536 DAB2     		uxtb	r2, r3
 664 0538 40F20003 		movw	r3, #:lower16:USB_deviceStatus
 665 053c C0F20003 		movt	r3, #:upper16:USB_deviceStatus
 666 0540 1A70     		strb	r2, [r3, #0]
 350:.\Generated_Source\PSoC5/USB_std.c ****                             requestHandled = USB_InitNoDataControlTransfer();
 667              		.loc 1 350 0
 668 0542 FFF7FEFF 		bl	USB_InitNoDataControlTransfer
 669 0546 0346     		mov	r3, r0
 670 0548 FB70     		strb	r3, [r7, #3]
 351:.\Generated_Source\PSoC5/USB_std.c ****                         }
 352:.\Generated_Source\PSoC5/USB_std.c ****                         break;
ARM GAS  C:\Users\Craig\AppData\Local\Temp\cc9NnIsK.s 			page 19


 671              		.loc 1 352 0
 672 054a 3CE0     		b	.L22
 673              	.L37:
 353:.\Generated_Source\PSoC5/USB_std.c ****                     case USB_RQST_RCPT_IFC:
 354:.\Generated_Source\PSoC5/USB_std.c ****                         /* Validate interfaceNumber */
 355:.\Generated_Source\PSoC5/USB_std.c ****                         if (CY_GET_REG8(USB_wIndexLo) < USB_MAX_INTERFACES_NUMBER)
 674              		.loc 1 355 0
 675 054c 46F20403 		movw	r3, #:lower16:1073766404
 676 0550 C4F20003 		movt	r3, #:upper16:1073766404
 677 0554 1B78     		ldrb	r3, [r3, #0]
 678 0556 DBB2     		uxtb	r3, r3
 679 0558 002B     		cmp	r3, #0
 680 055a 34D1     		bne	.L22
 356:.\Generated_Source\PSoC5/USB_std.c ****                         {
 357:.\Generated_Source\PSoC5/USB_std.c ****                             USB_interfaceStatus[CY_GET_REG8(USB_wIndexLo)] &= \
 681              		.loc 1 357 0
 682 055c 46F20403 		movw	r3, #:lower16:1073766404
 683 0560 C4F20003 		movt	r3, #:upper16:1073766404
 684 0564 1B78     		ldrb	r3, [r3, #0]
 685 0566 DBB2     		uxtb	r3, r3
 686 0568 1A46     		mov	r2, r3
 687 056a 1946     		mov	r1, r3
 688 056c 40F20003 		movw	r3, #:lower16:USB_interfaceStatus
 689 0570 C0F20003 		movt	r3, #:upper16:USB_interfaceStatus
 690 0574 5B5C     		ldrb	r3, [r3, r1]
 691 0576 DBB2     		uxtb	r3, r3
 692 0578 1946     		mov	r1, r3
 358:.\Generated_Source\PSoC5/USB_std.c ****                                                                 ~(CY_GET_REG8(USB_wValueLo)) ;
 693              		.loc 1 358 0
 694 057a 46F20203 		movw	r3, #:lower16:1073766402
 695 057e C4F20003 		movt	r3, #:upper16:1073766402
 696 0582 1B78     		ldrb	r3, [r3, #0]
 697 0584 DBB2     		uxtb	r3, r3
 698              		.loc 1 357 0
 699 0586 6FEA0303 		mvn	r3, r3
 700 058a DBB2     		uxtb	r3, r3
 701 058c 01EA0303 		and	r3, r1, r3
 702 0590 DBB2     		uxtb	r3, r3
 703 0592 D9B2     		uxtb	r1, r3
 704 0594 40F20003 		movw	r3, #:lower16:USB_interfaceStatus
 705 0598 C0F20003 		movt	r3, #:upper16:USB_interfaceStatus
 706 059c 9954     		strb	r1, [r3, r2]
 359:.\Generated_Source\PSoC5/USB_std.c ****                             requestHandled = USB_InitNoDataControlTransfer();
 707              		.loc 1 359 0
 708 059e FFF7FEFF 		bl	USB_InitNoDataControlTransfer
 709 05a2 0346     		mov	r3, r0
 710 05a4 FB70     		strb	r3, [r7, #3]
 711 05a6 0EE0     		b	.L22
 712              	.L42:
 713              		.loc 1 269 0
 714 05a8 00BF     		nop
 715 05aa 0CE0     		b	.L22
 716              	.L43:
 717              		.loc 1 237 0
 718 05ac 00BF     		nop
 719 05ae 0AE0     		b	.L22
 720              	.L44:
ARM GAS  C:\Users\Craig\AppData\Local\Temp\cc9NnIsK.s 			page 20


 721              		.loc 1 259 0
 722 05b0 00BF     		nop
 723 05b2 08E0     		b	.L22
 724              	.L45:
 725              		.loc 1 305 0
 726 05b4 00BF     		nop
 727 05b6 06E0     		b	.L22
 728              	.L46:
 729              		.loc 1 335 0
 730 05b8 00BF     		nop
 731 05ba 04E0     		b	.L22
 732              	.L47:
 733 05bc 00BF     		nop
 734 05be 02E0     		b	.L22
 735              	.L48:
 736              		.loc 1 344 0
 737 05c0 00BF     		nop
 738 05c2 00E0     		b	.L22
 739              	.L49:
 740              		.loc 1 352 0
 741 05c4 00BF     		nop
 742              	.L22:
 360:.\Generated_Source\PSoC5/USB_std.c ****                         }
 361:.\Generated_Source\PSoC5/USB_std.c ****                         break;
 362:.\Generated_Source\PSoC5/USB_std.c ****                     default:    /* requestHandled is initialezed as FALSE by default */
 363:.\Generated_Source\PSoC5/USB_std.c ****                         break;
 364:.\Generated_Source\PSoC5/USB_std.c ****                 }
 365:.\Generated_Source\PSoC5/USB_std.c ****                 break;
 366:.\Generated_Source\PSoC5/USB_std.c ****             default:    /* requestHandled is initialezed as FALSE by default */
 367:.\Generated_Source\PSoC5/USB_std.c ****                 break;
 368:.\Generated_Source\PSoC5/USB_std.c ****         }
 369:.\Generated_Source\PSoC5/USB_std.c ****     }
 370:.\Generated_Source\PSoC5/USB_std.c ****     return(requestHandled);
 743              		.loc 1 370 0
 744 05c6 FB78     		ldrb	r3, [r7, #3]	@ zero_extendqisi2
 371:.\Generated_Source\PSoC5/USB_std.c **** }
 745              		.loc 1 371 0
 746 05c8 1846     		mov	r0, r3
 747 05ca 07F11007 		add	r7, r7, #16
 748 05ce BD46     		mov	sp, r7
 749 05d0 80BD     		pop	{r7, pc}
 750              		.cfi_endproc
 751              	.LFE1:
 752              		.size	USB_HandleStandardRqst, .-USB_HandleStandardRqst
 753 05d2 00BF     		.section	.text.USB_ConfigReg,"ax",%progbits
 754              		.align	2
 755              		.global	USB_ConfigReg
 756              		.thumb
 757              		.thumb_func
 758              		.type	USB_ConfigReg, %function
 759              	USB_ConfigReg:
 760              	.LFB2:
 372:.\Generated_Source\PSoC5/USB_std.c **** 
 373:.\Generated_Source\PSoC5/USB_std.c **** 
 374:.\Generated_Source\PSoC5/USB_std.c **** #if defined(USB_ENABLE_IDSN_STRING)
 375:.\Generated_Source\PSoC5/USB_std.c **** 
 376:.\Generated_Source\PSoC5/USB_std.c ****     /***************************************************************************
ARM GAS  C:\Users\Craig\AppData\Local\Temp\cc9NnIsK.s 			page 21


 377:.\Generated_Source\PSoC5/USB_std.c ****     * Function Name: USB_ReadDieID
 378:.\Generated_Source\PSoC5/USB_std.c ****     ****************************************************************************
 379:.\Generated_Source\PSoC5/USB_std.c ****     *
 380:.\Generated_Source\PSoC5/USB_std.c ****     * Summary:
 381:.\Generated_Source\PSoC5/USB_std.c ****     *  This routine read Die ID and genarete Serian Number string descriptor.
 382:.\Generated_Source\PSoC5/USB_std.c ****     *
 383:.\Generated_Source\PSoC5/USB_std.c ****     * Parameters:
 384:.\Generated_Source\PSoC5/USB_std.c ****     *  descr:  pointer on string descriptor.
 385:.\Generated_Source\PSoC5/USB_std.c ****     *
 386:.\Generated_Source\PSoC5/USB_std.c ****     * Return:
 387:.\Generated_Source\PSoC5/USB_std.c ****     *  None.
 388:.\Generated_Source\PSoC5/USB_std.c ****     *
 389:.\Generated_Source\PSoC5/USB_std.c ****     * Reentrant:
 390:.\Generated_Source\PSoC5/USB_std.c ****     *  No.
 391:.\Generated_Source\PSoC5/USB_std.c ****     *
 392:.\Generated_Source\PSoC5/USB_std.c ****     ***************************************************************************/
 393:.\Generated_Source\PSoC5/USB_std.c ****     void USB_ReadDieID(uint8 *descr) 
 394:.\Generated_Source\PSoC5/USB_std.c ****     {
 395:.\Generated_Source\PSoC5/USB_std.c ****         uint8 i,j;
 396:.\Generated_Source\PSoC5/USB_std.c ****         uint8 value;
 397:.\Generated_Source\PSoC5/USB_std.c ****         static char8 const hex[16u] = "0123456789ABCDEF";
 398:.\Generated_Source\PSoC5/USB_std.c **** 
 399:.\Generated_Source\PSoC5/USB_std.c ****         /* check descriptor validation */
 400:.\Generated_Source\PSoC5/USB_std.c ****         if( (descr[0u] > 1u ) && (descr[1u] == USB_DESCR_STRING) )
 401:.\Generated_Source\PSoC5/USB_std.c ****         {
 402:.\Generated_Source\PSoC5/USB_std.c ****             /* fill descriptor */
 403:.\Generated_Source\PSoC5/USB_std.c ****             for(j = 0u, i = 2u; i < descr[0u]; i += 2u)
 404:.\Generated_Source\PSoC5/USB_std.c ****             {
 405:.\Generated_Source\PSoC5/USB_std.c ****                 value = CY_GET_XTND_REG8((void CYFAR *)(USB_DIE_ID + j++));
 406:.\Generated_Source\PSoC5/USB_std.c ****                 descr[i] = (uint8)hex[value >> 4u];
 407:.\Generated_Source\PSoC5/USB_std.c ****                 i += 2u;
 408:.\Generated_Source\PSoC5/USB_std.c ****                 descr[i] = (uint8)hex[value & 0x0Fu];
 409:.\Generated_Source\PSoC5/USB_std.c ****             }
 410:.\Generated_Source\PSoC5/USB_std.c ****         }
 411:.\Generated_Source\PSoC5/USB_std.c ****     }
 412:.\Generated_Source\PSoC5/USB_std.c **** 
 413:.\Generated_Source\PSoC5/USB_std.c **** #endif /* End $INSTANCE_NAME`_ENABLE_IDSN_STRING*/
 414:.\Generated_Source\PSoC5/USB_std.c **** 
 415:.\Generated_Source\PSoC5/USB_std.c **** 
 416:.\Generated_Source\PSoC5/USB_std.c **** /*******************************************************************************
 417:.\Generated_Source\PSoC5/USB_std.c **** * Function Name: USB_ConfigReg
 418:.\Generated_Source\PSoC5/USB_std.c **** ********************************************************************************
 419:.\Generated_Source\PSoC5/USB_std.c **** *
 420:.\Generated_Source\PSoC5/USB_std.c **** * Summary:
 421:.\Generated_Source\PSoC5/USB_std.c **** *  This routine configures hardware registers from the variables.
 422:.\Generated_Source\PSoC5/USB_std.c **** *  It is called from USB_Config() function and from RestoreConfig
 423:.\Generated_Source\PSoC5/USB_std.c **** *  after Wakeup.
 424:.\Generated_Source\PSoC5/USB_std.c **** *
 425:.\Generated_Source\PSoC5/USB_std.c **** * Parameters:
 426:.\Generated_Source\PSoC5/USB_std.c **** *  None.
 427:.\Generated_Source\PSoC5/USB_std.c **** *
 428:.\Generated_Source\PSoC5/USB_std.c **** * Return:
 429:.\Generated_Source\PSoC5/USB_std.c **** *  None.
 430:.\Generated_Source\PSoC5/USB_std.c **** *
 431:.\Generated_Source\PSoC5/USB_std.c **** *******************************************************************************/
 432:.\Generated_Source\PSoC5/USB_std.c **** void USB_ConfigReg(void) 
 433:.\Generated_Source\PSoC5/USB_std.c **** {
ARM GAS  C:\Users\Craig\AppData\Local\Temp\cc9NnIsK.s 			page 22


 761              		.loc 1 433 0
 762              		.cfi_startproc
 763              		@ args = 0, pretend = 0, frame = 8
 764              		@ frame_needed = 1, uses_anonymous_args = 0
 765              		@ link register save eliminated.
 766 0000 80B4     		push	{r7}
 767              	.LCFI6:
 768              		.cfi_def_cfa_offset 4
 769 0002 83B0     		sub	sp, sp, #12
 770              	.LCFI7:
 771              		.cfi_def_cfa_offset 16
 772 0004 00AF     		add	r7, sp, #0
 773              		.cfi_offset 7, -4
 774              	.LCFI8:
 775              		.cfi_def_cfa_register 7
 434:.\Generated_Source\PSoC5/USB_std.c ****     uint8 ep;
 435:.\Generated_Source\PSoC5/USB_std.c ****     uint8 i;
 436:.\Generated_Source\PSoC5/USB_std.c ****     #if(USB_EP_MM == USB__EP_DMAAUTO)
 437:.\Generated_Source\PSoC5/USB_std.c ****         uint8 ep_type = 0u;
 438:.\Generated_Source\PSoC5/USB_std.c ****     #endif /* End USB_EP_MM == USB__EP_DMAAUTO */
 439:.\Generated_Source\PSoC5/USB_std.c **** 
 440:.\Generated_Source\PSoC5/USB_std.c ****     /* Set the endpoint buffer addresses */
 441:.\Generated_Source\PSoC5/USB_std.c ****     ep = USB_EP1;
 776              		.loc 1 441 0
 777 0006 4FF00103 		mov	r3, #1
 778 000a BB71     		strb	r3, [r7, #6]
 442:.\Generated_Source\PSoC5/USB_std.c ****     for (i = 0u; i < 0x80u; i+= 0x10u)
 779              		.loc 1 442 0
 780 000c 4FF00003 		mov	r3, #0
 781 0010 FB71     		strb	r3, [r7, #7]
 782 0012 E7E0     		b	.L51
 783              	.L56:
 443:.\Generated_Source\PSoC5/USB_std.c ****     {
 444:.\Generated_Source\PSoC5/USB_std.c ****         CY_SET_REG8(&USB_ARB_EP1_CFG_PTR[i], USB_ARB_EPX_CFG_CRC_BYPASS |
 784              		.loc 1 444 0
 785 0014 FA79     		ldrb	r2, [r7, #7]	@ zero_extendqisi2
 786 0016 46F28003 		movw	r3, #:lower16:1073766528
 787 001a C4F20003 		movt	r3, #:upper16:1073766528
 788 001e 1344     		add	r3, r2, r3
 789 0020 4FF00C02 		mov	r2, #12
 790 0024 1A70     		strb	r2, [r3, #0]
 445:.\Generated_Source\PSoC5/USB_std.c ****                                                           USB_ARB_EPX_CFG_RESET);
 446:.\Generated_Source\PSoC5/USB_std.c **** 
 447:.\Generated_Source\PSoC5/USB_std.c ****         #if(USB_EP_MM != USB__EP_MANUAL)
 448:.\Generated_Source\PSoC5/USB_std.c ****             /* Enable all Arbiter EP Interrupts : err, buf under, buf over, dma gnt(mode2 only), in
 449:.\Generated_Source\PSoC5/USB_std.c ****             USB_ARB_EP1_INT_EN_PTR[i] = USB_ARB_EPX_INT_MASK;
 450:.\Generated_Source\PSoC5/USB_std.c ****         #endif   /* End USB_EP_MM != USB__EP_MANUAL */
 451:.\Generated_Source\PSoC5/USB_std.c **** 
 452:.\Generated_Source\PSoC5/USB_std.c ****         if(USB_EP[ep].epMode != USB_MODE_DISABLE)
 791              		.loc 1 452 0
 792 0026 B979     		ldrb	r1, [r7, #6]	@ zero_extendqisi2
 793 0028 40F20002 		movw	r2, #:lower16:USB_EP
 794 002c C0F20002 		movt	r2, #:upper16:USB_EP
 795 0030 0B46     		mov	r3, r1
 796 0032 4FEA4303 		lsl	r3, r3, #1
 797 0036 0B44     		add	r3, r3, r1
 798 0038 4FEA8303 		lsl	r3, r3, #2
ARM GAS  C:\Users\Craig\AppData\Local\Temp\cc9NnIsK.s 			page 23


 799 003c 1344     		add	r3, r3, r2
 800 003e 5B79     		ldrb	r3, [r3, #5]
 801 0040 DBB2     		uxtb	r3, r3
 802 0042 002B     		cmp	r3, #0
 803 0044 24D0     		beq	.L52
 453:.\Generated_Source\PSoC5/USB_std.c ****         {
 454:.\Generated_Source\PSoC5/USB_std.c ****             if((USB_EP[ep].addr & USB_DIR_IN) != 0u )
 804              		.loc 1 454 0
 805 0046 B979     		ldrb	r1, [r7, #6]	@ zero_extendqisi2
 806 0048 40F20002 		movw	r2, #:lower16:USB_EP
 807 004c C0F20002 		movt	r2, #:upper16:USB_EP
 808 0050 0B46     		mov	r3, r1
 809 0052 4FEA4303 		lsl	r3, r3, #1
 810 0056 0B44     		add	r3, r3, r1
 811 0058 4FEA8303 		lsl	r3, r3, #2
 812 005c 1344     		add	r3, r3, r2
 813 005e 1B79     		ldrb	r3, [r3, #4]
 814 0060 DBB2     		uxtb	r3, r3
 815 0062 5BB2     		sxtb	r3, r3
 816 0064 002B     		cmp	r3, #0
 817 0066 09DA     		bge	.L53
 455:.\Generated_Source\PSoC5/USB_std.c ****             {
 456:.\Generated_Source\PSoC5/USB_std.c ****                 CY_SET_REG8(&USB_SIE_EP1_CR0_PTR[i], USB_MODE_NAK_IN);
 818              		.loc 1 456 0
 819 0068 FA79     		ldrb	r2, [r7, #7]	@ zero_extendqisi2
 820 006a 46F20E03 		movw	r3, #:lower16:1073766414
 821 006e C4F20003 		movt	r3, #:upper16:1073766414
 822 0072 1344     		add	r3, r2, r3
 823 0074 4FF00C02 		mov	r2, #12
 824 0078 1A70     		strb	r2, [r3, #0]
 457:.\Generated_Source\PSoC5/USB_std.c ****             }
 458:.\Generated_Source\PSoC5/USB_std.c ****             else
 459:.\Generated_Source\PSoC5/USB_std.c ****             {
 460:.\Generated_Source\PSoC5/USB_std.c ****                 CY_SET_REG8(&USB_SIE_EP1_CR0_PTR[i], USB_MODE_NAK_OUT);
 825              		.loc 1 460 0
 826 007a 12E0     		b	.L55
 827              	.L53:
 828 007c FA79     		ldrb	r2, [r7, #7]	@ zero_extendqisi2
 829 007e 46F20E03 		movw	r3, #:lower16:1073766414
 830 0082 C4F20003 		movt	r3, #:upper16:1073766414
 831 0086 1344     		add	r3, r2, r3
 832 0088 4FF00802 		mov	r2, #8
 833 008c 1A70     		strb	r2, [r3, #0]
 834 008e 08E0     		b	.L55
 835              	.L52:
 461:.\Generated_Source\PSoC5/USB_std.c ****                 /* Prepare EP type mask for automatic memory allocation */
 462:.\Generated_Source\PSoC5/USB_std.c ****                 #if(USB_EP_MM == USB__EP_DMAAUTO)
 463:.\Generated_Source\PSoC5/USB_std.c ****                     ep_type |= 0x01u << (ep - USB_EP1);
 464:.\Generated_Source\PSoC5/USB_std.c ****                 #endif /* End USB_EP_MM == USB__EP_DMAAUTO */
 465:.\Generated_Source\PSoC5/USB_std.c ****             }
 466:.\Generated_Source\PSoC5/USB_std.c ****         }
 467:.\Generated_Source\PSoC5/USB_std.c ****         else
 468:.\Generated_Source\PSoC5/USB_std.c ****         {
 469:.\Generated_Source\PSoC5/USB_std.c ****             CY_SET_REG8(&USB_SIE_EP1_CR0_PTR[i], USB_MODE_STALL_DATA_EP);
 836              		.loc 1 469 0
 837 0090 FA79     		ldrb	r2, [r7, #7]	@ zero_extendqisi2
 838 0092 46F20E03 		movw	r3, #:lower16:1073766414
ARM GAS  C:\Users\Craig\AppData\Local\Temp\cc9NnIsK.s 			page 24


 839 0096 C4F20003 		movt	r3, #:upper16:1073766414
 840 009a 1344     		add	r3, r2, r3
 841 009c 6FF07F02 		mvn	r2, #127
 842 00a0 1A70     		strb	r2, [r3, #0]
 843              	.L55:
 470:.\Generated_Source\PSoC5/USB_std.c ****         }
 471:.\Generated_Source\PSoC5/USB_std.c **** 
 472:.\Generated_Source\PSoC5/USB_std.c ****         #if(USB_EP_MM != USB__EP_DMAAUTO)
 473:.\Generated_Source\PSoC5/USB_std.c ****             CY_SET_REG8(&USB_SIE_EP1_CNT0_PTR[i],   USB_EP[ep].bufferSize >> 8u);
 844              		.loc 1 473 0
 845 00a2 FA79     		ldrb	r2, [r7, #7]	@ zero_extendqisi2
 846 00a4 46F20C03 		movw	r3, #:lower16:1073766412
 847 00a8 C4F20003 		movt	r3, #:upper16:1073766412
 848 00ac 1344     		add	r3, r2, r3
 849 00ae B879     		ldrb	r0, [r7, #6]	@ zero_extendqisi2
 850 00b0 40F20001 		movw	r1, #:lower16:USB_EP
 851 00b4 C0F20001 		movt	r1, #:upper16:USB_EP
 852 00b8 0246     		mov	r2, r0
 853 00ba 4FEA4202 		lsl	r2, r2, #1
 854 00be 0244     		add	r2, r2, r0
 855 00c0 4FEA8202 		lsl	r2, r2, #2
 856 00c4 0A44     		add	r2, r2, r1
 857 00c6 02F10802 		add	r2, r2, #8
 858 00ca 1288     		ldrh	r2, [r2, #0]	@ movhi
 859 00cc 92B2     		uxth	r2, r2
 860 00ce 4FEA1222 		lsr	r2, r2, #8
 861 00d2 92B2     		uxth	r2, r2
 862 00d4 D2B2     		uxtb	r2, r2
 863 00d6 1A70     		strb	r2, [r3, #0]
 474:.\Generated_Source\PSoC5/USB_std.c ****             CY_SET_REG8(&USB_SIE_EP1_CNT1_PTR[i],   USB_EP[ep].bufferSize & 0xFFu);
 864              		.loc 1 474 0
 865 00d8 FA79     		ldrb	r2, [r7, #7]	@ zero_extendqisi2
 866 00da 46F20D03 		movw	r3, #:lower16:1073766413
 867 00de C4F20003 		movt	r3, #:upper16:1073766413
 868 00e2 1344     		add	r3, r2, r3
 869 00e4 B879     		ldrb	r0, [r7, #6]	@ zero_extendqisi2
 870 00e6 40F20001 		movw	r1, #:lower16:USB_EP
 871 00ea C0F20001 		movt	r1, #:upper16:USB_EP
 872 00ee 0246     		mov	r2, r0
 873 00f0 4FEA4202 		lsl	r2, r2, #1
 874 00f4 0244     		add	r2, r2, r0
 875 00f6 4FEA8202 		lsl	r2, r2, #2
 876 00fa 0A44     		add	r2, r2, r1
 877 00fc 02F10802 		add	r2, r2, #8
 878 0100 1288     		ldrh	r2, [r2, #0]	@ movhi
 879 0102 92B2     		uxth	r2, r2
 880 0104 D2B2     		uxtb	r2, r2
 881 0106 1A70     		strb	r2, [r3, #0]
 475:.\Generated_Source\PSoC5/USB_std.c **** 
 476:.\Generated_Source\PSoC5/USB_std.c ****             CY_SET_REG8(&USB_ARB_RW1_RA_PTR[i],     USB_EP[ep].buffOffset & 0xFFu);
 882              		.loc 1 476 0
 883 0108 FA79     		ldrb	r2, [r7, #7]	@ zero_extendqisi2
 884 010a 46F28603 		movw	r3, #:lower16:1073766534
 885 010e C4F20003 		movt	r3, #:upper16:1073766534
 886 0112 1344     		add	r3, r2, r3
 887 0114 B879     		ldrb	r0, [r7, #6]	@ zero_extendqisi2
 888 0116 40F20001 		movw	r1, #:lower16:USB_EP
ARM GAS  C:\Users\Craig\AppData\Local\Temp\cc9NnIsK.s 			page 25


 889 011a C0F20001 		movt	r1, #:upper16:USB_EP
 890 011e 0246     		mov	r2, r0
 891 0120 4FEA4202 		lsl	r2, r2, #1
 892 0124 0244     		add	r2, r2, r0
 893 0126 4FEA8202 		lsl	r2, r2, #2
 894 012a 0A44     		add	r2, r2, r1
 895 012c 02F10602 		add	r2, r2, #6
 896 0130 1288     		ldrh	r2, [r2, #0]	@ movhi
 897 0132 92B2     		uxth	r2, r2
 898 0134 D2B2     		uxtb	r2, r2
 899 0136 1A70     		strb	r2, [r3, #0]
 477:.\Generated_Source\PSoC5/USB_std.c ****             CY_SET_REG8(&USB_ARB_RW1_RA_MSB_PTR[i], USB_EP[ep].buffOffset >> 8u);
 900              		.loc 1 477 0
 901 0138 FA79     		ldrb	r2, [r7, #7]	@ zero_extendqisi2
 902 013a 46F28703 		movw	r3, #:lower16:1073766535
 903 013e C4F20003 		movt	r3, #:upper16:1073766535
 904 0142 1344     		add	r3, r2, r3
 905 0144 B879     		ldrb	r0, [r7, #6]	@ zero_extendqisi2
 906 0146 40F20001 		movw	r1, #:lower16:USB_EP
 907 014a C0F20001 		movt	r1, #:upper16:USB_EP
 908 014e 0246     		mov	r2, r0
 909 0150 4FEA4202 		lsl	r2, r2, #1
 910 0154 0244     		add	r2, r2, r0
 911 0156 4FEA8202 		lsl	r2, r2, #2
 912 015a 0A44     		add	r2, r2, r1
 913 015c 02F10602 		add	r2, r2, #6
 914 0160 1288     		ldrh	r2, [r2, #0]	@ movhi
 915 0162 92B2     		uxth	r2, r2
 916 0164 4FEA1222 		lsr	r2, r2, #8
 917 0168 92B2     		uxth	r2, r2
 918 016a D2B2     		uxtb	r2, r2
 919 016c 1A70     		strb	r2, [r3, #0]
 478:.\Generated_Source\PSoC5/USB_std.c ****             CY_SET_REG8(&USB_ARB_RW1_WA_PTR[i],     USB_EP[ep].buffOffset & 0xFFu);
 920              		.loc 1 478 0
 921 016e FA79     		ldrb	r2, [r7, #7]	@ zero_extendqisi2
 922 0170 46F28403 		movw	r3, #:lower16:1073766532
 923 0174 C4F20003 		movt	r3, #:upper16:1073766532
 924 0178 1344     		add	r3, r2, r3
 925 017a B879     		ldrb	r0, [r7, #6]	@ zero_extendqisi2
 926 017c 40F20001 		movw	r1, #:lower16:USB_EP
 927 0180 C0F20001 		movt	r1, #:upper16:USB_EP
 928 0184 0246     		mov	r2, r0
 929 0186 4FEA4202 		lsl	r2, r2, #1
 930 018a 0244     		add	r2, r2, r0
 931 018c 4FEA8202 		lsl	r2, r2, #2
 932 0190 0A44     		add	r2, r2, r1
 933 0192 02F10602 		add	r2, r2, #6
 934 0196 1288     		ldrh	r2, [r2, #0]	@ movhi
 935 0198 92B2     		uxth	r2, r2
 936 019a D2B2     		uxtb	r2, r2
 937 019c 1A70     		strb	r2, [r3, #0]
 479:.\Generated_Source\PSoC5/USB_std.c ****             CY_SET_REG8(&USB_ARB_RW1_WA_MSB_PTR[i], USB_EP[ep].buffOffset >> 8u);
 938              		.loc 1 479 0
 939 019e FA79     		ldrb	r2, [r7, #7]	@ zero_extendqisi2
 940 01a0 46F28503 		movw	r3, #:lower16:1073766533
 941 01a4 C4F20003 		movt	r3, #:upper16:1073766533
 942 01a8 1344     		add	r3, r2, r3
ARM GAS  C:\Users\Craig\AppData\Local\Temp\cc9NnIsK.s 			page 26


 943 01aa B879     		ldrb	r0, [r7, #6]	@ zero_extendqisi2
 944 01ac 40F20001 		movw	r1, #:lower16:USB_EP
 945 01b0 C0F20001 		movt	r1, #:upper16:USB_EP
 946 01b4 0246     		mov	r2, r0
 947 01b6 4FEA4202 		lsl	r2, r2, #1
 948 01ba 0244     		add	r2, r2, r0
 949 01bc 4FEA8202 		lsl	r2, r2, #2
 950 01c0 0A44     		add	r2, r2, r1
 951 01c2 02F10602 		add	r2, r2, #6
 952 01c6 1288     		ldrh	r2, [r2, #0]	@ movhi
 953 01c8 92B2     		uxth	r2, r2
 954 01ca 4FEA1222 		lsr	r2, r2, #8
 955 01ce 92B2     		uxth	r2, r2
 956 01d0 D2B2     		uxtb	r2, r2
 957 01d2 1A70     		strb	r2, [r3, #0]
 480:.\Generated_Source\PSoC5/USB_std.c ****         #endif /* End USB_EP_MM != USB__EP_DMAAUTO */
 481:.\Generated_Source\PSoC5/USB_std.c **** 
 482:.\Generated_Source\PSoC5/USB_std.c ****         ep++;
 958              		.loc 1 482 0
 959 01d4 BB79     		ldrb	r3, [r7, #6]
 960 01d6 03F10103 		add	r3, r3, #1
 961 01da BB71     		strb	r3, [r7, #6]
 962              		.loc 1 442 0
 963 01dc FB79     		ldrb	r3, [r7, #7]
 964 01de 03F11003 		add	r3, r3, #16
 965 01e2 FB71     		strb	r3, [r7, #7]
 966              	.L51:
 967 01e4 FB79     		ldrb	r3, [r7, #7]	@ zero_extendqisi2
 968 01e6 5BB2     		sxtb	r3, r3
 969 01e8 002B     		cmp	r3, #0
 970 01ea BFF613AF 		bge	.L56
 483:.\Generated_Source\PSoC5/USB_std.c ****     }
 484:.\Generated_Source\PSoC5/USB_std.c **** 
 485:.\Generated_Source\PSoC5/USB_std.c ****     #if(USB_EP_MM == USB__EP_DMAAUTO)
 486:.\Generated_Source\PSoC5/USB_std.c ****          /* BUF_SIZE depend on DMA_THRESS value: 55-32 bytes  44-16 bytes 33-8 bytes 22-4 bytes 11-
 487:.\Generated_Source\PSoC5/USB_std.c ****         USB_BUF_SIZE_REG = USB_DMA_BUF_SIZE;
 488:.\Generated_Source\PSoC5/USB_std.c ****         USB_DMA_THRES_REG = USB_DMA_BYTES_PER_BURST;   /* DMA burst threshold */
 489:.\Generated_Source\PSoC5/USB_std.c ****         USB_DMA_THRES_MSB_REG = 0u;
 490:.\Generated_Source\PSoC5/USB_std.c ****         USB_EP_ACTIVE_REG = USB_ARB_INT_MASK;
 491:.\Generated_Source\PSoC5/USB_std.c ****         USB_EP_TYPE_REG = ep_type;
 492:.\Generated_Source\PSoC5/USB_std.c ****         /* Cfg_cmp bit set to 1 once configuration is complete. */
 493:.\Generated_Source\PSoC5/USB_std.c ****         USB_ARB_CFG_REG = USB_ARB_CFG_AUTO_DMA | USB_ARB_CFG_AUTO_MEM |
 494:.\Generated_Source\PSoC5/USB_std.c ****                                        USB_ARB_CFG_CFG_CPM;
 495:.\Generated_Source\PSoC5/USB_std.c ****         /* Cfg_cmp bit set to 0 during configuration of PFSUSB Registers. */
 496:.\Generated_Source\PSoC5/USB_std.c ****         USB_ARB_CFG_REG = USB_ARB_CFG_AUTO_DMA | USB_ARB_CFG_AUTO_MEM;
 497:.\Generated_Source\PSoC5/USB_std.c ****     #endif /* End USB_EP_MM == USB__EP_DMAAUTO */
 498:.\Generated_Source\PSoC5/USB_std.c **** 
 499:.\Generated_Source\PSoC5/USB_std.c ****     CY_SET_REG8(USB_SIE_EP_INT_EN_PTR, 0xFFu);
 971              		.loc 1 499 0
 972 01ee 46F20A03 		movw	r3, #:lower16:1073766410
 973 01f2 C4F20003 		movt	r3, #:upper16:1073766410
 974 01f6 4FF0FF32 		mov	r2, #-1
 975 01fa 1A70     		strb	r2, [r3, #0]
 500:.\Generated_Source\PSoC5/USB_std.c **** }
 976              		.loc 1 500 0
 977 01fc 07F10C07 		add	r7, r7, #12
 978 0200 BD46     		mov	sp, r7
ARM GAS  C:\Users\Craig\AppData\Local\Temp\cc9NnIsK.s 			page 27


 979 0202 80BC     		pop	{r7}
 980 0204 7047     		bx	lr
 981              		.cfi_endproc
 982              	.LFE2:
 983              		.size	USB_ConfigReg, .-USB_ConfigReg
 984 0206 00BF     		.section	.text.USB_Config,"ax",%progbits
 985              		.align	2
 986              		.global	USB_Config
 987              		.thumb
 988              		.thumb_func
 989              		.type	USB_Config, %function
 990              	USB_Config:
 991              	.LFB3:
 501:.\Generated_Source\PSoC5/USB_std.c **** 
 502:.\Generated_Source\PSoC5/USB_std.c **** 
 503:.\Generated_Source\PSoC5/USB_std.c **** /*******************************************************************************
 504:.\Generated_Source\PSoC5/USB_std.c **** * Function Name: USB_Config
 505:.\Generated_Source\PSoC5/USB_std.c **** ********************************************************************************
 506:.\Generated_Source\PSoC5/USB_std.c **** *
 507:.\Generated_Source\PSoC5/USB_std.c **** * Summary:
 508:.\Generated_Source\PSoC5/USB_std.c **** *  This routine configures endpoints for the entire configuration by scanning
 509:.\Generated_Source\PSoC5/USB_std.c **** *  the configuration descriptor.
 510:.\Generated_Source\PSoC5/USB_std.c **** *
 511:.\Generated_Source\PSoC5/USB_std.c **** * Parameters:
 512:.\Generated_Source\PSoC5/USB_std.c **** *  clearAltSetting: It configures the bAlternateSetting 0 for each interface.
 513:.\Generated_Source\PSoC5/USB_std.c **** *
 514:.\Generated_Source\PSoC5/USB_std.c **** * Return:
 515:.\Generated_Source\PSoC5/USB_std.c **** *  None.
 516:.\Generated_Source\PSoC5/USB_std.c **** *
 517:.\Generated_Source\PSoC5/USB_std.c **** * USB_interfaceClass - Initialized class array for each interface.
 518:.\Generated_Source\PSoC5/USB_std.c **** *   It is used for hangling Class specific requests depend on interface class.
 519:.\Generated_Source\PSoC5/USB_std.c **** *   Different classes in multiple Alternate settings does not supported.
 520:.\Generated_Source\PSoC5/USB_std.c **** *
 521:.\Generated_Source\PSoC5/USB_std.c **** * Reentrant:
 522:.\Generated_Source\PSoC5/USB_std.c **** *  No.
 523:.\Generated_Source\PSoC5/USB_std.c **** *
 524:.\Generated_Source\PSoC5/USB_std.c **** *******************************************************************************/
 525:.\Generated_Source\PSoC5/USB_std.c **** void USB_Config(uint8 clearAltSetting) 
 526:.\Generated_Source\PSoC5/USB_std.c **** {
 992              		.loc 1 526 0
 993              		.cfi_startproc
 994              		@ args = 0, pretend = 0, frame = 32
 995              		@ frame_needed = 1, uses_anonymous_args = 0
 996 0000 80B5     		push	{r7, lr}
 997              	.LCFI9:
 998              		.cfi_def_cfa_offset 8
 999 0002 88B0     		sub	sp, sp, #32
 1000              	.LCFI10:
 1001              		.cfi_def_cfa_offset 40
 1002 0004 00AF     		add	r7, sp, #0
 1003              		.cfi_offset 14, -4
 1004              		.cfi_offset 7, -8
 1005              	.LCFI11:
 1006              		.cfi_def_cfa_register 7
 1007 0006 0346     		mov	r3, r0
 1008 0008 FB71     		strb	r3, [r7, #7]
 527:.\Generated_Source\PSoC5/USB_std.c ****     uint8 ep;
ARM GAS  C:\Users\Craig\AppData\Local\Temp\cc9NnIsK.s 			page 28


 528:.\Generated_Source\PSoC5/USB_std.c ****     uint8 cur_ep;
 529:.\Generated_Source\PSoC5/USB_std.c ****     uint8 i;
 530:.\Generated_Source\PSoC5/USB_std.c ****     uint8 iso;
 531:.\Generated_Source\PSoC5/USB_std.c ****     uint8 *pDescr;
 532:.\Generated_Source\PSoC5/USB_std.c ****     #if(USB_EP_MM != USB__EP_DMAAUTO)
 533:.\Generated_Source\PSoC5/USB_std.c ****         uint16 count = 0u;
 1009              		.loc 1 533 0
 1010 000a 4FF00003 		mov	r3, #0
 1011 000e FB82     		strh	r3, [r7, #22]	@ movhi
 534:.\Generated_Source\PSoC5/USB_std.c ****     #endif /* End USB_EP_MM != USB__EP_DMAAUTO */
 535:.\Generated_Source\PSoC5/USB_std.c ****     
 536:.\Generated_Source\PSoC5/USB_std.c ****     T_USB_LUT *pTmp;
 537:.\Generated_Source\PSoC5/USB_std.c ****     T_USB_EP_SETTINGS_BLOCK *pEP;
 538:.\Generated_Source\PSoC5/USB_std.c **** 
 539:.\Generated_Source\PSoC5/USB_std.c ****     /* Clear all of the endpoints */
 540:.\Generated_Source\PSoC5/USB_std.c ****     for (ep = 0u; ep < USB_MAX_EP; ep++)
 1012              		.loc 1 540 0
 1013 0010 4FF00003 		mov	r3, #0
 1014 0014 3B73     		strb	r3, [r7, #12]
 1015 0016 70E0     		b	.L59
 1016              	.L60:
 541:.\Generated_Source\PSoC5/USB_std.c ****     {
 542:.\Generated_Source\PSoC5/USB_std.c ****         USB_EP[ep].attrib = 0u;
 1017              		.loc 1 542 0
 1018 0018 397B     		ldrb	r1, [r7, #12]	@ zero_extendqisi2
 1019 001a 40F20002 		movw	r2, #:lower16:USB_EP
 1020 001e C0F20002 		movt	r2, #:upper16:USB_EP
 1021 0022 0B46     		mov	r3, r1
 1022 0024 4FEA4303 		lsl	r3, r3, #1
 1023 0028 0B44     		add	r3, r3, r1
 1024 002a 4FEA8303 		lsl	r3, r3, #2
 1025 002e 1344     		add	r3, r3, r2
 1026 0030 4FF00002 		mov	r2, #0
 1027 0034 1A70     		strb	r2, [r3, #0]
 543:.\Generated_Source\PSoC5/USB_std.c ****         USB_EP[ep].hwEpState = 0u;
 1028              		.loc 1 543 0
 1029 0036 397B     		ldrb	r1, [r7, #12]	@ zero_extendqisi2
 1030 0038 40F20002 		movw	r2, #:lower16:USB_EP
 1031 003c C0F20002 		movt	r2, #:upper16:USB_EP
 1032 0040 0B46     		mov	r3, r1
 1033 0042 4FEA4303 		lsl	r3, r3, #1
 1034 0046 0B44     		add	r3, r3, r1
 1035 0048 4FEA8303 		lsl	r3, r3, #2
 1036 004c 1344     		add	r3, r3, r2
 1037 004e 4FF00002 		mov	r2, #0
 1038 0052 9A70     		strb	r2, [r3, #2]
 544:.\Generated_Source\PSoC5/USB_std.c ****         USB_EP[ep].apiEpState = USB_NO_EVENT_PENDING;
 1039              		.loc 1 544 0
 1040 0054 397B     		ldrb	r1, [r7, #12]	@ zero_extendqisi2
 1041 0056 40F20002 		movw	r2, #:lower16:USB_EP
 1042 005a C0F20002 		movt	r2, #:upper16:USB_EP
 1043 005e 0B46     		mov	r3, r1
 1044 0060 4FEA4303 		lsl	r3, r3, #1
 1045 0064 0B44     		add	r3, r3, r1
 1046 0066 4FEA8303 		lsl	r3, r3, #2
 1047 006a 1344     		add	r3, r3, r2
 1048 006c 4FF00002 		mov	r2, #0
ARM GAS  C:\Users\Craig\AppData\Local\Temp\cc9NnIsK.s 			page 29


 1049 0070 5A70     		strb	r2, [r3, #1]
 545:.\Generated_Source\PSoC5/USB_std.c ****         USB_EP[ep].epToggle = 0u;
 1050              		.loc 1 545 0
 1051 0072 397B     		ldrb	r1, [r7, #12]	@ zero_extendqisi2
 1052 0074 40F20002 		movw	r2, #:lower16:USB_EP
 1053 0078 C0F20002 		movt	r2, #:upper16:USB_EP
 1054 007c 0B46     		mov	r3, r1
 1055 007e 4FEA4303 		lsl	r3, r3, #1
 1056 0082 0B44     		add	r3, r3, r1
 1057 0084 4FEA8303 		lsl	r3, r3, #2
 1058 0088 1344     		add	r3, r3, r2
 1059 008a 4FF00002 		mov	r2, #0
 1060 008e DA70     		strb	r2, [r3, #3]
 546:.\Generated_Source\PSoC5/USB_std.c ****         USB_EP[ep].epMode = USB_MODE_DISABLE;
 1061              		.loc 1 546 0
 1062 0090 397B     		ldrb	r1, [r7, #12]	@ zero_extendqisi2
 1063 0092 40F20002 		movw	r2, #:lower16:USB_EP
 1064 0096 C0F20002 		movt	r2, #:upper16:USB_EP
 1065 009a 0B46     		mov	r3, r1
 1066 009c 4FEA4303 		lsl	r3, r3, #1
 1067 00a0 0B44     		add	r3, r3, r1
 1068 00a2 4FEA8303 		lsl	r3, r3, #2
 1069 00a6 1344     		add	r3, r3, r2
 1070 00a8 4FF00002 		mov	r2, #0
 1071 00ac 5A71     		strb	r2, [r3, #5]
 547:.\Generated_Source\PSoC5/USB_std.c ****         USB_EP[ep].bufferSize = 0u;
 1072              		.loc 1 547 0
 1073 00ae 397B     		ldrb	r1, [r7, #12]	@ zero_extendqisi2
 1074 00b0 40F20002 		movw	r2, #:lower16:USB_EP
 1075 00b4 C0F20002 		movt	r2, #:upper16:USB_EP
 1076 00b8 0B46     		mov	r3, r1
 1077 00ba 4FEA4303 		lsl	r3, r3, #1
 1078 00be 0B44     		add	r3, r3, r1
 1079 00c0 4FEA8303 		lsl	r3, r3, #2
 1080 00c4 1344     		add	r3, r3, r2
 1081 00c6 03F10803 		add	r3, r3, #8
 1082 00ca 4FF00002 		mov	r2, #0
 1083 00ce 1A80     		strh	r2, [r3, #0]	@ movhi
 548:.\Generated_Source\PSoC5/USB_std.c ****         USB_EP[ep].interface = 0u;
 1084              		.loc 1 548 0
 1085 00d0 397B     		ldrb	r1, [r7, #12]	@ zero_extendqisi2
 1086 00d2 40F20002 		movw	r2, #:lower16:USB_EP
 1087 00d6 C0F20002 		movt	r2, #:upper16:USB_EP
 1088 00da 0B46     		mov	r3, r1
 1089 00dc 4FEA4303 		lsl	r3, r3, #1
 1090 00e0 0B44     		add	r3, r3, r1
 1091 00e2 4FEA8303 		lsl	r3, r3, #2
 1092 00e6 1344     		add	r3, r3, r2
 1093 00e8 03F10803 		add	r3, r3, #8
 1094 00ec 4FF00002 		mov	r2, #0
 1095 00f0 9A70     		strb	r2, [r3, #2]
 1096              		.loc 1 540 0
 1097 00f2 3B7B     		ldrb	r3, [r7, #12]
 1098 00f4 03F10103 		add	r3, r3, #1
 1099 00f8 3B73     		strb	r3, [r7, #12]
 1100              	.L59:
 1101 00fa 3B7B     		ldrb	r3, [r7, #12]	@ zero_extendqisi2
ARM GAS  C:\Users\Craig\AppData\Local\Temp\cc9NnIsK.s 			page 30


 1102 00fc 082B     		cmp	r3, #8
 1103 00fe 8BD9     		bls	.L60
 549:.\Generated_Source\PSoC5/USB_std.c **** 
 550:.\Generated_Source\PSoC5/USB_std.c ****     }
 551:.\Generated_Source\PSoC5/USB_std.c **** 
 552:.\Generated_Source\PSoC5/USB_std.c ****     /* Clear Alternate settings for all interfaces */
 553:.\Generated_Source\PSoC5/USB_std.c ****     if(clearAltSetting != 0u)
 1104              		.loc 1 553 0
 1105 0100 FB79     		ldrb	r3, [r7, #7]	@ zero_extendqisi2
 1106 0102 002B     		cmp	r3, #0
 1107 0104 1AD0     		beq	.L61
 554:.\Generated_Source\PSoC5/USB_std.c ****     {
 555:.\Generated_Source\PSoC5/USB_std.c ****         for (i = 0u; i < USB_MAX_INTERFACES_NUMBER; i++)
 1108              		.loc 1 555 0
 1109 0106 4FF00003 		mov	r3, #0
 1110 010a BB73     		strb	r3, [r7, #14]
 1111 010c 13E0     		b	.L62
 1112              	.L63:
 556:.\Generated_Source\PSoC5/USB_std.c ****         {
 557:.\Generated_Source\PSoC5/USB_std.c ****             USB_interfaceSetting[i] = 0x00u;
 1113              		.loc 1 557 0
 1114 010e BA7B     		ldrb	r2, [r7, #14]	@ zero_extendqisi2
 1115 0110 40F20003 		movw	r3, #:lower16:USB_interfaceSetting
 1116 0114 C0F20003 		movt	r3, #:upper16:USB_interfaceSetting
 1117 0118 4FF00001 		mov	r1, #0
 1118 011c 9954     		strb	r1, [r3, r2]
 558:.\Generated_Source\PSoC5/USB_std.c ****             USB_interfaceSetting_last[i] = 0x00u;
 1119              		.loc 1 558 0
 1120 011e BA7B     		ldrb	r2, [r7, #14]	@ zero_extendqisi2
 1121 0120 40F20003 		movw	r3, #:lower16:USB_interfaceSetting_last
 1122 0124 C0F20003 		movt	r3, #:upper16:USB_interfaceSetting_last
 1123 0128 4FF00001 		mov	r1, #0
 1124 012c 9954     		strb	r1, [r3, r2]
 1125              		.loc 1 555 0
 1126 012e BB7B     		ldrb	r3, [r7, #14]
 1127 0130 03F10103 		add	r3, r3, #1
 1128 0134 BB73     		strb	r3, [r7, #14]
 1129              	.L62:
 1130 0136 BB7B     		ldrb	r3, [r7, #14]	@ zero_extendqisi2
 1131 0138 002B     		cmp	r3, #0
 1132 013a E8D0     		beq	.L63
 1133              	.L61:
 559:.\Generated_Source\PSoC5/USB_std.c ****         }
 560:.\Generated_Source\PSoC5/USB_std.c ****     }
 561:.\Generated_Source\PSoC5/USB_std.c **** 
 562:.\Generated_Source\PSoC5/USB_std.c ****     /* Init Endpoints and Device Status if configured */
 563:.\Generated_Source\PSoC5/USB_std.c ****     if(USB_configuration > 0u)
 1134              		.loc 1 563 0
 1135 013c 40F20003 		movw	r3, #:lower16:USB_configuration
 1136 0140 C0F20003 		movt	r3, #:upper16:USB_configuration
 1137 0144 1B78     		ldrb	r3, [r3, #0]
 1138 0146 DBB2     		uxtb	r3, r3
 1139 0148 002B     		cmp	r3, #0
 1140 014a 00F07181 		beq	.L83
 564:.\Generated_Source\PSoC5/USB_std.c ****     {
 565:.\Generated_Source\PSoC5/USB_std.c ****         pTmp = USB_GetConfigTablePtr(USB_configuration - 1u);
 1141              		.loc 1 565 0
ARM GAS  C:\Users\Craig\AppData\Local\Temp\cc9NnIsK.s 			page 31


 1142 014e 40F20003 		movw	r3, #:lower16:USB_configuration
 1143 0152 C0F20003 		movt	r3, #:upper16:USB_configuration
 1144 0156 1B78     		ldrb	r3, [r3, #0]
 1145 0158 DBB2     		uxtb	r3, r3
 1146 015a 03F1FF33 		add	r3, r3, #-1
 1147 015e DBB2     		uxtb	r3, r3
 1148 0160 1846     		mov	r0, r3
 1149 0162 FFF7FEFF 		bl	USB_GetConfigTablePtr
 1150 0166 0346     		mov	r3, r0
 1151 0168 BB61     		str	r3, [r7, #24]
 566:.\Generated_Source\PSoC5/USB_std.c ****         /* Set Power status for current configuration */
 567:.\Generated_Source\PSoC5/USB_std.c ****         pDescr = (uint8 *)pTmp->p_list;
 1152              		.loc 1 567 0
 1153 016a BB69     		ldr	r3, [r7, #24]
 1154 016c 5B68     		ldr	r3, [r3, #4]
 1155 016e 3B61     		str	r3, [r7, #16]
 568:.\Generated_Source\PSoC5/USB_std.c ****         if((pDescr[USB_CONFIG_DESCR_ATTRIB] & USB_CONFIG_DESCR_ATTRIB_SELF_POWERED) != 0u)
 1156              		.loc 1 568 0
 1157 0170 3B69     		ldr	r3, [r7, #16]
 1158 0172 03F10703 		add	r3, r3, #7
 1159 0176 1B78     		ldrb	r3, [r3, #0]	@ zero_extendqisi2
 1160 0178 03F04003 		and	r3, r3, #64
 1161 017c 002B     		cmp	r3, #0
 1162 017e 0ED0     		beq	.L65
 569:.\Generated_Source\PSoC5/USB_std.c ****         {
 570:.\Generated_Source\PSoC5/USB_std.c ****             USB_deviceStatus |=  USB_DEVICE_STATUS_SELF_POWERED;
 1163              		.loc 1 570 0
 1164 0180 40F20003 		movw	r3, #:lower16:USB_deviceStatus
 1165 0184 C0F20003 		movt	r3, #:upper16:USB_deviceStatus
 1166 0188 1B78     		ldrb	r3, [r3, #0]
 1167 018a DBB2     		uxtb	r3, r3
 1168 018c 43F00103 		orr	r3, r3, #1
 1169 0190 DAB2     		uxtb	r2, r3
 1170 0192 40F20003 		movw	r3, #:lower16:USB_deviceStatus
 1171 0196 C0F20003 		movt	r3, #:upper16:USB_deviceStatus
 1172 019a 1A70     		strb	r2, [r3, #0]
 1173 019c 0DE0     		b	.L66
 1174              	.L65:
 571:.\Generated_Source\PSoC5/USB_std.c ****         }
 572:.\Generated_Source\PSoC5/USB_std.c ****         else
 573:.\Generated_Source\PSoC5/USB_std.c ****         {
 574:.\Generated_Source\PSoC5/USB_std.c ****             USB_deviceStatus &=  ~USB_DEVICE_STATUS_SELF_POWERED;
 1175              		.loc 1 574 0
 1176 019e 40F20003 		movw	r3, #:lower16:USB_deviceStatus
 1177 01a2 C0F20003 		movt	r3, #:upper16:USB_deviceStatus
 1178 01a6 1B78     		ldrb	r3, [r3, #0]
 1179 01a8 DBB2     		uxtb	r3, r3
 1180 01aa 1A46     		mov	r2, r3
 1181 01ac 02F0FE02 		and	r2, r2, #254
 1182 01b0 40F20003 		movw	r3, #:lower16:USB_deviceStatus
 1183 01b4 C0F20003 		movt	r3, #:upper16:USB_deviceStatus
 1184 01b8 1A70     		strb	r2, [r3, #0]
 1185              	.L66:
 575:.\Generated_Source\PSoC5/USB_std.c ****         }
 576:.\Generated_Source\PSoC5/USB_std.c ****         pTmp++;
 1186              		.loc 1 576 0
 1187 01ba BB69     		ldr	r3, [r7, #24]
ARM GAS  C:\Users\Craig\AppData\Local\Temp\cc9NnIsK.s 			page 32


 1188 01bc 03F10803 		add	r3, r3, #8
 1189 01c0 BB61     		str	r3, [r7, #24]
 577:.\Generated_Source\PSoC5/USB_std.c ****         ep = pTmp->c;  /* For this table, c is the number of endpoints configurations  */
 1190              		.loc 1 577 0
 1191 01c2 BB69     		ldr	r3, [r7, #24]
 1192 01c4 1B78     		ldrb	r3, [r3, #0]
 1193 01c6 3B73     		strb	r3, [r7, #12]
 578:.\Generated_Source\PSoC5/USB_std.c **** 
 579:.\Generated_Source\PSoC5/USB_std.c ****         #if ((USB_EP_MA == USB__MA_DYNAMIC) && \
 580:.\Generated_Source\PSoC5/USB_std.c ****              (USB_EP_MM == USB__EP_MANUAL) )
 581:.\Generated_Source\PSoC5/USB_std.c ****             /* Config for dynamic EP memory allocation */
 582:.\Generated_Source\PSoC5/USB_std.c ****             /* p_list points the endpoint setting table. */
 583:.\Generated_Source\PSoC5/USB_std.c ****             pEP = (T_USB_EP_SETTINGS_BLOCK *) pTmp->p_list;
 584:.\Generated_Source\PSoC5/USB_std.c ****             for (i = 0u; i < ep; i++, pEP++)
 585:.\Generated_Source\PSoC5/USB_std.c ****             {
 586:.\Generated_Source\PSoC5/USB_std.c ****                 /* compate current Alternate setting with EP Alt*/
 587:.\Generated_Source\PSoC5/USB_std.c ****                 if(USB_interfaceSetting[pEP->interface] == pEP->altSetting)
 588:.\Generated_Source\PSoC5/USB_std.c ****                 {
 589:.\Generated_Source\PSoC5/USB_std.c ****                     cur_ep = pEP->addr & USB_DIR_UNUSED;
 590:.\Generated_Source\PSoC5/USB_std.c ****                     iso  = ((pEP->attributes & USB_EP_TYPE_MASK) == USB_EP_TYPE_ISOC);
 591:.\Generated_Source\PSoC5/USB_std.c ****                     if (pEP->addr & USB_DIR_IN)
 592:.\Generated_Source\PSoC5/USB_std.c ****                     {
 593:.\Generated_Source\PSoC5/USB_std.c ****                         /* IN Endpoint */
 594:.\Generated_Source\PSoC5/USB_std.c ****                         USB_EP[cur_ep].apiEpState = USB_EVENT_PENDING;
 595:.\Generated_Source\PSoC5/USB_std.c ****                         USB_EP[cur_ep].epMode = \
 596:.\Generated_Source\PSoC5/USB_std.c ****                                                 (iso ? USB_MODE_ISO_IN : USB_MODE_ACK_IN);
 597:.\Generated_Source\PSoC5/USB_std.c ****                         #if defined(USB_ENABLE_CDC_CLASS)
 598:.\Generated_Source\PSoC5/USB_std.c ****                             if(((pEP->bMisc == USB_CLASS_CDC_DATA) ||
 599:.\Generated_Source\PSoC5/USB_std.c ****                                 (pEP->bMisc == USB_CLASS_CDC)) &&
 600:.\Generated_Source\PSoC5/USB_std.c ****                                 ((pEP->attributes & USB_EP_TYPE_MASK) != USB_EP_TYPE_INT))
 601:.\Generated_Source\PSoC5/USB_std.c ****                             {
 602:.\Generated_Source\PSoC5/USB_std.c ****                                 USB_cdc_data_in_ep = cur_ep;
 603:.\Generated_Source\PSoC5/USB_std.c ****                             }
 604:.\Generated_Source\PSoC5/USB_std.c ****                         #endif  /* End USB_ENABLE_CDC_CLASS*/
 605:.\Generated_Source\PSoC5/USB_std.c ****                         #if defined(USB_ENABLE_MIDI_STREAMING)
 606:.\Generated_Source\PSoC5/USB_std.c ****                             if((pEP->bMisc == USB_CLASS_AUDIO) &&
 607:.\Generated_Source\PSoC5/USB_std.c ****                                ((pEP->attributes & USB_EP_TYPE_MASK) == USB_EP_TYPE_BULK))
 608:.\Generated_Source\PSoC5/USB_std.c ****                             {
 609:.\Generated_Source\PSoC5/USB_std.c ****                                 USB_midi_in_ep = cur_ep;
 610:.\Generated_Source\PSoC5/USB_std.c ****                             }
 611:.\Generated_Source\PSoC5/USB_std.c ****                         #endif  /* End USB_ENABLE_MIDI_STREAMING*/
 612:.\Generated_Source\PSoC5/USB_std.c ****                     }
 613:.\Generated_Source\PSoC5/USB_std.c ****                     else
 614:.\Generated_Source\PSoC5/USB_std.c ****                     {
 615:.\Generated_Source\PSoC5/USB_std.c ****                         /* OUT Endpoint */
 616:.\Generated_Source\PSoC5/USB_std.c ****                         USB_EP[cur_ep].apiEpState = USB_NO_EVENT_PENDING;
 617:.\Generated_Source\PSoC5/USB_std.c ****                         USB_EP[cur_ep].epMode = \
 618:.\Generated_Source\PSoC5/USB_std.c ****                                                 (iso ? USB_MODE_ISO_OUT : USB_MODE_ACK_OUT);
 619:.\Generated_Source\PSoC5/USB_std.c ****                         #if defined(USB_ENABLE_CDC_CLASS)
 620:.\Generated_Source\PSoC5/USB_std.c ****                             if(((pEP->bMisc == USB_CLASS_CDC_DATA) ||
 621:.\Generated_Source\PSoC5/USB_std.c ****                                 (pEP->bMisc == USB_CLASS_CDC)) &&
 622:.\Generated_Source\PSoC5/USB_std.c ****                                 ((pEP->attributes & USB_EP_TYPE_MASK) != USB_EP_TYPE_INT))
 623:.\Generated_Source\PSoC5/USB_std.c ****                             {
 624:.\Generated_Source\PSoC5/USB_std.c ****                                 USB_cdc_data_out_ep = cur_ep;
 625:.\Generated_Source\PSoC5/USB_std.c ****                             }
 626:.\Generated_Source\PSoC5/USB_std.c ****                         #endif  /* End USB_ENABLE_CDC_CLASS*/
 627:.\Generated_Source\PSoC5/USB_std.c ****                         #if defined(USB_ENABLE_MIDI_STREAMING)
ARM GAS  C:\Users\Craig\AppData\Local\Temp\cc9NnIsK.s 			page 33


 628:.\Generated_Source\PSoC5/USB_std.c ****                             if((pEP->bMisc == USB_CLASS_AUDIO) &&
 629:.\Generated_Source\PSoC5/USB_std.c ****                                ((pEP->attributes & USB_EP_TYPE_MASK) == USB_EP_TYPE_BULK))
 630:.\Generated_Source\PSoC5/USB_std.c ****                             {
 631:.\Generated_Source\PSoC5/USB_std.c ****                                 USB_midi_out_ep = cur_ep;
 632:.\Generated_Source\PSoC5/USB_std.c ****                             }
 633:.\Generated_Source\PSoC5/USB_std.c ****                         #endif  /* End USB_ENABLE_MIDI_STREAMING*/
 634:.\Generated_Source\PSoC5/USB_std.c ****                     }
 635:.\Generated_Source\PSoC5/USB_std.c ****                     USB_EP[cur_ep].bufferSize = pEP->bufferSize;
 636:.\Generated_Source\PSoC5/USB_std.c ****                     USB_EP[cur_ep].addr = pEP->addr;
 637:.\Generated_Source\PSoC5/USB_std.c ****                     USB_EP[cur_ep].attrib = pEP->attributes;
 638:.\Generated_Source\PSoC5/USB_std.c ****                 }
 639:.\Generated_Source\PSoC5/USB_std.c ****             }
 640:.\Generated_Source\PSoC5/USB_std.c ****         #else /* Config for static EP memory allocation  */
 641:.\Generated_Source\PSoC5/USB_std.c ****             for (i = USB_EP1; i < USB_MAX_EP; i++)
 1194              		.loc 1 641 0
 1195 01c8 4FF00103 		mov	r3, #1
 1196 01cc BB73     		strb	r3, [r7, #14]
 1197 01ce CBE0     		b	.L67
 1198              	.L78:
 642:.\Generated_Source\PSoC5/USB_std.c ****             {
 643:.\Generated_Source\PSoC5/USB_std.c ****                 /* and p_list points the endpoint setting table. */
 644:.\Generated_Source\PSoC5/USB_std.c ****                 pEP = (T_USB_EP_SETTINGS_BLOCK *) pTmp->p_list;
 1199              		.loc 1 644 0
 1200 01d0 BB69     		ldr	r3, [r7, #24]
 1201 01d2 5B68     		ldr	r3, [r3, #4]
 1202 01d4 FB61     		str	r3, [r7, #28]
 645:.\Generated_Source\PSoC5/USB_std.c ****                 /* find max length for each EP and select it (length could be different in differen
 646:.\Generated_Source\PSoC5/USB_std.c ****                 /* but other settings should be correct with regards to Interface alt Setting */
 647:.\Generated_Source\PSoC5/USB_std.c ****                 for (cur_ep = 0u; cur_ep < ep; cur_ep++, pEP++)
 1203              		.loc 1 647 0
 1204 01d6 4FF00003 		mov	r3, #0
 1205 01da 7B73     		strb	r3, [r7, #13]
 1206 01dc BBE0     		b	.L68
 1207              	.L77:
 648:.\Generated_Source\PSoC5/USB_std.c ****                 {
 649:.\Generated_Source\PSoC5/USB_std.c ****                     /* EP count is equal to EP # in table and we found larger EP length than have b
 650:.\Generated_Source\PSoC5/USB_std.c ****                     if(i == (pEP->addr & USB_DIR_UNUSED))
 1208              		.loc 1 650 0
 1209 01de BA7B     		ldrb	r2, [r7, #14]	@ zero_extendqisi2
 1210 01e0 FB69     		ldr	r3, [r7, #28]
 1211 01e2 9B78     		ldrb	r3, [r3, #2]	@ zero_extendqisi2
 1212 01e4 03F07F03 		and	r3, r3, #127
 1213 01e8 9A42     		cmp	r2, r3
 1214 01ea 40F0AC80 		bne	.L69
 651:.\Generated_Source\PSoC5/USB_std.c ****                     {
 652:.\Generated_Source\PSoC5/USB_std.c ****                         if(USB_EP[i].bufferSize < pEP->bufferSize)
 1215              		.loc 1 652 0
 1216 01ee B97B     		ldrb	r1, [r7, #14]	@ zero_extendqisi2
 1217 01f0 40F20002 		movw	r2, #:lower16:USB_EP
 1218 01f4 C0F20002 		movt	r2, #:upper16:USB_EP
 1219 01f8 0B46     		mov	r3, r1
 1220 01fa 4FEA4303 		lsl	r3, r3, #1
 1221 01fe 0B44     		add	r3, r3, r1
 1222 0200 4FEA8303 		lsl	r3, r3, #2
 1223 0204 1344     		add	r3, r3, r2
 1224 0206 03F10803 		add	r3, r3, #8
 1225 020a 1B88     		ldrh	r3, [r3, #0]	@ movhi
ARM GAS  C:\Users\Craig\AppData\Local\Temp\cc9NnIsK.s 			page 34


 1226 020c 9AB2     		uxth	r2, r3
 1227 020e FB69     		ldr	r3, [r7, #28]
 1228 0210 9B88     		ldrh	r3, [r3, #4]
 1229 0212 9A42     		cmp	r2, r3
 1230 0214 11D2     		bcs	.L70
 653:.\Generated_Source\PSoC5/USB_std.c ****                         {
 654:.\Generated_Source\PSoC5/USB_std.c ****                             USB_EP[i].bufferSize = pEP->bufferSize;
 1231              		.loc 1 654 0
 1232 0216 B97B     		ldrb	r1, [r7, #14]	@ zero_extendqisi2
 1233 0218 FB69     		ldr	r3, [r7, #28]
 1234 021a 9888     		ldrh	r0, [r3, #4]
 1235 021c 40F20002 		movw	r2, #:lower16:USB_EP
 1236 0220 C0F20002 		movt	r2, #:upper16:USB_EP
 1237 0224 0B46     		mov	r3, r1
 1238 0226 4FEA4303 		lsl	r3, r3, #1
 1239 022a 0B44     		add	r3, r3, r1
 1240 022c 4FEA8303 		lsl	r3, r3, #2
 1241 0230 1344     		add	r3, r3, r2
 1242 0232 03F10803 		add	r3, r3, #8
 1243 0236 0246     		mov	r2, r0	@ movhi
 1244 0238 1A80     		strh	r2, [r3, #0]	@ movhi
 1245              	.L70:
 655:.\Generated_Source\PSoC5/USB_std.c ****                         }
 656:.\Generated_Source\PSoC5/USB_std.c ****                         /* compate current Alternate setting with EP Alt*/
 657:.\Generated_Source\PSoC5/USB_std.c ****                         if(USB_interfaceSetting[pEP->interface] == pEP->altSetting)
 1246              		.loc 1 657 0
 1247 023a FB69     		ldr	r3, [r7, #28]
 1248 023c 1B78     		ldrb	r3, [r3, #0]	@ zero_extendqisi2
 1249 023e 1A46     		mov	r2, r3
 1250 0240 40F20003 		movw	r3, #:lower16:USB_interfaceSetting
 1251 0244 C0F20003 		movt	r3, #:upper16:USB_interfaceSetting
 1252 0248 9B5C     		ldrb	r3, [r3, r2]
 1253 024a DAB2     		uxtb	r2, r3
 1254 024c FB69     		ldr	r3, [r7, #28]
 1255 024e 5B78     		ldrb	r3, [r3, #1]	@ zero_extendqisi2
 1256 0250 9A42     		cmp	r2, r3
 1257 0252 78D1     		bne	.L69
 658:.\Generated_Source\PSoC5/USB_std.c ****                         {
 659:.\Generated_Source\PSoC5/USB_std.c ****                             iso  = ((pEP->attributes & USB_EP_TYPE_MASK) == USB_EP_TYPE_ISOC);
 1258              		.loc 1 659 0
 1259 0254 FB69     		ldr	r3, [r7, #28]
 1260 0256 DB78     		ldrb	r3, [r3, #3]	@ zero_extendqisi2
 1261 0258 03F00303 		and	r3, r3, #3
 1262 025c 012B     		cmp	r3, #1
 1263 025e 14BF     		ite	ne
 1264 0260 0023     		movne	r3, #0
 1265 0262 0123     		moveq	r3, #1
 1266 0264 FB73     		strb	r3, [r7, #15]
 660:.\Generated_Source\PSoC5/USB_std.c ****                             if (pEP->addr & USB_DIR_IN)
 1267              		.loc 1 660 0
 1268 0266 FB69     		ldr	r3, [r7, #28]
 1269 0268 9B78     		ldrb	r3, [r3, #2]	@ zero_extendqisi2
 1270 026a 5BB2     		sxtb	r3, r3
 1271 026c 002B     		cmp	r3, #0
 1272 026e 25DA     		bge	.L71
 661:.\Generated_Source\PSoC5/USB_std.c ****                             {
 662:.\Generated_Source\PSoC5/USB_std.c ****                                 /* IN Endpoint */
ARM GAS  C:\Users\Craig\AppData\Local\Temp\cc9NnIsK.s 			page 35


 663:.\Generated_Source\PSoC5/USB_std.c ****                                 USB_EP[i].apiEpState = USB_EVENT_PENDING;
 1273              		.loc 1 663 0
 1274 0270 B97B     		ldrb	r1, [r7, #14]	@ zero_extendqisi2
 1275 0272 40F20002 		movw	r2, #:lower16:USB_EP
 1276 0276 C0F20002 		movt	r2, #:upper16:USB_EP
 1277 027a 0B46     		mov	r3, r1
 1278 027c 4FEA4303 		lsl	r3, r3, #1
 1279 0280 0B44     		add	r3, r3, r1
 1280 0282 4FEA8303 		lsl	r3, r3, #2
 1281 0286 1344     		add	r3, r3, r2
 1282 0288 4FF00102 		mov	r2, #1
 1283 028c 5A70     		strb	r2, [r3, #1]
 664:.\Generated_Source\PSoC5/USB_std.c ****                                 USB_EP[i].epMode =
 1284              		.loc 1 664 0
 1285 028e B87B     		ldrb	r0, [r7, #14]	@ zero_extendqisi2
 1286 0290 FB7B     		ldrb	r3, [r7, #15]	@ zero_extendqisi2
 1287 0292 002B     		cmp	r3, #0
 1288 0294 02D0     		beq	.L72
 1289 0296 4FF00701 		mov	r1, #7
 1290 029a 01E0     		b	.L73
 1291              	.L72:
 1292 029c 4FF00D01 		mov	r1, #13
 1293              	.L73:
 1294 02a0 40F20002 		movw	r2, #:lower16:USB_EP
 1295 02a4 C0F20002 		movt	r2, #:upper16:USB_EP
 1296 02a8 0346     		mov	r3, r0
 1297 02aa 4FEA4303 		lsl	r3, r3, #1
 1298 02ae 0344     		add	r3, r3, r0
 1299 02b0 4FEA8303 		lsl	r3, r3, #2
 1300 02b4 1344     		add	r3, r3, r2
 1301 02b6 0A46     		mov	r2, r1
 1302 02b8 5A71     		strb	r2, [r3, #5]
 1303 02ba 24E0     		b	.L74
 1304              	.L71:
 665:.\Generated_Source\PSoC5/USB_std.c ****                                                     (iso ? USB_MODE_ISO_IN : USB_MODE_ACK_IN);
 666:.\Generated_Source\PSoC5/USB_std.c ****                                 /* Find and init CDC IN endpoint number */
 667:.\Generated_Source\PSoC5/USB_std.c ****                                 #if defined(USB_ENABLE_CDC_CLASS)
 668:.\Generated_Source\PSoC5/USB_std.c ****                                     if(((pEP->bMisc == USB_CLASS_CDC_DATA) ||
 669:.\Generated_Source\PSoC5/USB_std.c ****                                         (pEP->bMisc == USB_CLASS_CDC)) &&
 670:.\Generated_Source\PSoC5/USB_std.c ****                                         ((pEP->attributes & USB_EP_TYPE_MASK) !=
 671:.\Generated_Source\PSoC5/USB_std.c ****                                                                                         USB_EP_TYPE
 672:.\Generated_Source\PSoC5/USB_std.c ****                                     {
 673:.\Generated_Source\PSoC5/USB_std.c ****                                         USB_cdc_data_in_ep = i;
 674:.\Generated_Source\PSoC5/USB_std.c ****                                     }
 675:.\Generated_Source\PSoC5/USB_std.c ****                                 #endif  /* End USB_ENABLE_CDC_CLASS*/
 676:.\Generated_Source\PSoC5/USB_std.c ****                                 #if defined(USB_ENABLE_MIDI_STREAMING)
 677:.\Generated_Source\PSoC5/USB_std.c ****                                     if((pEP->bMisc == USB_CLASS_AUDIO) &&
 678:.\Generated_Source\PSoC5/USB_std.c ****                                        ((pEP->attributes & USB_EP_TYPE_MASK) ==
 679:.\Generated_Source\PSoC5/USB_std.c ****                                                                                         USB_EP_TYPE
 680:.\Generated_Source\PSoC5/USB_std.c ****                                     {
 681:.\Generated_Source\PSoC5/USB_std.c ****                                         USB_midi_in_ep = i;
 682:.\Generated_Source\PSoC5/USB_std.c ****                                     }
 683:.\Generated_Source\PSoC5/USB_std.c ****                                 #endif  /* End USB_ENABLE_MIDI_STREAMING*/
 684:.\Generated_Source\PSoC5/USB_std.c ****                             }
 685:.\Generated_Source\PSoC5/USB_std.c ****                             else
 686:.\Generated_Source\PSoC5/USB_std.c ****                             {
 687:.\Generated_Source\PSoC5/USB_std.c ****                                 /* OUT Endpoint */
ARM GAS  C:\Users\Craig\AppData\Local\Temp\cc9NnIsK.s 			page 36


 688:.\Generated_Source\PSoC5/USB_std.c ****                                 USB_EP[i].apiEpState = USB_NO_EVENT_PENDING;
 1305              		.loc 1 688 0
 1306 02bc B97B     		ldrb	r1, [r7, #14]	@ zero_extendqisi2
 1307 02be 40F20002 		movw	r2, #:lower16:USB_EP
 1308 02c2 C0F20002 		movt	r2, #:upper16:USB_EP
 1309 02c6 0B46     		mov	r3, r1
 1310 02c8 4FEA4303 		lsl	r3, r3, #1
 1311 02cc 0B44     		add	r3, r3, r1
 1312 02ce 4FEA8303 		lsl	r3, r3, #2
 1313 02d2 1344     		add	r3, r3, r2
 1314 02d4 4FF00002 		mov	r2, #0
 1315 02d8 5A70     		strb	r2, [r3, #1]
 689:.\Generated_Source\PSoC5/USB_std.c ****                                 USB_EP[i].epMode =
 1316              		.loc 1 689 0
 1317 02da B87B     		ldrb	r0, [r7, #14]	@ zero_extendqisi2
 1318 02dc FB7B     		ldrb	r3, [r7, #15]	@ zero_extendqisi2
 1319 02de 002B     		cmp	r3, #0
 1320 02e0 02D0     		beq	.L75
 1321 02e2 4FF00501 		mov	r1, #5
 1322 02e6 01E0     		b	.L76
 1323              	.L75:
 1324 02e8 4FF00901 		mov	r1, #9
 1325              	.L76:
 1326 02ec 40F20002 		movw	r2, #:lower16:USB_EP
 1327 02f0 C0F20002 		movt	r2, #:upper16:USB_EP
 1328 02f4 0346     		mov	r3, r0
 1329 02f6 4FEA4303 		lsl	r3, r3, #1
 1330 02fa 0344     		add	r3, r3, r0
 1331 02fc 4FEA8303 		lsl	r3, r3, #2
 1332 0300 1344     		add	r3, r3, r2
 1333 0302 0A46     		mov	r2, r1
 1334 0304 5A71     		strb	r2, [r3, #5]
 1335              	.L74:
 690:.\Generated_Source\PSoC5/USB_std.c ****                                                 (iso ? USB_MODE_ISO_OUT : USB_MODE_ACK_OUT);
 691:.\Generated_Source\PSoC5/USB_std.c ****                                 /* Find and init CDC IN endpoint number */
 692:.\Generated_Source\PSoC5/USB_std.c ****                                 #if defined(USB_ENABLE_CDC_CLASS)
 693:.\Generated_Source\PSoC5/USB_std.c ****                                     if(((pEP->bMisc == USB_CLASS_CDC_DATA) ||
 694:.\Generated_Source\PSoC5/USB_std.c ****                                         (pEP->bMisc == USB_CLASS_CDC)) &&
 695:.\Generated_Source\PSoC5/USB_std.c ****                                         ((pEP->attributes & USB_EP_TYPE_MASK) !=
 696:.\Generated_Source\PSoC5/USB_std.c ****                                                                                     USB_EP_TYPE_INT
 697:.\Generated_Source\PSoC5/USB_std.c ****                                     {
 698:.\Generated_Source\PSoC5/USB_std.c ****                                         USB_cdc_data_out_ep = i;
 699:.\Generated_Source\PSoC5/USB_std.c ****                                     }
 700:.\Generated_Source\PSoC5/USB_std.c ****                                 #endif  /* End USB_ENABLE_CDC_CLASS*/
 701:.\Generated_Source\PSoC5/USB_std.c ****                                 #if defined(USB_ENABLE_MIDI_STREAMING)
 702:.\Generated_Source\PSoC5/USB_std.c ****                                     if((pEP->bMisc == USB_CLASS_AUDIO) &&
 703:.\Generated_Source\PSoC5/USB_std.c ****                                        ((pEP->attributes & USB_EP_TYPE_MASK) ==
 704:.\Generated_Source\PSoC5/USB_std.c ****                                                                                         USB_EP_TYPE
 705:.\Generated_Source\PSoC5/USB_std.c ****                                     {
 706:.\Generated_Source\PSoC5/USB_std.c ****                                         USB_midi_out_ep = i;
 707:.\Generated_Source\PSoC5/USB_std.c ****                                     }
 708:.\Generated_Source\PSoC5/USB_std.c ****                                 #endif  /* End USB_ENABLE_MIDI_STREAMING*/
 709:.\Generated_Source\PSoC5/USB_std.c ****                             }
 710:.\Generated_Source\PSoC5/USB_std.c ****                             USB_EP[i].addr = pEP->addr;
 1336              		.loc 1 710 0
 1337 0306 B97B     		ldrb	r1, [r7, #14]	@ zero_extendqisi2
 1338 0308 FB69     		ldr	r3, [r7, #28]
ARM GAS  C:\Users\Craig\AppData\Local\Temp\cc9NnIsK.s 			page 37


 1339 030a 9878     		ldrb	r0, [r3, #2]	@ zero_extendqisi2
 1340 030c 40F20002 		movw	r2, #:lower16:USB_EP
 1341 0310 C0F20002 		movt	r2, #:upper16:USB_EP
 1342 0314 0B46     		mov	r3, r1
 1343 0316 4FEA4303 		lsl	r3, r3, #1
 1344 031a 0B44     		add	r3, r3, r1
 1345 031c 4FEA8303 		lsl	r3, r3, #2
 1346 0320 1344     		add	r3, r3, r2
 1347 0322 0246     		mov	r2, r0
 1348 0324 1A71     		strb	r2, [r3, #4]
 711:.\Generated_Source\PSoC5/USB_std.c ****                             USB_EP[i].attrib = pEP->attributes;
 1349              		.loc 1 711 0
 1350 0326 B97B     		ldrb	r1, [r7, #14]	@ zero_extendqisi2
 1351 0328 FB69     		ldr	r3, [r7, #28]
 1352 032a D878     		ldrb	r0, [r3, #3]	@ zero_extendqisi2
 1353 032c 40F20002 		movw	r2, #:lower16:USB_EP
 1354 0330 C0F20002 		movt	r2, #:upper16:USB_EP
 1355 0334 0B46     		mov	r3, r1
 1356 0336 4FEA4303 		lsl	r3, r3, #1
 1357 033a 0B44     		add	r3, r3, r1
 1358 033c 4FEA8303 		lsl	r3, r3, #2
 1359 0340 1344     		add	r3, r3, r2
 1360 0342 0246     		mov	r2, r0
 1361 0344 1A70     		strb	r2, [r3, #0]
 1362              	.L69:
 1363              		.loc 1 647 0
 1364 0346 7B7B     		ldrb	r3, [r7, #13]
 1365 0348 03F10103 		add	r3, r3, #1
 1366 034c 7B73     		strb	r3, [r7, #13]
 1367 034e FB69     		ldr	r3, [r7, #28]
 1368 0350 03F10803 		add	r3, r3, #8
 1369 0354 FB61     		str	r3, [r7, #28]
 1370              	.L68:
 1371 0356 7A7B     		ldrb	r2, [r7, #13]	@ zero_extendqisi2
 1372 0358 3B7B     		ldrb	r3, [r7, #12]	@ zero_extendqisi2
 1373 035a 9A42     		cmp	r2, r3
 1374 035c FFF43FAF 		bcc	.L77
 1375              		.loc 1 641 0
 1376 0360 BB7B     		ldrb	r3, [r7, #14]
 1377 0362 03F10103 		add	r3, r3, #1
 1378 0366 BB73     		strb	r3, [r7, #14]
 1379              	.L67:
 1380 0368 BB7B     		ldrb	r3, [r7, #14]	@ zero_extendqisi2
 1381 036a 082B     		cmp	r3, #8
 1382 036c 7FF630AF 		bls	.L78
 712:.\Generated_Source\PSoC5/USB_std.c **** 
 713:.\Generated_Source\PSoC5/USB_std.c ****                             #if(USB_EP_MM == USB__EP_DMAAUTO)
 714:.\Generated_Source\PSoC5/USB_std.c ****                                 break;      /* use first EP setting in Auto memory managment */
 715:.\Generated_Source\PSoC5/USB_std.c ****                             #endif /* End USB_EP_MM == USB__EP_DMAAUTO */
 716:.\Generated_Source\PSoC5/USB_std.c ****                         }
 717:.\Generated_Source\PSoC5/USB_std.c ****                     }
 718:.\Generated_Source\PSoC5/USB_std.c ****                 }
 719:.\Generated_Source\PSoC5/USB_std.c ****             }
 720:.\Generated_Source\PSoC5/USB_std.c ****         #endif /* End (USB_EP_MA == USB__MA_DYNAMIC) */
 721:.\Generated_Source\PSoC5/USB_std.c **** 
 722:.\Generated_Source\PSoC5/USB_std.c ****         /* Init class array for each interface and interface number for each EP.
 723:.\Generated_Source\PSoC5/USB_std.c ****         *  It is used for hangling Class specific requests directed to either an
ARM GAS  C:\Users\Craig\AppData\Local\Temp\cc9NnIsK.s 			page 38


 724:.\Generated_Source\PSoC5/USB_std.c ****         *  interface or the endpoint.
 725:.\Generated_Source\PSoC5/USB_std.c ****         */
 726:.\Generated_Source\PSoC5/USB_std.c ****         /* p_list points the endpoint setting table. */
 727:.\Generated_Source\PSoC5/USB_std.c ****         pEP = (T_USB_EP_SETTINGS_BLOCK *) pTmp->p_list;
 1383              		.loc 1 727 0
 1384 0370 BB69     		ldr	r3, [r7, #24]
 1385 0372 5B68     		ldr	r3, [r3, #4]
 1386 0374 FB61     		str	r3, [r7, #28]
 728:.\Generated_Source\PSoC5/USB_std.c ****         for (i = 0u; i < ep; i++, pEP++)
 1387              		.loc 1 728 0
 1388 0376 4FF00003 		mov	r3, #0
 1389 037a BB73     		strb	r3, [r7, #14]
 1390 037c 1CE0     		b	.L79
 1391              	.L80:
 729:.\Generated_Source\PSoC5/USB_std.c ****         {
 730:.\Generated_Source\PSoC5/USB_std.c ****             /* config interface number for each EP*/
 731:.\Generated_Source\PSoC5/USB_std.c ****             USB_EP[pEP->addr & USB_DIR_UNUSED].interface = pEP->interface;
 1392              		.loc 1 731 0
 1393 037e FB69     		ldr	r3, [r7, #28]
 1394 0380 9B78     		ldrb	r3, [r3, #2]	@ zero_extendqisi2
 1395 0382 03F07F01 		and	r1, r3, #127
 1396 0386 FB69     		ldr	r3, [r7, #28]
 1397 0388 1878     		ldrb	r0, [r3, #0]	@ zero_extendqisi2
 1398 038a 40F20002 		movw	r2, #:lower16:USB_EP
 1399 038e C0F20002 		movt	r2, #:upper16:USB_EP
 1400 0392 0B46     		mov	r3, r1
 1401 0394 4FEA4303 		lsl	r3, r3, #1
 1402 0398 0B44     		add	r3, r3, r1
 1403 039a 4FEA8303 		lsl	r3, r3, #2
 1404 039e 1344     		add	r3, r3, r2
 1405 03a0 03F10803 		add	r3, r3, #8
 1406 03a4 0246     		mov	r2, r0
 1407 03a6 9A70     		strb	r2, [r3, #2]
 1408              		.loc 1 728 0
 1409 03a8 BB7B     		ldrb	r3, [r7, #14]
 1410 03aa 03F10103 		add	r3, r3, #1
 1411 03ae BB73     		strb	r3, [r7, #14]
 1412 03b0 FB69     		ldr	r3, [r7, #28]
 1413 03b2 03F10803 		add	r3, r3, #8
 1414 03b6 FB61     		str	r3, [r7, #28]
 1415              	.L79:
 1416 03b8 BA7B     		ldrb	r2, [r7, #14]	@ zero_extendqisi2
 1417 03ba 3B7B     		ldrb	r3, [r7, #12]	@ zero_extendqisi2
 1418 03bc 9A42     		cmp	r2, r3
 1419 03be DED3     		bcc	.L80
 732:.\Generated_Source\PSoC5/USB_std.c ****         }
 733:.\Generated_Source\PSoC5/USB_std.c ****         /* init pointer on interface class table*/
 734:.\Generated_Source\PSoC5/USB_std.c ****         USB_interfaceClass = USB_GetInterfaceClassTablePtr();
 1420              		.loc 1 734 0
 1421 03c0 FFF7FEFF 		bl	USB_GetInterfaceClassTablePtr
 1422 03c4 0246     		mov	r2, r0
 1423 03c6 40F20003 		movw	r3, #:lower16:USB_interfaceClass
 1424 03ca C0F20003 		movt	r3, #:upper16:USB_interfaceClass
 1425 03ce 1A60     		str	r2, [r3, #0]
 735:.\Generated_Source\PSoC5/USB_std.c ****         /* Set the endpoint buffer addresses */
 736:.\Generated_Source\PSoC5/USB_std.c ****         
 737:.\Generated_Source\PSoC5/USB_std.c ****         #if(USB_EP_MM != USB__EP_DMAAUTO)
ARM GAS  C:\Users\Craig\AppData\Local\Temp\cc9NnIsK.s 			page 39


 738:.\Generated_Source\PSoC5/USB_std.c ****             for (ep = USB_EP1; ep < USB_MAX_EP; ep++)
 1426              		.loc 1 738 0
 1427 03d0 4FF00103 		mov	r3, #1
 1428 03d4 3B73     		strb	r3, [r7, #12]
 1429 03d6 26E0     		b	.L81
 1430              	.L82:
 739:.\Generated_Source\PSoC5/USB_std.c ****             {
 740:.\Generated_Source\PSoC5/USB_std.c ****                 USB_EP[ep].buffOffset = count;
 1431              		.loc 1 740 0
 1432 03d8 397B     		ldrb	r1, [r7, #12]	@ zero_extendqisi2
 1433 03da 40F20002 		movw	r2, #:lower16:USB_EP
 1434 03de C0F20002 		movt	r2, #:upper16:USB_EP
 1435 03e2 0B46     		mov	r3, r1
 1436 03e4 4FEA4303 		lsl	r3, r3, #1
 1437 03e8 0B44     		add	r3, r3, r1
 1438 03ea 4FEA8303 		lsl	r3, r3, #2
 1439 03ee 1344     		add	r3, r3, r2
 1440 03f0 03F10603 		add	r3, r3, #6
 1441 03f4 FA8A     		ldrh	r2, [r7, #22]	@ movhi
 1442 03f6 1A80     		strh	r2, [r3, #0]	@ movhi
 741:.\Generated_Source\PSoC5/USB_std.c ****                  count += USB_EP[ep].bufferSize;
 1443              		.loc 1 741 0
 1444 03f8 397B     		ldrb	r1, [r7, #12]	@ zero_extendqisi2
 1445 03fa 40F20002 		movw	r2, #:lower16:USB_EP
 1446 03fe C0F20002 		movt	r2, #:upper16:USB_EP
 1447 0402 0B46     		mov	r3, r1
 1448 0404 4FEA4303 		lsl	r3, r3, #1
 1449 0408 0B44     		add	r3, r3, r1
 1450 040a 4FEA8303 		lsl	r3, r3, #2
 1451 040e 1344     		add	r3, r3, r2
 1452 0410 03F10803 		add	r3, r3, #8
 1453 0414 1B88     		ldrh	r3, [r3, #0]	@ movhi
 1454 0416 9AB2     		uxth	r2, r3
 1455 0418 FB8A     		ldrh	r3, [r7, #22]	@ movhi
 1456 041a 1344     		add	r3, r2, r3
 1457 041c FB82     		strh	r3, [r7, #22]	@ movhi
 1458              		.loc 1 738 0
 1459 041e 3B7B     		ldrb	r3, [r7, #12]
 1460 0420 03F10103 		add	r3, r3, #1
 1461 0424 3B73     		strb	r3, [r7, #12]
 1462              	.L81:
 1463 0426 3B7B     		ldrb	r3, [r7, #12]	@ zero_extendqisi2
 1464 0428 082B     		cmp	r3, #8
 1465 042a D5D9     		bls	.L82
 742:.\Generated_Source\PSoC5/USB_std.c ****             }
 743:.\Generated_Source\PSoC5/USB_std.c ****         #endif /* End USB_EP_MM != USB__EP_DMAAUTO */
 744:.\Generated_Source\PSoC5/USB_std.c **** 
 745:.\Generated_Source\PSoC5/USB_std.c ****         /* Congigure hardware registers */
 746:.\Generated_Source\PSoC5/USB_std.c ****         USB_ConfigReg();
 1466              		.loc 1 746 0
 1467 042c FFF7FEFF 		bl	USB_ConfigReg
 1468              	.L83:
 747:.\Generated_Source\PSoC5/USB_std.c ****     } /* USB_configuration > 0 */
 748:.\Generated_Source\PSoC5/USB_std.c **** }
 1469              		.loc 1 748 0
 1470 0430 07F12007 		add	r7, r7, #32
 1471 0434 BD46     		mov	sp, r7
ARM GAS  C:\Users\Craig\AppData\Local\Temp\cc9NnIsK.s 			page 40


 1472 0436 80BD     		pop	{r7, pc}
 1473              		.cfi_endproc
 1474              	.LFE3:
 1475              		.size	USB_Config, .-USB_Config
 1476              		.section	.text.USB_ConfigAltChanged,"ax",%progbits
 1477              		.align	2
 1478              		.global	USB_ConfigAltChanged
 1479              		.thumb
 1480              		.thumb_func
 1481              		.type	USB_ConfigAltChanged, %function
 1482              	USB_ConfigAltChanged:
 1483              	.LFB4:
 749:.\Generated_Source\PSoC5/USB_std.c **** 
 750:.\Generated_Source\PSoC5/USB_std.c **** 
 751:.\Generated_Source\PSoC5/USB_std.c **** /*******************************************************************************
 752:.\Generated_Source\PSoC5/USB_std.c **** * Function Name: USB_ConfigAltChanged
 753:.\Generated_Source\PSoC5/USB_std.c **** ********************************************************************************
 754:.\Generated_Source\PSoC5/USB_std.c **** *
 755:.\Generated_Source\PSoC5/USB_std.c **** * Summary:
 756:.\Generated_Source\PSoC5/USB_std.c **** *  This routine undate configuration for the required endpoints only.
 757:.\Generated_Source\PSoC5/USB_std.c **** *  It is called after SET_INTERFACE request when Static memory allocation used.
 758:.\Generated_Source\PSoC5/USB_std.c **** *
 759:.\Generated_Source\PSoC5/USB_std.c **** * Parameters:
 760:.\Generated_Source\PSoC5/USB_std.c **** *  None.
 761:.\Generated_Source\PSoC5/USB_std.c **** *
 762:.\Generated_Source\PSoC5/USB_std.c **** * Return:
 763:.\Generated_Source\PSoC5/USB_std.c **** *  None.
 764:.\Generated_Source\PSoC5/USB_std.c **** *
 765:.\Generated_Source\PSoC5/USB_std.c **** * Reentrant:
 766:.\Generated_Source\PSoC5/USB_std.c **** *  No.
 767:.\Generated_Source\PSoC5/USB_std.c **** *
 768:.\Generated_Source\PSoC5/USB_std.c **** *******************************************************************************/
 769:.\Generated_Source\PSoC5/USB_std.c **** void USB_ConfigAltChanged() 
 770:.\Generated_Source\PSoC5/USB_std.c **** {
 1484              		.loc 1 770 0
 1485              		.cfi_startproc
 1486              		@ args = 0, pretend = 0, frame = 16
 1487              		@ frame_needed = 1, uses_anonymous_args = 0
 1488 0000 80B5     		push	{r7, lr}
 1489              	.LCFI12:
 1490              		.cfi_def_cfa_offset 8
 1491 0002 84B0     		sub	sp, sp, #16
 1492              	.LCFI13:
 1493              		.cfi_def_cfa_offset 24
 1494 0004 00AF     		add	r7, sp, #0
 1495              		.cfi_offset 14, -4
 1496              		.cfi_offset 7, -8
 1497              	.LCFI14:
 1498              		.cfi_def_cfa_register 7
 771:.\Generated_Source\PSoC5/USB_std.c ****     uint8 ep,cur_ep,i;
 772:.\Generated_Source\PSoC5/USB_std.c ****     uint8 iso;
 773:.\Generated_Source\PSoC5/USB_std.c ****     uint8 ri;
 774:.\Generated_Source\PSoC5/USB_std.c **** 
 775:.\Generated_Source\PSoC5/USB_std.c ****     T_USB_LUT *pTmp;
 776:.\Generated_Source\PSoC5/USB_std.c ****     T_USB_EP_SETTINGS_BLOCK *pEP;
 777:.\Generated_Source\PSoC5/USB_std.c **** 
 778:.\Generated_Source\PSoC5/USB_std.c **** 
ARM GAS  C:\Users\Craig\AppData\Local\Temp\cc9NnIsK.s 			page 41


 779:.\Generated_Source\PSoC5/USB_std.c ****     /* Init Endpoints and Device Status if configured */
 780:.\Generated_Source\PSoC5/USB_std.c ****     if(USB_configuration > 0u)
 1499              		.loc 1 780 0
 1500 0006 40F20003 		movw	r3, #:lower16:USB_configuration
 1501 000a C0F20003 		movt	r3, #:upper16:USB_configuration
 1502 000e 1B78     		ldrb	r3, [r3, #0]
 1503 0010 DBB2     		uxtb	r3, r3
 1504 0012 002B     		cmp	r3, #0
 1505 0014 00F09F81 		beq	.L95
 781:.\Generated_Source\PSoC5/USB_std.c ****     {
 782:.\Generated_Source\PSoC5/USB_std.c ****         pTmp = USB_GetConfigTablePtr(USB_configuration - 1u);
 1506              		.loc 1 782 0
 1507 0018 40F20003 		movw	r3, #:lower16:USB_configuration
 1508 001c C0F20003 		movt	r3, #:upper16:USB_configuration
 1509 0020 1B78     		ldrb	r3, [r3, #0]
 1510 0022 DBB2     		uxtb	r3, r3
 1511 0024 03F1FF33 		add	r3, r3, #-1
 1512 0028 DBB2     		uxtb	r3, r3
 1513 002a 1846     		mov	r0, r3
 1514 002c FFF7FEFF 		bl	USB_GetConfigTablePtr
 1515 0030 0346     		mov	r3, r0
 1516 0032 BB60     		str	r3, [r7, #8]
 783:.\Generated_Source\PSoC5/USB_std.c ****         pTmp++;
 1517              		.loc 1 783 0
 1518 0034 BB68     		ldr	r3, [r7, #8]
 1519 0036 03F10803 		add	r3, r3, #8
 1520 003a BB60     		str	r3, [r7, #8]
 784:.\Generated_Source\PSoC5/USB_std.c ****         ep = pTmp->c;  /* For this table, c is the number of endpoints configurations  */
 1521              		.loc 1 784 0
 1522 003c BB68     		ldr	r3, [r7, #8]
 1523 003e 1B78     		ldrb	r3, [r3, #0]
 1524 0040 FB70     		strb	r3, [r7, #3]
 785:.\Generated_Source\PSoC5/USB_std.c **** 
 786:.\Generated_Source\PSoC5/USB_std.c ****         /* Do not touch EP wich doesn't need reconfiguration */
 787:.\Generated_Source\PSoC5/USB_std.c ****         /* When Alt setting chaged, the only required endpoints need to be reconfigured */
 788:.\Generated_Source\PSoC5/USB_std.c ****         /* p_list points the endpoint setting table. */
 789:.\Generated_Source\PSoC5/USB_std.c ****         pEP = (T_USB_EP_SETTINGS_BLOCK *) pTmp->p_list;
 1525              		.loc 1 789 0
 1526 0042 BB68     		ldr	r3, [r7, #8]
 1527 0044 5B68     		ldr	r3, [r3, #4]
 1528 0046 FB60     		str	r3, [r7, #12]
 790:.\Generated_Source\PSoC5/USB_std.c ****         for (i = 0u; i < ep; i++, pEP++)
 1529              		.loc 1 790 0
 1530 0048 4FF00003 		mov	r3, #0
 1531 004c 7B71     		strb	r3, [r7, #5]
 1532 004e 7DE1     		b	.L86
 1533              	.L94:
 791:.\Generated_Source\PSoC5/USB_std.c ****         {
 792:.\Generated_Source\PSoC5/USB_std.c ****             /*If Alt setting changed and new is same with EP Alt */
 793:.\Generated_Source\PSoC5/USB_std.c ****             if((USB_interfaceSetting[pEP->interface] !=
 1534              		.loc 1 793 0
 1535 0050 FB68     		ldr	r3, [r7, #12]
 1536 0052 1B78     		ldrb	r3, [r3, #0]	@ zero_extendqisi2
 1537 0054 1A46     		mov	r2, r3
 1538 0056 40F20003 		movw	r3, #:lower16:USB_interfaceSetting
 1539 005a C0F20003 		movt	r3, #:upper16:USB_interfaceSetting
 1540 005e 9B5C     		ldrb	r3, [r3, r2]
ARM GAS  C:\Users\Craig\AppData\Local\Temp\cc9NnIsK.s 			page 42


 1541 0060 DAB2     		uxtb	r2, r3
 794:.\Generated_Source\PSoC5/USB_std.c ****                 USB_interfaceSetting_last[pEP->interface] ) &&
 1542              		.loc 1 794 0
 1543 0062 FB68     		ldr	r3, [r7, #12]
 1544 0064 1B78     		ldrb	r3, [r3, #0]	@ zero_extendqisi2
 1545              		.loc 1 793 0
 1546 0066 1946     		mov	r1, r3
 1547              		.loc 1 794 0
 1548 0068 40F20003 		movw	r3, #:lower16:USB_interfaceSetting_last
 1549 006c C0F20003 		movt	r3, #:upper16:USB_interfaceSetting_last
 1550 0070 5B5C     		ldrb	r3, [r3, r1]
 1551 0072 DBB2     		uxtb	r3, r3
 1552              		.loc 1 793 0
 1553 0074 9A42     		cmp	r2, r3
 1554 0076 00F06181 		beq	.L87
 795:.\Generated_Source\PSoC5/USB_std.c ****                (USB_interfaceSetting[pEP->interface] == pEP->altSetting) &&
 1555              		.loc 1 795 0
 1556 007a FB68     		ldr	r3, [r7, #12]
 1557 007c 1B78     		ldrb	r3, [r3, #0]	@ zero_extendqisi2
 1558 007e 1A46     		mov	r2, r3
 1559 0080 40F20003 		movw	r3, #:lower16:USB_interfaceSetting
 1560 0084 C0F20003 		movt	r3, #:upper16:USB_interfaceSetting
 1561 0088 9B5C     		ldrb	r3, [r3, r2]
 1562 008a DAB2     		uxtb	r2, r3
 1563 008c FB68     		ldr	r3, [r7, #12]
 1564 008e 5B78     		ldrb	r3, [r3, #1]	@ zero_extendqisi2
 1565              		.loc 1 793 0
 1566 0090 9A42     		cmp	r2, r3
 1567 0092 40F05381 		bne	.L87
 796:.\Generated_Source\PSoC5/USB_std.c ****                 pEP->interface == CY_GET_REG8(USB_wIndexLo))
 1568              		.loc 1 796 0
 1569 0096 FB68     		ldr	r3, [r7, #12]
 1570 0098 1A78     		ldrb	r2, [r3, #0]	@ zero_extendqisi2
 1571 009a 46F20403 		movw	r3, #:lower16:1073766404
 1572 009e C4F20003 		movt	r3, #:upper16:1073766404
 1573 00a2 1B78     		ldrb	r3, [r3, #0]
 1574 00a4 DBB2     		uxtb	r3, r3
 1575              		.loc 1 793 0
 1576 00a6 9A42     		cmp	r2, r3
 1577 00a8 40F04881 		bne	.L87
 797:.\Generated_Source\PSoC5/USB_std.c ****             {
 798:.\Generated_Source\PSoC5/USB_std.c ****                 cur_ep = pEP->addr & USB_DIR_UNUSED;
 1578              		.loc 1 798 0
 1579 00ac FB68     		ldr	r3, [r7, #12]
 1580 00ae 9B78     		ldrb	r3, [r3, #2]	@ zero_extendqisi2
 1581 00b0 03F07F03 		and	r3, r3, #127
 1582 00b4 3B71     		strb	r3, [r7, #4]
 799:.\Generated_Source\PSoC5/USB_std.c ****                 ri = ((cur_ep - USB_EP1) << USB_EPX_CNTX_ADDR_SHIFT);
 1583              		.loc 1 799 0
 1584 00b6 3B79     		ldrb	r3, [r7, #4]
 1585 00b8 03F1FF33 		add	r3, r3, #-1
 1586 00bc DBB2     		uxtb	r3, r3
 1587 00be 4FEA0313 		lsl	r3, r3, #4
 1588 00c2 FB71     		strb	r3, [r7, #7]
 800:.\Generated_Source\PSoC5/USB_std.c ****                 iso  = ((pEP->attributes & USB_EP_TYPE_MASK) == USB_EP_TYPE_ISOC);
 1589              		.loc 1 800 0
 1590 00c4 FB68     		ldr	r3, [r7, #12]
ARM GAS  C:\Users\Craig\AppData\Local\Temp\cc9NnIsK.s 			page 43


 1591 00c6 DB78     		ldrb	r3, [r3, #3]	@ zero_extendqisi2
 1592 00c8 03F00303 		and	r3, r3, #3
 1593 00cc 012B     		cmp	r3, #1
 1594 00ce 14BF     		ite	ne
 1595 00d0 0023     		movne	r3, #0
 1596 00d2 0123     		moveq	r3, #1
 1597 00d4 BB71     		strb	r3, [r7, #6]
 801:.\Generated_Source\PSoC5/USB_std.c ****                 if (pEP->addr & USB_DIR_IN)
 1598              		.loc 1 801 0
 1599 00d6 FB68     		ldr	r3, [r7, #12]
 1600 00d8 9B78     		ldrb	r3, [r3, #2]	@ zero_extendqisi2
 1601 00da 5BB2     		sxtb	r3, r3
 1602 00dc 002B     		cmp	r3, #0
 1603 00de 25DA     		bge	.L88
 802:.\Generated_Source\PSoC5/USB_std.c ****                 {
 803:.\Generated_Source\PSoC5/USB_std.c ****                     /* IN Endpoint */
 804:.\Generated_Source\PSoC5/USB_std.c ****                     USB_EP[cur_ep].apiEpState = USB_EVENT_PENDING;
 1604              		.loc 1 804 0
 1605 00e0 3979     		ldrb	r1, [r7, #4]	@ zero_extendqisi2
 1606 00e2 40F20002 		movw	r2, #:lower16:USB_EP
 1607 00e6 C0F20002 		movt	r2, #:upper16:USB_EP
 1608 00ea 0B46     		mov	r3, r1
 1609 00ec 4FEA4303 		lsl	r3, r3, #1
 1610 00f0 0B44     		add	r3, r3, r1
 1611 00f2 4FEA8303 		lsl	r3, r3, #2
 1612 00f6 1344     		add	r3, r3, r2
 1613 00f8 4FF00102 		mov	r2, #1
 1614 00fc 5A70     		strb	r2, [r3, #1]
 805:.\Generated_Source\PSoC5/USB_std.c ****                     USB_EP[cur_ep].epMode =
 1615              		.loc 1 805 0
 1616 00fe 3879     		ldrb	r0, [r7, #4]	@ zero_extendqisi2
 1617 0100 BB79     		ldrb	r3, [r7, #6]	@ zero_extendqisi2
 1618 0102 002B     		cmp	r3, #0
 1619 0104 02D0     		beq	.L89
 1620 0106 4FF00701 		mov	r1, #7
 1621 010a 01E0     		b	.L90
 1622              	.L89:
 1623 010c 4FF00D01 		mov	r1, #13
 1624              	.L90:
 1625 0110 40F20002 		movw	r2, #:lower16:USB_EP
 1626 0114 C0F20002 		movt	r2, #:upper16:USB_EP
 1627 0118 0346     		mov	r3, r0
 1628 011a 4FEA4303 		lsl	r3, r3, #1
 1629 011e 0344     		add	r3, r3, r0
 1630 0120 4FEA8303 		lsl	r3, r3, #2
 1631 0124 1344     		add	r3, r3, r2
 1632 0126 0A46     		mov	r2, r1
 1633 0128 5A71     		strb	r2, [r3, #5]
 1634 012a 24E0     		b	.L91
 1635              	.L88:
 806:.\Generated_Source\PSoC5/USB_std.c ****                                             (iso ? USB_MODE_ISO_IN : USB_MODE_ACK_IN);
 807:.\Generated_Source\PSoC5/USB_std.c ****                 }
 808:.\Generated_Source\PSoC5/USB_std.c ****                 else
 809:.\Generated_Source\PSoC5/USB_std.c ****                 {
 810:.\Generated_Source\PSoC5/USB_std.c ****                     /* OUT Endpoint */
 811:.\Generated_Source\PSoC5/USB_std.c ****                     USB_EP[cur_ep].apiEpState = USB_NO_EVENT_PENDING;
 1636              		.loc 1 811 0
ARM GAS  C:\Users\Craig\AppData\Local\Temp\cc9NnIsK.s 			page 44


 1637 012c 3979     		ldrb	r1, [r7, #4]	@ zero_extendqisi2
 1638 012e 40F20002 		movw	r2, #:lower16:USB_EP
 1639 0132 C0F20002 		movt	r2, #:upper16:USB_EP
 1640 0136 0B46     		mov	r3, r1
 1641 0138 4FEA4303 		lsl	r3, r3, #1
 1642 013c 0B44     		add	r3, r3, r1
 1643 013e 4FEA8303 		lsl	r3, r3, #2
 1644 0142 1344     		add	r3, r3, r2
 1645 0144 4FF00002 		mov	r2, #0
 1646 0148 5A70     		strb	r2, [r3, #1]
 812:.\Generated_Source\PSoC5/USB_std.c ****                     USB_EP[cur_ep].epMode =
 1647              		.loc 1 812 0
 1648 014a 3879     		ldrb	r0, [r7, #4]	@ zero_extendqisi2
 1649 014c BB79     		ldrb	r3, [r7, #6]	@ zero_extendqisi2
 1650 014e 002B     		cmp	r3, #0
 1651 0150 02D0     		beq	.L92
 1652 0152 4FF00501 		mov	r1, #5
 1653 0156 01E0     		b	.L93
 1654              	.L92:
 1655 0158 4FF00901 		mov	r1, #9
 1656              	.L93:
 1657 015c 40F20002 		movw	r2, #:lower16:USB_EP
 1658 0160 C0F20002 		movt	r2, #:upper16:USB_EP
 1659 0164 0346     		mov	r3, r0
 1660 0166 4FEA4303 		lsl	r3, r3, #1
 1661 016a 0344     		add	r3, r3, r0
 1662 016c 4FEA8303 		lsl	r3, r3, #2
 1663 0170 1344     		add	r3, r3, r2
 1664 0172 0A46     		mov	r2, r1
 1665 0174 5A71     		strb	r2, [r3, #5]
 1666              	.L91:
 813:.\Generated_Source\PSoC5/USB_std.c ****                                             (iso ? USB_MODE_ISO_OUT : USB_MODE_ACK_OUT);
 814:.\Generated_Source\PSoC5/USB_std.c ****                 }
 815:.\Generated_Source\PSoC5/USB_std.c ****                  /* Change the SIE mode for the selected EP to NAK ALL */
 816:.\Generated_Source\PSoC5/USB_std.c ****                  CY_SET_REG8(&USB_SIE_EP1_CR0_PTR[ri], USB_MODE_NAK_IN_OUT);
 1667              		.loc 1 816 0
 1668 0176 FA79     		ldrb	r2, [r7, #7]	@ zero_extendqisi2
 1669 0178 46F20E03 		movw	r3, #:lower16:1073766414
 1670 017c C4F20003 		movt	r3, #:upper16:1073766414
 1671 0180 1344     		add	r3, r2, r3
 1672 0182 4FF00102 		mov	r2, #1
 1673 0186 1A70     		strb	r2, [r3, #0]
 817:.\Generated_Source\PSoC5/USB_std.c ****                 USB_EP[cur_ep].bufferSize = pEP->bufferSize;
 1674              		.loc 1 817 0
 1675 0188 3979     		ldrb	r1, [r7, #4]	@ zero_extendqisi2
 1676 018a FB68     		ldr	r3, [r7, #12]
 1677 018c 9888     		ldrh	r0, [r3, #4]
 1678 018e 40F20002 		movw	r2, #:lower16:USB_EP
 1679 0192 C0F20002 		movt	r2, #:upper16:USB_EP
 1680 0196 0B46     		mov	r3, r1
 1681 0198 4FEA4303 		lsl	r3, r3, #1
 1682 019c 0B44     		add	r3, r3, r1
 1683 019e 4FEA8303 		lsl	r3, r3, #2
 1684 01a2 1344     		add	r3, r3, r2
 1685 01a4 03F10803 		add	r3, r3, #8
 1686 01a8 0246     		mov	r2, r0	@ movhi
 1687 01aa 1A80     		strh	r2, [r3, #0]	@ movhi
ARM GAS  C:\Users\Craig\AppData\Local\Temp\cc9NnIsK.s 			page 45


 818:.\Generated_Source\PSoC5/USB_std.c ****                 USB_EP[cur_ep].addr = pEP->addr;
 1688              		.loc 1 818 0
 1689 01ac 3979     		ldrb	r1, [r7, #4]	@ zero_extendqisi2
 1690 01ae FB68     		ldr	r3, [r7, #12]
 1691 01b0 9878     		ldrb	r0, [r3, #2]	@ zero_extendqisi2
 1692 01b2 40F20002 		movw	r2, #:lower16:USB_EP
 1693 01b6 C0F20002 		movt	r2, #:upper16:USB_EP
 1694 01ba 0B46     		mov	r3, r1
 1695 01bc 4FEA4303 		lsl	r3, r3, #1
 1696 01c0 0B44     		add	r3, r3, r1
 1697 01c2 4FEA8303 		lsl	r3, r3, #2
 1698 01c6 1344     		add	r3, r3, r2
 1699 01c8 0246     		mov	r2, r0
 1700 01ca 1A71     		strb	r2, [r3, #4]
 819:.\Generated_Source\PSoC5/USB_std.c ****                 USB_EP[cur_ep].attrib = pEP->attributes;
 1701              		.loc 1 819 0
 1702 01cc 3979     		ldrb	r1, [r7, #4]	@ zero_extendqisi2
 1703 01ce FB68     		ldr	r3, [r7, #12]
 1704 01d0 D878     		ldrb	r0, [r3, #3]	@ zero_extendqisi2
 1705 01d2 40F20002 		movw	r2, #:lower16:USB_EP
 1706 01d6 C0F20002 		movt	r2, #:upper16:USB_EP
 1707 01da 0B46     		mov	r3, r1
 1708 01dc 4FEA4303 		lsl	r3, r3, #1
 1709 01e0 0B44     		add	r3, r3, r1
 1710 01e2 4FEA8303 		lsl	r3, r3, #2
 1711 01e6 1344     		add	r3, r3, r2
 1712 01e8 0246     		mov	r2, r0
 1713 01ea 1A70     		strb	r2, [r3, #0]
 820:.\Generated_Source\PSoC5/USB_std.c **** 
 821:.\Generated_Source\PSoC5/USB_std.c ****                 /* Clear the data toggle */
 822:.\Generated_Source\PSoC5/USB_std.c ****                 USB_EP[cur_ep].epToggle = 0u;
 1714              		.loc 1 822 0
 1715 01ec 3979     		ldrb	r1, [r7, #4]	@ zero_extendqisi2
 1716 01ee 40F20002 		movw	r2, #:lower16:USB_EP
 1717 01f2 C0F20002 		movt	r2, #:upper16:USB_EP
 1718 01f6 0B46     		mov	r3, r1
 1719 01f8 4FEA4303 		lsl	r3, r3, #1
 1720 01fc 0B44     		add	r3, r3, r1
 1721 01fe 4FEA8303 		lsl	r3, r3, #2
 1722 0202 1344     		add	r3, r3, r2
 1723 0204 4FF00002 		mov	r2, #0
 1724 0208 DA70     		strb	r2, [r3, #3]
 823:.\Generated_Source\PSoC5/USB_std.c **** 
 824:.\Generated_Source\PSoC5/USB_std.c ****                 /* Dynamic reconfiguration for mode 3 transfer */
 825:.\Generated_Source\PSoC5/USB_std.c ****                 #if((USB_EP_MM == USB__EP_DMAAUTO) && (!CY_PSOC5A) )
 826:.\Generated_Source\PSoC5/USB_std.c ****                     /* In_data_rdy for selected EP should be set to 0 */
 827:.\Generated_Source\PSoC5/USB_std.c ****                     USB_ARB_EP1_CFG_PTR[ri] &= ~USB_ARB_EPX_CFG_IN_DATA_RDY;
 828:.\Generated_Source\PSoC5/USB_std.c **** 
 829:.\Generated_Source\PSoC5/USB_std.c ****                     /* write the EP number for which reconfiguration is required */
 830:.\Generated_Source\PSoC5/USB_std.c ****                     USB_DYN_RECONFIG_REG = (cur_ep - USB_EP1) << 
 831:.\Generated_Source\PSoC5/USB_std.c ****                                                         USB_DYN_RECONFIG_EP_SHIFT;
 832:.\Generated_Source\PSoC5/USB_std.c ****                     /* Set the dyn_config_en bit in dynamic reconfiguration register */
 833:.\Generated_Source\PSoC5/USB_std.c ****                     USB_DYN_RECONFIG_REG |= USB_DYN_RECONFIG_ENABLE;
 834:.\Generated_Source\PSoC5/USB_std.c ****                     /* wait for the dyn_config_rdy bit to set by the block,
 835:.\Generated_Source\PSoC5/USB_std.c ****                     *  this bit will be set to 1 when block is ready for reconfiguration.
 836:.\Generated_Source\PSoC5/USB_std.c ****                     */
 837:.\Generated_Source\PSoC5/USB_std.c ****                     while((USB_DYN_RECONFIG_REG & USB_DYN_RECONFIG_RDY_STS) == 0u);
ARM GAS  C:\Users\Craig\AppData\Local\Temp\cc9NnIsK.s 			page 46


 838:.\Generated_Source\PSoC5/USB_std.c ****                     /* Once dyn_config_rdy bit is set, FW can change the EP configuration. */
 839:.\Generated_Source\PSoC5/USB_std.c ****                     /* Change EP Type with new direction */
 840:.\Generated_Source\PSoC5/USB_std.c ****                     if((pEP->addr & USB_DIR_IN) == 0)
 841:.\Generated_Source\PSoC5/USB_std.c ****                     {
 842:.\Generated_Source\PSoC5/USB_std.c ****                         USB_EP_TYPE_REG |= 0x01u << (cur_ep - USB_EP1);
 843:.\Generated_Source\PSoC5/USB_std.c ****                     }
 844:.\Generated_Source\PSoC5/USB_std.c ****                     else
 845:.\Generated_Source\PSoC5/USB_std.c ****                     {
 846:.\Generated_Source\PSoC5/USB_std.c ****                         USB_EP_TYPE_REG &= ~(0x01u << (cur_ep - USB_EP1));
 847:.\Generated_Source\PSoC5/USB_std.c ****                     }
 848:.\Generated_Source\PSoC5/USB_std.c ****                     /* dynamic reconfiguration enable bit cleared, pointers and control/status
 849:.\Generated_Source\PSoC5/USB_std.c ****                     *  signals for the selected EP is cleared/re-initialized on negedge
 850:.\Generated_Source\PSoC5/USB_std.c ****                     *  of dynamic reconfiguration enable bit).
 851:.\Generated_Source\PSoC5/USB_std.c ****                     */
 852:.\Generated_Source\PSoC5/USB_std.c ****                     USB_DYN_RECONFIG_REG &= ~USB_DYN_RECONFIG_ENABLE;
 853:.\Generated_Source\PSoC5/USB_std.c ****                     /* The main loop has to reenable DMA and OUT endpoint*/
 854:.\Generated_Source\PSoC5/USB_std.c ****                 #else
 855:.\Generated_Source\PSoC5/USB_std.c ****                 CY_SET_REG8(&USB_SIE_EP1_CNT0_PTR[ri],   USB_EP[cur_ep].bufferSize >> 8u);
 1725              		.loc 1 855 0
 1726 020a FA79     		ldrb	r2, [r7, #7]	@ zero_extendqisi2
 1727 020c 46F20C03 		movw	r3, #:lower16:1073766412
 1728 0210 C4F20003 		movt	r3, #:upper16:1073766412
 1729 0214 1344     		add	r3, r2, r3
 1730 0216 3879     		ldrb	r0, [r7, #4]	@ zero_extendqisi2
 1731 0218 40F20001 		movw	r1, #:lower16:USB_EP
 1732 021c C0F20001 		movt	r1, #:upper16:USB_EP
 1733 0220 0246     		mov	r2, r0
 1734 0222 4FEA4202 		lsl	r2, r2, #1
 1735 0226 0244     		add	r2, r2, r0
 1736 0228 4FEA8202 		lsl	r2, r2, #2
 1737 022c 0A44     		add	r2, r2, r1
 1738 022e 02F10802 		add	r2, r2, #8
 1739 0232 1288     		ldrh	r2, [r2, #0]	@ movhi
 1740 0234 92B2     		uxth	r2, r2
 1741 0236 4FEA1222 		lsr	r2, r2, #8
 1742 023a 92B2     		uxth	r2, r2
 1743 023c D2B2     		uxtb	r2, r2
 1744 023e 1A70     		strb	r2, [r3, #0]
 856:.\Generated_Source\PSoC5/USB_std.c ****                 CY_SET_REG8(&USB_SIE_EP1_CNT1_PTR[ri],   USB_EP[cur_ep].bufferSize & 0xFFu);
 1745              		.loc 1 856 0
 1746 0240 FA79     		ldrb	r2, [r7, #7]	@ zero_extendqisi2
 1747 0242 46F20D03 		movw	r3, #:lower16:1073766413
 1748 0246 C4F20003 		movt	r3, #:upper16:1073766413
 1749 024a 1344     		add	r3, r2, r3
 1750 024c 3879     		ldrb	r0, [r7, #4]	@ zero_extendqisi2
 1751 024e 40F20001 		movw	r1, #:lower16:USB_EP
 1752 0252 C0F20001 		movt	r1, #:upper16:USB_EP
 1753 0256 0246     		mov	r2, r0
 1754 0258 4FEA4202 		lsl	r2, r2, #1
 1755 025c 0244     		add	r2, r2, r0
 1756 025e 4FEA8202 		lsl	r2, r2, #2
 1757 0262 0A44     		add	r2, r2, r1
 1758 0264 02F10802 		add	r2, r2, #8
 1759 0268 1288     		ldrh	r2, [r2, #0]	@ movhi
 1760 026a 92B2     		uxth	r2, r2
 1761 026c D2B2     		uxtb	r2, r2
 1762 026e 1A70     		strb	r2, [r3, #0]
ARM GAS  C:\Users\Craig\AppData\Local\Temp\cc9NnIsK.s 			page 47


 857:.\Generated_Source\PSoC5/USB_std.c **** 
 858:.\Generated_Source\PSoC5/USB_std.c ****                 CY_SET_REG8(&USB_ARB_RW1_RA_PTR[ri],     USB_EP[cur_ep].buffOffset & 0xFFu);
 1763              		.loc 1 858 0
 1764 0270 FA79     		ldrb	r2, [r7, #7]	@ zero_extendqisi2
 1765 0272 46F28603 		movw	r3, #:lower16:1073766534
 1766 0276 C4F20003 		movt	r3, #:upper16:1073766534
 1767 027a 1344     		add	r3, r2, r3
 1768 027c 3879     		ldrb	r0, [r7, #4]	@ zero_extendqisi2
 1769 027e 40F20001 		movw	r1, #:lower16:USB_EP
 1770 0282 C0F20001 		movt	r1, #:upper16:USB_EP
 1771 0286 0246     		mov	r2, r0
 1772 0288 4FEA4202 		lsl	r2, r2, #1
 1773 028c 0244     		add	r2, r2, r0
 1774 028e 4FEA8202 		lsl	r2, r2, #2
 1775 0292 0A44     		add	r2, r2, r1
 1776 0294 02F10602 		add	r2, r2, #6
 1777 0298 1288     		ldrh	r2, [r2, #0]	@ movhi
 1778 029a 92B2     		uxth	r2, r2
 1779 029c D2B2     		uxtb	r2, r2
 1780 029e 1A70     		strb	r2, [r3, #0]
 859:.\Generated_Source\PSoC5/USB_std.c ****                 CY_SET_REG8(&USB_ARB_RW1_RA_MSB_PTR[ri], USB_EP[cur_ep].buffOffset >> 8u);
 1781              		.loc 1 859 0
 1782 02a0 FA79     		ldrb	r2, [r7, #7]	@ zero_extendqisi2
 1783 02a2 46F28703 		movw	r3, #:lower16:1073766535
 1784 02a6 C4F20003 		movt	r3, #:upper16:1073766535
 1785 02aa 1344     		add	r3, r2, r3
 1786 02ac 3879     		ldrb	r0, [r7, #4]	@ zero_extendqisi2
 1787 02ae 40F20001 		movw	r1, #:lower16:USB_EP
 1788 02b2 C0F20001 		movt	r1, #:upper16:USB_EP
 1789 02b6 0246     		mov	r2, r0
 1790 02b8 4FEA4202 		lsl	r2, r2, #1
 1791 02bc 0244     		add	r2, r2, r0
 1792 02be 4FEA8202 		lsl	r2, r2, #2
 1793 02c2 0A44     		add	r2, r2, r1
 1794 02c4 02F10602 		add	r2, r2, #6
 1795 02c8 1288     		ldrh	r2, [r2, #0]	@ movhi
 1796 02ca 92B2     		uxth	r2, r2
 1797 02cc 4FEA1222 		lsr	r2, r2, #8
 1798 02d0 92B2     		uxth	r2, r2
 1799 02d2 D2B2     		uxtb	r2, r2
 1800 02d4 1A70     		strb	r2, [r3, #0]
 860:.\Generated_Source\PSoC5/USB_std.c ****                 CY_SET_REG8(&USB_ARB_RW1_WA_PTR[ri],     USB_EP[cur_ep].buffOffset & 0xFFu);
 1801              		.loc 1 860 0
 1802 02d6 FA79     		ldrb	r2, [r7, #7]	@ zero_extendqisi2
 1803 02d8 46F28403 		movw	r3, #:lower16:1073766532
 1804 02dc C4F20003 		movt	r3, #:upper16:1073766532
 1805 02e0 1344     		add	r3, r2, r3
 1806 02e2 3879     		ldrb	r0, [r7, #4]	@ zero_extendqisi2
 1807 02e4 40F20001 		movw	r1, #:lower16:USB_EP
 1808 02e8 C0F20001 		movt	r1, #:upper16:USB_EP
 1809 02ec 0246     		mov	r2, r0
 1810 02ee 4FEA4202 		lsl	r2, r2, #1
 1811 02f2 0244     		add	r2, r2, r0
 1812 02f4 4FEA8202 		lsl	r2, r2, #2
 1813 02f8 0A44     		add	r2, r2, r1
 1814 02fa 02F10602 		add	r2, r2, #6
 1815 02fe 1288     		ldrh	r2, [r2, #0]	@ movhi
ARM GAS  C:\Users\Craig\AppData\Local\Temp\cc9NnIsK.s 			page 48


 1816 0300 92B2     		uxth	r2, r2
 1817 0302 D2B2     		uxtb	r2, r2
 1818 0304 1A70     		strb	r2, [r3, #0]
 861:.\Generated_Source\PSoC5/USB_std.c ****                 CY_SET_REG8(&USB_ARB_RW1_WA_MSB_PTR[ri], USB_EP[cur_ep].buffOffset >> 8u);
 1819              		.loc 1 861 0
 1820 0306 FA79     		ldrb	r2, [r7, #7]	@ zero_extendqisi2
 1821 0308 46F28503 		movw	r3, #:lower16:1073766533
 1822 030c C4F20003 		movt	r3, #:upper16:1073766533
 1823 0310 1344     		add	r3, r2, r3
 1824 0312 3879     		ldrb	r0, [r7, #4]	@ zero_extendqisi2
 1825 0314 40F20001 		movw	r1, #:lower16:USB_EP
 1826 0318 C0F20001 		movt	r1, #:upper16:USB_EP
 1827 031c 0246     		mov	r2, r0
 1828 031e 4FEA4202 		lsl	r2, r2, #1
 1829 0322 0244     		add	r2, r2, r0
 1830 0324 4FEA8202 		lsl	r2, r2, #2
 1831 0328 0A44     		add	r2, r2, r1
 1832 032a 02F10602 		add	r2, r2, #6
 1833 032e 1288     		ldrh	r2, [r2, #0]	@ movhi
 1834 0330 92B2     		uxth	r2, r2
 1835 0332 4FEA1222 		lsr	r2, r2, #8
 1836 0336 92B2     		uxth	r2, r2
 1837 0338 D2B2     		uxtb	r2, r2
 1838 033a 1A70     		strb	r2, [r3, #0]
 1839              	.L87:
 1840              		.loc 1 790 0
 1841 033c 7B79     		ldrb	r3, [r7, #5]
 1842 033e 03F10103 		add	r3, r3, #1
 1843 0342 7B71     		strb	r3, [r7, #5]
 1844 0344 FB68     		ldr	r3, [r7, #12]
 1845 0346 03F10803 		add	r3, r3, #8
 1846 034a FB60     		str	r3, [r7, #12]
 1847              	.L86:
 1848 034c 7A79     		ldrb	r2, [r7, #5]	@ zero_extendqisi2
 1849 034e FB78     		ldrb	r3, [r7, #3]	@ zero_extendqisi2
 1850 0350 9A42     		cmp	r2, r3
 1851 0352 FFF47DAE 		bcc	.L94
 1852              	.L95:
 862:.\Generated_Source\PSoC5/USB_std.c ****                 #endif /* End USB_EP_MM == USB__EP_DMAAUTO */
 863:.\Generated_Source\PSoC5/USB_std.c ****             }
 864:.\Generated_Source\PSoC5/USB_std.c ****         }
 865:.\Generated_Source\PSoC5/USB_std.c ****     } /* USB_configuration > 0 */
 866:.\Generated_Source\PSoC5/USB_std.c **** }
 1853              		.loc 1 866 0
 1854 0356 07F11007 		add	r7, r7, #16
 1855 035a BD46     		mov	sp, r7
 1856 035c 80BD     		pop	{r7, pc}
 1857              		.cfi_endproc
 1858              	.LFE4:
 1859              		.size	USB_ConfigAltChanged, .-USB_ConfigAltChanged
 1860 035e 00BF     		.section	.text.USB_GetConfigTablePtr,"ax",%progbits
 1861              		.align	2
 1862              		.global	USB_GetConfigTablePtr
 1863              		.thumb
 1864              		.thumb_func
 1865              		.type	USB_GetConfigTablePtr, %function
 1866              	USB_GetConfigTablePtr:
ARM GAS  C:\Users\Craig\AppData\Local\Temp\cc9NnIsK.s 			page 49


 1867              	.LFB5:
 867:.\Generated_Source\PSoC5/USB_std.c **** 
 868:.\Generated_Source\PSoC5/USB_std.c **** 
 869:.\Generated_Source\PSoC5/USB_std.c **** /*******************************************************************************
 870:.\Generated_Source\PSoC5/USB_std.c **** * Function Name: USB_GetConfigTablePtr
 871:.\Generated_Source\PSoC5/USB_std.c **** ********************************************************************************
 872:.\Generated_Source\PSoC5/USB_std.c **** *
 873:.\Generated_Source\PSoC5/USB_std.c **** * Summary:
 874:.\Generated_Source\PSoC5/USB_std.c **** *  This routine returns a pointer a configuration table entry
 875:.\Generated_Source\PSoC5/USB_std.c **** *
 876:.\Generated_Source\PSoC5/USB_std.c **** * Parameters:
 877:.\Generated_Source\PSoC5/USB_std.c **** *  c:  Configuration Index
 878:.\Generated_Source\PSoC5/USB_std.c **** *
 879:.\Generated_Source\PSoC5/USB_std.c **** * Return:
 880:.\Generated_Source\PSoC5/USB_std.c **** *  Device Descriptor pointer.
 881:.\Generated_Source\PSoC5/USB_std.c **** *
 882:.\Generated_Source\PSoC5/USB_std.c **** *******************************************************************************/
 883:.\Generated_Source\PSoC5/USB_std.c **** T_USB_LUT *USB_GetConfigTablePtr(uint8 c) \
 884:.\Generated_Source\PSoC5/USB_std.c ****                                                         
 885:.\Generated_Source\PSoC5/USB_std.c **** {
 1868              		.loc 1 885 0
 1869              		.cfi_startproc
 1870              		@ args = 0, pretend = 0, frame = 16
 1871              		@ frame_needed = 1, uses_anonymous_args = 0
 1872 0000 80B5     		push	{r7, lr}
 1873              	.LCFI15:
 1874              		.cfi_def_cfa_offset 8
 1875 0002 84B0     		sub	sp, sp, #16
 1876              	.LCFI16:
 1877              		.cfi_def_cfa_offset 24
 1878 0004 00AF     		add	r7, sp, #0
 1879              		.cfi_offset 14, -4
 1880              		.cfi_offset 7, -8
 1881              	.LCFI17:
 1882              		.cfi_def_cfa_register 7
 1883 0006 0346     		mov	r3, r0
 1884 0008 FB71     		strb	r3, [r7, #7]
 886:.\Generated_Source\PSoC5/USB_std.c ****     /* Device Table */
 887:.\Generated_Source\PSoC5/USB_std.c ****     T_USB_LUT *pTmp;
 888:.\Generated_Source\PSoC5/USB_std.c **** 
 889:.\Generated_Source\PSoC5/USB_std.c ****     pTmp = USB_GetDeviceTablePtr();
 1885              		.loc 1 889 0
 1886 000a FFF7FEFF 		bl	USB_GetDeviceTablePtr
 1887 000e 0346     		mov	r3, r0
 1888 0010 FB60     		str	r3, [r7, #12]
 890:.\Generated_Source\PSoC5/USB_std.c **** 
 891:.\Generated_Source\PSoC5/USB_std.c ****     /* The first entry points to the Device Descriptor,
 892:.\Generated_Source\PSoC5/USB_std.c ****        the the configuration entries  */
 893:.\Generated_Source\PSoC5/USB_std.c ****     return(pTmp[c + 1u].p_list);
 1889              		.loc 1 893 0
 1890 0012 FB79     		ldrb	r3, [r7, #7]	@ zero_extendqisi2
 1891 0014 03F10103 		add	r3, r3, #1
 1892 0018 4FEAC302 		lsl	r2, r3, #3
 1893 001c FB68     		ldr	r3, [r7, #12]
 1894 001e 1344     		add	r3, r2, r3
 1895 0020 5B68     		ldr	r3, [r3, #4]
 894:.\Generated_Source\PSoC5/USB_std.c **** }
ARM GAS  C:\Users\Craig\AppData\Local\Temp\cc9NnIsK.s 			page 50


 1896              		.loc 1 894 0
 1897 0022 1846     		mov	r0, r3
 1898 0024 07F11007 		add	r7, r7, #16
 1899 0028 BD46     		mov	sp, r7
 1900 002a 80BD     		pop	{r7, pc}
 1901              		.cfi_endproc
 1902              	.LFE5:
 1903              		.size	USB_GetConfigTablePtr, .-USB_GetConfigTablePtr
 1904              		.section	.text.USB_GetDeviceTablePtr,"ax",%progbits
 1905              		.align	2
 1906              		.global	USB_GetDeviceTablePtr
 1907              		.thumb
 1908              		.thumb_func
 1909              		.type	USB_GetDeviceTablePtr, %function
 1910              	USB_GetDeviceTablePtr:
 1911              	.LFB6:
 895:.\Generated_Source\PSoC5/USB_std.c **** 
 896:.\Generated_Source\PSoC5/USB_std.c **** 
 897:.\Generated_Source\PSoC5/USB_std.c **** /*******************************************************************************
 898:.\Generated_Source\PSoC5/USB_std.c **** * Function Name: USB_GetDeviceTablePtr
 899:.\Generated_Source\PSoC5/USB_std.c **** ********************************************************************************
 900:.\Generated_Source\PSoC5/USB_std.c **** *
 901:.\Generated_Source\PSoC5/USB_std.c **** * Summary:
 902:.\Generated_Source\PSoC5/USB_std.c **** *  This routine returns a pointer to the Device table
 903:.\Generated_Source\PSoC5/USB_std.c **** *
 904:.\Generated_Source\PSoC5/USB_std.c **** * Parameters:
 905:.\Generated_Source\PSoC5/USB_std.c **** *  None.
 906:.\Generated_Source\PSoC5/USB_std.c **** *
 907:.\Generated_Source\PSoC5/USB_std.c **** * Return:
 908:.\Generated_Source\PSoC5/USB_std.c **** *  Device Table pointer
 909:.\Generated_Source\PSoC5/USB_std.c **** *
 910:.\Generated_Source\PSoC5/USB_std.c **** *******************************************************************************/
 911:.\Generated_Source\PSoC5/USB_std.c **** T_USB_LUT *USB_GetDeviceTablePtr(void) 
 912:.\Generated_Source\PSoC5/USB_std.c **** {
 1912              		.loc 1 912 0
 1913              		.cfi_startproc
 1914              		@ args = 0, pretend = 0, frame = 0
 1915              		@ frame_needed = 1, uses_anonymous_args = 0
 1916              		@ link register save eliminated.
 1917 0000 80B4     		push	{r7}
 1918              	.LCFI18:
 1919              		.cfi_def_cfa_offset 4
 1920 0002 00AF     		add	r7, sp, #0
 1921              		.cfi_offset 7, -4
 1922              	.LCFI19:
 1923              		.cfi_def_cfa_register 7
 913:.\Generated_Source\PSoC5/USB_std.c ****     /* Device Table */
 914:.\Generated_Source\PSoC5/USB_std.c ****     return(USB_TABLE[USB_device].p_list);
 1924              		.loc 1 914 0
 1925 0004 40F20003 		movw	r3, #:lower16:USB_device
 1926 0008 C0F20003 		movt	r3, #:upper16:USB_device
 1927 000c 1B78     		ldrb	r3, [r3, #0]
 1928 000e DBB2     		uxtb	r3, r3
 1929 0010 40F20002 		movw	r2, #:lower16:USB_TABLE
 1930 0014 C0F20002 		movt	r2, #:upper16:USB_TABLE
 1931 0018 4FEAC303 		lsl	r3, r3, #3
 1932 001c 1344     		add	r3, r3, r2
ARM GAS  C:\Users\Craig\AppData\Local\Temp\cc9NnIsK.s 			page 51


 1933 001e 5B68     		ldr	r3, [r3, #4]
 915:.\Generated_Source\PSoC5/USB_std.c **** }
 1934              		.loc 1 915 0
 1935 0020 1846     		mov	r0, r3
 1936 0022 BD46     		mov	sp, r7
 1937 0024 80BC     		pop	{r7}
 1938 0026 7047     		bx	lr
 1939              		.cfi_endproc
 1940              	.LFE6:
 1941              		.size	USB_GetDeviceTablePtr, .-USB_GetDeviceTablePtr
 1942              		.section	.text.USB_GetInterfaceClassTablePtr,"ax",%progbits
 1943              		.align	2
 1944              		.global	USB_GetInterfaceClassTablePtr
 1945              		.thumb
 1946              		.thumb_func
 1947              		.type	USB_GetInterfaceClassTablePtr, %function
 1948              	USB_GetInterfaceClassTablePtr:
 1949              	.LFB7:
 916:.\Generated_Source\PSoC5/USB_std.c **** 
 917:.\Generated_Source\PSoC5/USB_std.c **** 
 918:.\Generated_Source\PSoC5/USB_std.c **** /*******************************************************************************
 919:.\Generated_Source\PSoC5/USB_std.c **** * Function Name: USB_GetInterfaceClassTablePtr
 920:.\Generated_Source\PSoC5/USB_std.c **** ********************************************************************************
 921:.\Generated_Source\PSoC5/USB_std.c **** *
 922:.\Generated_Source\PSoC5/USB_std.c **** * Summary:
 923:.\Generated_Source\PSoC5/USB_std.c **** *  This routine returns Interface Class table pointer, which contains
 924:.\Generated_Source\PSoC5/USB_std.c **** *  the relation between interface number and interface class.
 925:.\Generated_Source\PSoC5/USB_std.c **** *
 926:.\Generated_Source\PSoC5/USB_std.c **** * Parameters:
 927:.\Generated_Source\PSoC5/USB_std.c **** *  None.
 928:.\Generated_Source\PSoC5/USB_std.c **** *
 929:.\Generated_Source\PSoC5/USB_std.c **** * Return:
 930:.\Generated_Source\PSoC5/USB_std.c **** *  Interface Class table pointer.
 931:.\Generated_Source\PSoC5/USB_std.c **** *
 932:.\Generated_Source\PSoC5/USB_std.c **** *******************************************************************************/
 933:.\Generated_Source\PSoC5/USB_std.c **** uint8 CYCODE *USB_GetInterfaceClassTablePtr(void)
 934:.\Generated_Source\PSoC5/USB_std.c ****                                                         
 935:.\Generated_Source\PSoC5/USB_std.c **** {
 1950              		.loc 1 935 0
 1951              		.cfi_startproc
 1952              		@ args = 0, pretend = 0, frame = 8
 1953              		@ frame_needed = 1, uses_anonymous_args = 0
 1954 0000 80B5     		push	{r7, lr}
 1955              	.LCFI20:
 1956              		.cfi_def_cfa_offset 8
 1957 0002 82B0     		sub	sp, sp, #8
 1958              	.LCFI21:
 1959              		.cfi_def_cfa_offset 16
 1960 0004 00AF     		add	r7, sp, #0
 1961              		.cfi_offset 14, -4
 1962              		.cfi_offset 7, -8
 1963              	.LCFI22:
 1964              		.cfi_def_cfa_register 7
 936:.\Generated_Source\PSoC5/USB_std.c ****     T_USB_LUT *pTmp;
 937:.\Generated_Source\PSoC5/USB_std.c ****     uint8 currentInterfacesNum;
 938:.\Generated_Source\PSoC5/USB_std.c **** 
 939:.\Generated_Source\PSoC5/USB_std.c ****     pTmp = USB_GetConfigTablePtr(USB_configuration - 1u);
ARM GAS  C:\Users\Craig\AppData\Local\Temp\cc9NnIsK.s 			page 52


 1965              		.loc 1 939 0
 1966 0006 40F20003 		movw	r3, #:lower16:USB_configuration
 1967 000a C0F20003 		movt	r3, #:upper16:USB_configuration
 1968 000e 1B78     		ldrb	r3, [r3, #0]
 1969 0010 DBB2     		uxtb	r3, r3
 1970 0012 03F1FF33 		add	r3, r3, #-1
 1971 0016 DBB2     		uxtb	r3, r3
 1972 0018 1846     		mov	r0, r3
 1973 001a FFF7FEFF 		bl	USB_GetConfigTablePtr
 1974 001e 0346     		mov	r3, r0
 1975 0020 3B60     		str	r3, [r7, #0]
 940:.\Generated_Source\PSoC5/USB_std.c ****     currentInterfacesNum  = ((uint8 *) pTmp->p_list)[USB_CONFIG_DESCR_NUM_INTERFACES];
 1976              		.loc 1 940 0
 1977 0022 3B68     		ldr	r3, [r7, #0]
 1978 0024 5B68     		ldr	r3, [r3, #4]
 1979 0026 03F10403 		add	r3, r3, #4
 1980 002a 1B78     		ldrb	r3, [r3, #0]
 1981 002c FB71     		strb	r3, [r7, #7]
 941:.\Generated_Source\PSoC5/USB_std.c ****     /* Third entry in the LUT starts the Interface Table pointers */
 942:.\Generated_Source\PSoC5/USB_std.c ****     pTmp += 2;
 1982              		.loc 1 942 0
 1983 002e 3B68     		ldr	r3, [r7, #0]
 1984 0030 03F11003 		add	r3, r3, #16
 1985 0034 3B60     		str	r3, [r7, #0]
 943:.\Generated_Source\PSoC5/USB_std.c ****     /* The INTERFACE_CLASS table is located after all interfaces*/
 944:.\Generated_Source\PSoC5/USB_std.c ****     pTmp += currentInterfacesNum;
 1986              		.loc 1 944 0
 1987 0036 FB79     		ldrb	r3, [r7, #7]	@ zero_extendqisi2
 1988 0038 4FEAC303 		lsl	r3, r3, #3
 1989 003c 3A68     		ldr	r2, [r7, #0]
 1990 003e 1344     		add	r3, r2, r3
 1991 0040 3B60     		str	r3, [r7, #0]
 945:.\Generated_Source\PSoC5/USB_std.c ****     return(pTmp->p_list);
 1992              		.loc 1 945 0
 1993 0042 3B68     		ldr	r3, [r7, #0]
 1994 0044 5B68     		ldr	r3, [r3, #4]
 946:.\Generated_Source\PSoC5/USB_std.c **** }
 1995              		.loc 1 946 0
 1996 0046 1846     		mov	r0, r3
 1997 0048 07F10807 		add	r7, r7, #8
 1998 004c BD46     		mov	sp, r7
 1999 004e 80BD     		pop	{r7, pc}
 2000              		.cfi_endproc
 2001              	.LFE7:
 2002              		.size	USB_GetInterfaceClassTablePtr, .-USB_GetInterfaceClassTablePtr
 2003              		.section	.text.USB_TerminateEP,"ax",%progbits
 2004              		.align	2
 2005              		.global	USB_TerminateEP
 2006              		.thumb
 2007              		.thumb_func
 2008              		.type	USB_TerminateEP, %function
 2009              	USB_TerminateEP:
 2010              	.LFB8:
 947:.\Generated_Source\PSoC5/USB_std.c **** 
 948:.\Generated_Source\PSoC5/USB_std.c **** 
 949:.\Generated_Source\PSoC5/USB_std.c **** /*******************************************************************************
 950:.\Generated_Source\PSoC5/USB_std.c **** * Function Name: USB_TerminateEP
ARM GAS  C:\Users\Craig\AppData\Local\Temp\cc9NnIsK.s 			page 53


 951:.\Generated_Source\PSoC5/USB_std.c **** ********************************************************************************
 952:.\Generated_Source\PSoC5/USB_std.c **** *
 953:.\Generated_Source\PSoC5/USB_std.c **** * Summary:
 954:.\Generated_Source\PSoC5/USB_std.c **** *  This function terminates the specified USBFS endpoint. 
 955:.\Generated_Source\PSoC5/USB_std.c **** *  This function should be used before endpoint reconfiguration.
 956:.\Generated_Source\PSoC5/USB_std.c **** *
 957:.\Generated_Source\PSoC5/USB_std.c **** * Parameters:
 958:.\Generated_Source\PSoC5/USB_std.c **** *  Endpoint number.
 959:.\Generated_Source\PSoC5/USB_std.c **** *
 960:.\Generated_Source\PSoC5/USB_std.c **** * Return:
 961:.\Generated_Source\PSoC5/USB_std.c **** *  None.
 962:.\Generated_Source\PSoC5/USB_std.c **** *
 963:.\Generated_Source\PSoC5/USB_std.c **** * Reentrant:
 964:.\Generated_Source\PSoC5/USB_std.c **** *  No.
 965:.\Generated_Source\PSoC5/USB_std.c **** *
 966:.\Generated_Source\PSoC5/USB_std.c **** *******************************************************************************/
 967:.\Generated_Source\PSoC5/USB_std.c **** void USB_TerminateEP(uint8 ep) 
 968:.\Generated_Source\PSoC5/USB_std.c **** {
 2011              		.loc 1 968 0
 2012              		.cfi_startproc
 2013              		@ args = 0, pretend = 0, frame = 16
 2014              		@ frame_needed = 1, uses_anonymous_args = 0
 2015              		@ link register save eliminated.
 2016 0000 80B4     		push	{r7}
 2017              	.LCFI23:
 2018              		.cfi_def_cfa_offset 4
 2019 0002 85B0     		sub	sp, sp, #20
 2020              	.LCFI24:
 2021              		.cfi_def_cfa_offset 24
 2022 0004 00AF     		add	r7, sp, #0
 2023              		.cfi_offset 7, -4
 2024              	.LCFI25:
 2025              		.cfi_def_cfa_register 7
 2026 0006 0346     		mov	r3, r0
 2027 0008 FB71     		strb	r3, [r7, #7]
 969:.\Generated_Source\PSoC5/USB_std.c ****     uint8 ri;
 970:.\Generated_Source\PSoC5/USB_std.c **** 
 971:.\Generated_Source\PSoC5/USB_std.c ****     ep &= USB_DIR_UNUSED;
 2028              		.loc 1 971 0
 2029 000a FB79     		ldrb	r3, [r7, #7]
 2030 000c 03F07F03 		and	r3, r3, #127
 2031 0010 FB71     		strb	r3, [r7, #7]
 972:.\Generated_Source\PSoC5/USB_std.c ****     ri = ((ep - USB_EP1) << USB_EPX_CNTX_ADDR_SHIFT);
 2032              		.loc 1 972 0
 2033 0012 FB79     		ldrb	r3, [r7, #7]
 2034 0014 03F1FF33 		add	r3, r3, #-1
 2035 0018 DBB2     		uxtb	r3, r3
 2036 001a 4FEA0313 		lsl	r3, r3, #4
 2037 001e FB73     		strb	r3, [r7, #15]
 973:.\Generated_Source\PSoC5/USB_std.c **** 
 974:.\Generated_Source\PSoC5/USB_std.c ****     if ((ep > USB_EP0) && (ep < USB_MAX_EP))
 2038              		.loc 1 974 0
 2039 0020 FB79     		ldrb	r3, [r7, #7]	@ zero_extendqisi2
 2040 0022 002B     		cmp	r3, #0
 2041 0024 63D0     		beq	.L105
 2042 0026 FB79     		ldrb	r3, [r7, #7]	@ zero_extendqisi2
 2043 0028 082B     		cmp	r3, #8
ARM GAS  C:\Users\Craig\AppData\Local\Temp\cc9NnIsK.s 			page 54


 2044 002a 60D8     		bhi	.L105
 975:.\Generated_Source\PSoC5/USB_std.c ****     {
 976:.\Generated_Source\PSoC5/USB_std.c ****         /* Set the endpoint Halt */
 977:.\Generated_Source\PSoC5/USB_std.c ****         USB_EP[ep].hwEpState |= (USB_ENDPOINT_STATUS_HALT);
 2045              		.loc 1 977 0
 2046 002c F979     		ldrb	r1, [r7, #7]	@ zero_extendqisi2
 2047 002e F879     		ldrb	r0, [r7, #7]	@ zero_extendqisi2
 2048 0030 40F20002 		movw	r2, #:lower16:USB_EP
 2049 0034 C0F20002 		movt	r2, #:upper16:USB_EP
 2050 0038 0346     		mov	r3, r0
 2051 003a 4FEA4303 		lsl	r3, r3, #1
 2052 003e 0344     		add	r3, r3, r0
 2053 0040 4FEA8303 		lsl	r3, r3, #2
 2054 0044 1344     		add	r3, r3, r2
 2055 0046 9B78     		ldrb	r3, [r3, #2]
 2056 0048 DBB2     		uxtb	r3, r3
 2057 004a 43F00103 		orr	r3, r3, #1
 2058 004e D8B2     		uxtb	r0, r3
 2059 0050 40F20002 		movw	r2, #:lower16:USB_EP
 2060 0054 C0F20002 		movt	r2, #:upper16:USB_EP
 2061 0058 0B46     		mov	r3, r1
 2062 005a 4FEA4303 		lsl	r3, r3, #1
 2063 005e 0B44     		add	r3, r3, r1
 2064 0060 4FEA8303 		lsl	r3, r3, #2
 2065 0064 1344     		add	r3, r3, r2
 2066 0066 0246     		mov	r2, r0
 2067 0068 9A70     		strb	r2, [r3, #2]
 978:.\Generated_Source\PSoC5/USB_std.c **** 
 979:.\Generated_Source\PSoC5/USB_std.c ****         /* Clear the data toggle */
 980:.\Generated_Source\PSoC5/USB_std.c ****         USB_EP[ep].epToggle = 0u;
 2068              		.loc 1 980 0
 2069 006a F979     		ldrb	r1, [r7, #7]	@ zero_extendqisi2
 2070 006c 40F20002 		movw	r2, #:lower16:USB_EP
 2071 0070 C0F20002 		movt	r2, #:upper16:USB_EP
 2072 0074 0B46     		mov	r3, r1
 2073 0076 4FEA4303 		lsl	r3, r3, #1
 2074 007a 0B44     		add	r3, r3, r1
 2075 007c 4FEA8303 		lsl	r3, r3, #2
 2076 0080 1344     		add	r3, r3, r2
 2077 0082 4FF00002 		mov	r2, #0
 2078 0086 DA70     		strb	r2, [r3, #3]
 981:.\Generated_Source\PSoC5/USB_std.c ****         USB_EP[ep].apiEpState = USB_NO_EVENT_ALLOWED;
 2079              		.loc 1 981 0
 2080 0088 F979     		ldrb	r1, [r7, #7]	@ zero_extendqisi2
 2081 008a 40F20002 		movw	r2, #:lower16:USB_EP
 2082 008e C0F20002 		movt	r2, #:upper16:USB_EP
 2083 0092 0B46     		mov	r3, r1
 2084 0094 4FEA4303 		lsl	r3, r3, #1
 2085 0098 0B44     		add	r3, r3, r1
 2086 009a 4FEA8303 		lsl	r3, r3, #2
 2087 009e 1344     		add	r3, r3, r2
 2088 00a0 4FF00202 		mov	r2, #2
 2089 00a4 5A70     		strb	r2, [r3, #1]
 982:.\Generated_Source\PSoC5/USB_std.c **** 
 983:.\Generated_Source\PSoC5/USB_std.c ****         if (USB_EP[ep].addr & USB_DIR_IN)
 2090              		.loc 1 983 0
 2091 00a6 F979     		ldrb	r1, [r7, #7]	@ zero_extendqisi2
ARM GAS  C:\Users\Craig\AppData\Local\Temp\cc9NnIsK.s 			page 55


 2092 00a8 40F20002 		movw	r2, #:lower16:USB_EP
 2093 00ac C0F20002 		movt	r2, #:upper16:USB_EP
 2094 00b0 0B46     		mov	r3, r1
 2095 00b2 4FEA4303 		lsl	r3, r3, #1
 2096 00b6 0B44     		add	r3, r3, r1
 2097 00b8 4FEA8303 		lsl	r3, r3, #2
 2098 00bc 1344     		add	r3, r3, r2
 2099 00be 1B79     		ldrb	r3, [r3, #4]
 2100 00c0 DBB2     		uxtb	r3, r3
 2101 00c2 5BB2     		sxtb	r3, r3
 2102 00c4 002B     		cmp	r3, #0
 2103 00c6 09DA     		bge	.L104
 984:.\Generated_Source\PSoC5/USB_std.c ****         {
 985:.\Generated_Source\PSoC5/USB_std.c ****             /* IN Endpoint */
 986:.\Generated_Source\PSoC5/USB_std.c ****             CY_SET_REG8(&USB_SIE_EP1_CR0_PTR[ri], USB_MODE_NAK_IN);
 2104              		.loc 1 986 0
 2105 00c8 FA7B     		ldrb	r2, [r7, #15]	@ zero_extendqisi2
 2106 00ca 46F20E03 		movw	r3, #:lower16:1073766414
 2107 00ce C4F20003 		movt	r3, #:upper16:1073766414
 2108 00d2 1344     		add	r3, r2, r3
 2109 00d4 4FF00C02 		mov	r2, #12
 2110 00d8 1A70     		strb	r2, [r3, #0]
 2111 00da 08E0     		b	.L105
 2112              	.L104:
 987:.\Generated_Source\PSoC5/USB_std.c ****         }
 988:.\Generated_Source\PSoC5/USB_std.c ****         else
 989:.\Generated_Source\PSoC5/USB_std.c ****         {
 990:.\Generated_Source\PSoC5/USB_std.c ****             /* OUT Endpoint */
 991:.\Generated_Source\PSoC5/USB_std.c ****             CY_SET_REG8(&USB_SIE_EP1_CR0_PTR[ri], USB_MODE_NAK_OUT);
 2113              		.loc 1 991 0
 2114 00dc FA7B     		ldrb	r2, [r7, #15]	@ zero_extendqisi2
 2115 00de 46F20E03 		movw	r3, #:lower16:1073766414
 2116 00e2 C4F20003 		movt	r3, #:upper16:1073766414
 2117 00e6 1344     		add	r3, r2, r3
 2118 00e8 4FF00802 		mov	r2, #8
 2119 00ec 1A70     		strb	r2, [r3, #0]
 2120              	.L105:
 992:.\Generated_Source\PSoC5/USB_std.c ****         }
 993:.\Generated_Source\PSoC5/USB_std.c ****     }
 994:.\Generated_Source\PSoC5/USB_std.c **** }
 2121              		.loc 1 994 0
 2122 00ee 07F11407 		add	r7, r7, #20
 2123 00f2 BD46     		mov	sp, r7
 2124 00f4 80BC     		pop	{r7}
 2125 00f6 7047     		bx	lr
 2126              		.cfi_endproc
 2127              	.LFE8:
 2128              		.size	USB_TerminateEP, .-USB_TerminateEP
 2129              		.section	.text.USB_SetEndpointHalt,"ax",%progbits
 2130              		.align	2
 2131              		.global	USB_SetEndpointHalt
 2132              		.thumb
 2133              		.thumb_func
 2134              		.type	USB_SetEndpointHalt, %function
 2135              	USB_SetEndpointHalt:
 2136              	.LFB9:
 995:.\Generated_Source\PSoC5/USB_std.c **** 
ARM GAS  C:\Users\Craig\AppData\Local\Temp\cc9NnIsK.s 			page 56


 996:.\Generated_Source\PSoC5/USB_std.c **** 
 997:.\Generated_Source\PSoC5/USB_std.c **** /*******************************************************************************
 998:.\Generated_Source\PSoC5/USB_std.c **** * Function Name: USB_SetEndpointHalt
 999:.\Generated_Source\PSoC5/USB_std.c **** ********************************************************************************
1000:.\Generated_Source\PSoC5/USB_std.c **** *
1001:.\Generated_Source\PSoC5/USB_std.c **** * Summary:
1002:.\Generated_Source\PSoC5/USB_std.c **** *  This routine handles set endpoint halt.
1003:.\Generated_Source\PSoC5/USB_std.c **** *
1004:.\Generated_Source\PSoC5/USB_std.c **** * Parameters:
1005:.\Generated_Source\PSoC5/USB_std.c **** *  None.
1006:.\Generated_Source\PSoC5/USB_std.c **** *
1007:.\Generated_Source\PSoC5/USB_std.c **** * Return:
1008:.\Generated_Source\PSoC5/USB_std.c **** *  requestHandled.
1009:.\Generated_Source\PSoC5/USB_std.c **** *
1010:.\Generated_Source\PSoC5/USB_std.c **** * Reentrant:
1011:.\Generated_Source\PSoC5/USB_std.c **** *  No.
1012:.\Generated_Source\PSoC5/USB_std.c **** *
1013:.\Generated_Source\PSoC5/USB_std.c **** *******************************************************************************/
1014:.\Generated_Source\PSoC5/USB_std.c **** uint8 USB_SetEndpointHalt(void) 
1015:.\Generated_Source\PSoC5/USB_std.c **** {
 2137              		.loc 1 1015 0
 2138              		.cfi_startproc
 2139              		@ args = 0, pretend = 0, frame = 8
 2140              		@ frame_needed = 1, uses_anonymous_args = 0
 2141 0000 80B5     		push	{r7, lr}
 2142              	.LCFI26:
 2143              		.cfi_def_cfa_offset 8
 2144 0002 82B0     		sub	sp, sp, #8
 2145              	.LCFI27:
 2146              		.cfi_def_cfa_offset 16
 2147 0004 00AF     		add	r7, sp, #0
 2148              		.cfi_offset 14, -4
 2149              		.cfi_offset 7, -8
 2150              	.LCFI28:
 2151              		.cfi_def_cfa_register 7
1016:.\Generated_Source\PSoC5/USB_std.c ****     uint8 ep, ri;
1017:.\Generated_Source\PSoC5/USB_std.c ****     uint8 requestHandled = USB_FALSE;
 2152              		.loc 1 1017 0
 2153 0006 4FF00003 		mov	r3, #0
 2154 000a FB71     		strb	r3, [r7, #7]
1018:.\Generated_Source\PSoC5/USB_std.c **** 
1019:.\Generated_Source\PSoC5/USB_std.c ****     /* Set endpoint halt */
1020:.\Generated_Source\PSoC5/USB_std.c ****     ep = CY_GET_REG8(USB_wIndexLo) & USB_DIR_UNUSED;
 2155              		.loc 1 1020 0
 2156 000c 46F20403 		movw	r3, #:lower16:1073766404
 2157 0010 C4F20003 		movt	r3, #:upper16:1073766404
 2158 0014 1B78     		ldrb	r3, [r3, #0]
 2159 0016 DBB2     		uxtb	r3, r3
 2160 0018 03F07F03 		and	r3, r3, #127
 2161 001c 7B71     		strb	r3, [r7, #5]
1021:.\Generated_Source\PSoC5/USB_std.c ****     ri = ((ep - USB_EP1) << USB_EPX_CNTX_ADDR_SHIFT);
 2162              		.loc 1 1021 0
 2163 001e 7B79     		ldrb	r3, [r7, #5]
 2164 0020 03F1FF33 		add	r3, r3, #-1
 2165 0024 DBB2     		uxtb	r3, r3
 2166 0026 4FEA0313 		lsl	r3, r3, #4
 2167 002a BB71     		strb	r3, [r7, #6]
ARM GAS  C:\Users\Craig\AppData\Local\Temp\cc9NnIsK.s 			page 57


1022:.\Generated_Source\PSoC5/USB_std.c **** 
1023:.\Generated_Source\PSoC5/USB_std.c ****     if ((ep > USB_EP0) && (ep < USB_MAX_EP))
 2168              		.loc 1 1023 0
 2169 002c 7B79     		ldrb	r3, [r7, #5]	@ zero_extendqisi2
 2170 002e 002B     		cmp	r3, #0
 2171 0030 77D0     		beq	.L107
 2172 0032 7B79     		ldrb	r3, [r7, #5]	@ zero_extendqisi2
 2173 0034 082B     		cmp	r3, #8
 2174 0036 74D8     		bhi	.L107
1024:.\Generated_Source\PSoC5/USB_std.c ****     {
1025:.\Generated_Source\PSoC5/USB_std.c ****         /* Set the endpoint Halt */
1026:.\Generated_Source\PSoC5/USB_std.c ****         USB_EP[ep].hwEpState |= (USB_ENDPOINT_STATUS_HALT);
 2175              		.loc 1 1026 0
 2176 0038 7979     		ldrb	r1, [r7, #5]	@ zero_extendqisi2
 2177 003a 7879     		ldrb	r0, [r7, #5]	@ zero_extendqisi2
 2178 003c 40F20002 		movw	r2, #:lower16:USB_EP
 2179 0040 C0F20002 		movt	r2, #:upper16:USB_EP
 2180 0044 0346     		mov	r3, r0
 2181 0046 4FEA4303 		lsl	r3, r3, #1
 2182 004a 0344     		add	r3, r3, r0
 2183 004c 4FEA8303 		lsl	r3, r3, #2
 2184 0050 1344     		add	r3, r3, r2
 2185 0052 9B78     		ldrb	r3, [r3, #2]
 2186 0054 DBB2     		uxtb	r3, r3
 2187 0056 43F00103 		orr	r3, r3, #1
 2188 005a D8B2     		uxtb	r0, r3
 2189 005c 40F20002 		movw	r2, #:lower16:USB_EP
 2190 0060 C0F20002 		movt	r2, #:upper16:USB_EP
 2191 0064 0B46     		mov	r3, r1
 2192 0066 4FEA4303 		lsl	r3, r3, #1
 2193 006a 0B44     		add	r3, r3, r1
 2194 006c 4FEA8303 		lsl	r3, r3, #2
 2195 0070 1344     		add	r3, r3, r2
 2196 0072 0246     		mov	r2, r0
 2197 0074 9A70     		strb	r2, [r3, #2]
1027:.\Generated_Source\PSoC5/USB_std.c **** 
1028:.\Generated_Source\PSoC5/USB_std.c ****         /* Clear the data toggle */
1029:.\Generated_Source\PSoC5/USB_std.c ****         USB_EP[ep].epToggle = 0u;
 2198              		.loc 1 1029 0
 2199 0076 7979     		ldrb	r1, [r7, #5]	@ zero_extendqisi2
 2200 0078 40F20002 		movw	r2, #:lower16:USB_EP
 2201 007c C0F20002 		movt	r2, #:upper16:USB_EP
 2202 0080 0B46     		mov	r3, r1
 2203 0082 4FEA4303 		lsl	r3, r3, #1
 2204 0086 0B44     		add	r3, r3, r1
 2205 0088 4FEA8303 		lsl	r3, r3, #2
 2206 008c 1344     		add	r3, r3, r2
 2207 008e 4FF00002 		mov	r2, #0
 2208 0092 DA70     		strb	r2, [r3, #3]
1030:.\Generated_Source\PSoC5/USB_std.c ****         USB_EP[ep].apiEpState |= USB_NO_EVENT_ALLOWED;
 2209              		.loc 1 1030 0
 2210 0094 7979     		ldrb	r1, [r7, #5]	@ zero_extendqisi2
 2211 0096 7879     		ldrb	r0, [r7, #5]	@ zero_extendqisi2
 2212 0098 40F20002 		movw	r2, #:lower16:USB_EP
 2213 009c C0F20002 		movt	r2, #:upper16:USB_EP
 2214 00a0 0346     		mov	r3, r0
 2215 00a2 4FEA4303 		lsl	r3, r3, #1
ARM GAS  C:\Users\Craig\AppData\Local\Temp\cc9NnIsK.s 			page 58


 2216 00a6 0344     		add	r3, r3, r0
 2217 00a8 4FEA8303 		lsl	r3, r3, #2
 2218 00ac 1344     		add	r3, r3, r2
 2219 00ae 5B78     		ldrb	r3, [r3, #1]
 2220 00b0 DBB2     		uxtb	r3, r3
 2221 00b2 43F00203 		orr	r3, r3, #2
 2222 00b6 D8B2     		uxtb	r0, r3
 2223 00b8 40F20002 		movw	r2, #:lower16:USB_EP
 2224 00bc C0F20002 		movt	r2, #:upper16:USB_EP
 2225 00c0 0B46     		mov	r3, r1
 2226 00c2 4FEA4303 		lsl	r3, r3, #1
 2227 00c6 0B44     		add	r3, r3, r1
 2228 00c8 4FEA8303 		lsl	r3, r3, #2
 2229 00cc 1344     		add	r3, r3, r2
 2230 00ce 0246     		mov	r2, r0
 2231 00d0 5A70     		strb	r2, [r3, #1]
1031:.\Generated_Source\PSoC5/USB_std.c **** 
1032:.\Generated_Source\PSoC5/USB_std.c ****         if (USB_EP[ep].addr & USB_DIR_IN)
 2232              		.loc 1 1032 0
 2233 00d2 7979     		ldrb	r1, [r7, #5]	@ zero_extendqisi2
 2234 00d4 40F20002 		movw	r2, #:lower16:USB_EP
 2235 00d8 C0F20002 		movt	r2, #:upper16:USB_EP
 2236 00dc 0B46     		mov	r3, r1
 2237 00de 4FEA4303 		lsl	r3, r3, #1
 2238 00e2 0B44     		add	r3, r3, r1
 2239 00e4 4FEA8303 		lsl	r3, r3, #2
 2240 00e8 1344     		add	r3, r3, r2
 2241 00ea 1B79     		ldrb	r3, [r3, #4]
 2242 00ec DBB2     		uxtb	r3, r3
 2243 00ee 5BB2     		sxtb	r3, r3
 2244 00f0 002B     		cmp	r3, #0
 2245 00f2 09DA     		bge	.L108
1033:.\Generated_Source\PSoC5/USB_std.c ****         {
1034:.\Generated_Source\PSoC5/USB_std.c ****             /* IN Endpoint */
1035:.\Generated_Source\PSoC5/USB_std.c ****             CY_SET_REG8(&USB_SIE_EP1_CR0_PTR[ri], USB_MODE_STALL_DATA_EP |
 2246              		.loc 1 1035 0
 2247 00f4 BA79     		ldrb	r2, [r7, #6]	@ zero_extendqisi2
 2248 00f6 46F20E03 		movw	r3, #:lower16:1073766414
 2249 00fa C4F20003 		movt	r3, #:upper16:1073766414
 2250 00fe 1344     		add	r3, r2, r3
 2251 0100 6FF07202 		mvn	r2, #114
 2252 0104 1A70     		strb	r2, [r3, #0]
 2253 0106 08E0     		b	.L109
 2254              	.L108:
1036:.\Generated_Source\PSoC5/USB_std.c ****                                                                USB_MODE_ACK_IN);
1037:.\Generated_Source\PSoC5/USB_std.c ****         }
1038:.\Generated_Source\PSoC5/USB_std.c ****         else
1039:.\Generated_Source\PSoC5/USB_std.c ****         {
1040:.\Generated_Source\PSoC5/USB_std.c ****             /* OUT Endpoint */
1041:.\Generated_Source\PSoC5/USB_std.c ****             CY_SET_REG8(&USB_SIE_EP1_CR0_PTR[ri], USB_MODE_STALL_DATA_EP |
 2255              		.loc 1 1041 0
 2256 0108 BA79     		ldrb	r2, [r7, #6]	@ zero_extendqisi2
 2257 010a 46F20E03 		movw	r3, #:lower16:1073766414
 2258 010e C4F20003 		movt	r3, #:upper16:1073766414
 2259 0112 1344     		add	r3, r2, r3
 2260 0114 6FF07602 		mvn	r2, #118
 2261 0118 1A70     		strb	r2, [r3, #0]
ARM GAS  C:\Users\Craig\AppData\Local\Temp\cc9NnIsK.s 			page 59


 2262              	.L109:
1042:.\Generated_Source\PSoC5/USB_std.c ****                                                                USB_MODE_ACK_OUT);
1043:.\Generated_Source\PSoC5/USB_std.c ****         }
1044:.\Generated_Source\PSoC5/USB_std.c ****         requestHandled = USB_InitNoDataControlTransfer();
 2263              		.loc 1 1044 0
 2264 011a FFF7FEFF 		bl	USB_InitNoDataControlTransfer
 2265 011e 0346     		mov	r3, r0
 2266 0120 FB71     		strb	r3, [r7, #7]
 2267              	.L107:
1045:.\Generated_Source\PSoC5/USB_std.c ****     }
1046:.\Generated_Source\PSoC5/USB_std.c **** 
1047:.\Generated_Source\PSoC5/USB_std.c ****     return(requestHandled);
 2268              		.loc 1 1047 0
 2269 0122 FB79     		ldrb	r3, [r7, #7]	@ zero_extendqisi2
1048:.\Generated_Source\PSoC5/USB_std.c **** }
 2270              		.loc 1 1048 0
 2271 0124 1846     		mov	r0, r3
 2272 0126 07F10807 		add	r7, r7, #8
 2273 012a BD46     		mov	sp, r7
 2274 012c 80BD     		pop	{r7, pc}
 2275              		.cfi_endproc
 2276              	.LFE9:
 2277              		.size	USB_SetEndpointHalt, .-USB_SetEndpointHalt
 2278 012e 00BF     		.section	.text.USB_ClearEndpointHalt,"ax",%progbits
 2279              		.align	2
 2280              		.global	USB_ClearEndpointHalt
 2281              		.thumb
 2282              		.thumb_func
 2283              		.type	USB_ClearEndpointHalt, %function
 2284              	USB_ClearEndpointHalt:
 2285              	.LFB10:
1049:.\Generated_Source\PSoC5/USB_std.c **** 
1050:.\Generated_Source\PSoC5/USB_std.c **** 
1051:.\Generated_Source\PSoC5/USB_std.c **** /*******************************************************************************
1052:.\Generated_Source\PSoC5/USB_std.c **** * Function Name: USB_ClearEndpointHalt
1053:.\Generated_Source\PSoC5/USB_std.c **** ********************************************************************************
1054:.\Generated_Source\PSoC5/USB_std.c **** *
1055:.\Generated_Source\PSoC5/USB_std.c **** * Summary:
1056:.\Generated_Source\PSoC5/USB_std.c **** *  This routine handles clear endpoint halt.
1057:.\Generated_Source\PSoC5/USB_std.c **** *
1058:.\Generated_Source\PSoC5/USB_std.c **** * Parameters:
1059:.\Generated_Source\PSoC5/USB_std.c **** *  None.
1060:.\Generated_Source\PSoC5/USB_std.c **** *
1061:.\Generated_Source\PSoC5/USB_std.c **** * Return:
1062:.\Generated_Source\PSoC5/USB_std.c **** *  requestHandled.
1063:.\Generated_Source\PSoC5/USB_std.c **** *
1064:.\Generated_Source\PSoC5/USB_std.c **** * Reentrant:
1065:.\Generated_Source\PSoC5/USB_std.c **** *  No.
1066:.\Generated_Source\PSoC5/USB_std.c **** *
1067:.\Generated_Source\PSoC5/USB_std.c **** *******************************************************************************/
1068:.\Generated_Source\PSoC5/USB_std.c **** uint8 USB_ClearEndpointHalt(void) 
1069:.\Generated_Source\PSoC5/USB_std.c **** {
 2286              		.loc 1 1069 0
 2287              		.cfi_startproc
 2288              		@ args = 0, pretend = 0, frame = 8
 2289              		@ frame_needed = 1, uses_anonymous_args = 0
 2290 0000 80B5     		push	{r7, lr}
ARM GAS  C:\Users\Craig\AppData\Local\Temp\cc9NnIsK.s 			page 60


 2291              	.LCFI29:
 2292              		.cfi_def_cfa_offset 8
 2293 0002 82B0     		sub	sp, sp, #8
 2294              	.LCFI30:
 2295              		.cfi_def_cfa_offset 16
 2296 0004 00AF     		add	r7, sp, #0
 2297              		.cfi_offset 14, -4
 2298              		.cfi_offset 7, -8
 2299              	.LCFI31:
 2300              		.cfi_def_cfa_register 7
1070:.\Generated_Source\PSoC5/USB_std.c ****     uint8 ep, ri;
1071:.\Generated_Source\PSoC5/USB_std.c ****     uint8 requestHandled = USB_FALSE;
 2301              		.loc 1 1071 0
 2302 0006 4FF00003 		mov	r3, #0
 2303 000a FB71     		strb	r3, [r7, #7]
1072:.\Generated_Source\PSoC5/USB_std.c **** 
1073:.\Generated_Source\PSoC5/USB_std.c ****     /* Clear endpoint halt */
1074:.\Generated_Source\PSoC5/USB_std.c ****     ep = CY_GET_REG8(USB_wIndexLo) & USB_DIR_UNUSED;
 2304              		.loc 1 1074 0
 2305 000c 46F20403 		movw	r3, #:lower16:1073766404
 2306 0010 C4F20003 		movt	r3, #:upper16:1073766404
 2307 0014 1B78     		ldrb	r3, [r3, #0]
 2308 0016 DBB2     		uxtb	r3, r3
 2309 0018 03F07F03 		and	r3, r3, #127
 2310 001c 7B71     		strb	r3, [r7, #5]
1075:.\Generated_Source\PSoC5/USB_std.c ****     ri = ((ep - USB_EP1) << USB_EPX_CNTX_ADDR_SHIFT);
 2311              		.loc 1 1075 0
 2312 001e 7B79     		ldrb	r3, [r7, #5]
 2313 0020 03F1FF33 		add	r3, r3, #-1
 2314 0024 DBB2     		uxtb	r3, r3
 2315 0026 4FEA0313 		lsl	r3, r3, #4
 2316 002a BB71     		strb	r3, [r7, #6]
1076:.\Generated_Source\PSoC5/USB_std.c **** 
1077:.\Generated_Source\PSoC5/USB_std.c ****     if ((ep > USB_EP0) && (ep < USB_MAX_EP))
 2317              		.loc 1 1077 0
 2318 002c 7B79     		ldrb	r3, [r7, #5]	@ zero_extendqisi2
 2319 002e 002B     		cmp	r3, #0
 2320 0030 00F0BC80 		beq	.L112
 2321 0034 7B79     		ldrb	r3, [r7, #5]	@ zero_extendqisi2
 2322 0036 082B     		cmp	r3, #8
 2323 0038 00F2B880 		bhi	.L112
1078:.\Generated_Source\PSoC5/USB_std.c ****     {
1079:.\Generated_Source\PSoC5/USB_std.c ****         /* Clear the endpoint Halt */
1080:.\Generated_Source\PSoC5/USB_std.c ****         USB_EP[ep].hwEpState &= ~(USB_ENDPOINT_STATUS_HALT);
 2324              		.loc 1 1080 0
 2325 003c 7879     		ldrb	r0, [r7, #5]	@ zero_extendqisi2
 2326 003e 7979     		ldrb	r1, [r7, #5]	@ zero_extendqisi2
 2327 0040 40F20002 		movw	r2, #:lower16:USB_EP
 2328 0044 C0F20002 		movt	r2, #:upper16:USB_EP
 2329 0048 0B46     		mov	r3, r1
 2330 004a 4FEA4303 		lsl	r3, r3, #1
 2331 004e 0B44     		add	r3, r3, r1
 2332 0050 4FEA8303 		lsl	r3, r3, #2
 2333 0054 1344     		add	r3, r3, r2
 2334 0056 9B78     		ldrb	r3, [r3, #2]
 2335 0058 DBB2     		uxtb	r3, r3
 2336 005a 1A46     		mov	r2, r3
ARM GAS  C:\Users\Craig\AppData\Local\Temp\cc9NnIsK.s 			page 61


 2337 005c 02F0FE02 		and	r2, r2, #254
 2338 0060 40F20001 		movw	r1, #:lower16:USB_EP
 2339 0064 C0F20001 		movt	r1, #:upper16:USB_EP
 2340 0068 0346     		mov	r3, r0
 2341 006a 4FEA4303 		lsl	r3, r3, #1
 2342 006e 0344     		add	r3, r3, r0
 2343 0070 4FEA8303 		lsl	r3, r3, #2
 2344 0074 0B44     		add	r3, r3, r1
 2345 0076 9A70     		strb	r2, [r3, #2]
1081:.\Generated_Source\PSoC5/USB_std.c **** 
1082:.\Generated_Source\PSoC5/USB_std.c ****         /* Clear the data toggle */
1083:.\Generated_Source\PSoC5/USB_std.c ****         USB_EP[ep].epToggle = 0u;
 2346              		.loc 1 1083 0
 2347 0078 7979     		ldrb	r1, [r7, #5]	@ zero_extendqisi2
 2348 007a 40F20002 		movw	r2, #:lower16:USB_EP
 2349 007e C0F20002 		movt	r2, #:upper16:USB_EP
 2350 0082 0B46     		mov	r3, r1
 2351 0084 4FEA4303 		lsl	r3, r3, #1
 2352 0088 0B44     		add	r3, r3, r1
 2353 008a 4FEA8303 		lsl	r3, r3, #2
 2354 008e 1344     		add	r3, r3, r2
 2355 0090 4FF00002 		mov	r2, #0
 2356 0094 DA70     		strb	r2, [r3, #3]
1084:.\Generated_Source\PSoC5/USB_std.c ****         /* Clear toggle bit for already armed packet */
1085:.\Generated_Source\PSoC5/USB_std.c ****         CY_SET_REG8(&USB_SIE_EP1_CNT0_PTR[ri], 
 2357              		.loc 1 1085 0
 2358 0096 BA79     		ldrb	r2, [r7, #6]	@ zero_extendqisi2
 2359 0098 46F20C03 		movw	r3, #:lower16:1073766412
 2360 009c C4F20003 		movt	r3, #:upper16:1073766412
 2361 00a0 1344     		add	r3, r2, r3
 2362 00a2 B979     		ldrb	r1, [r7, #6]	@ zero_extendqisi2
 2363 00a4 46F20C02 		movw	r2, #:lower16:1073766412
 2364 00a8 C4F20002 		movt	r2, #:upper16:1073766412
 2365 00ac 0A44     		add	r2, r1, r2
 2366 00ae 1278     		ldrb	r2, [r2, #0]
 2367 00b0 D2B2     		uxtb	r2, r2
 2368 00b2 02F07F02 		and	r2, r2, #127
 2369 00b6 1A70     		strb	r2, [r3, #0]
1086:.\Generated_Source\PSoC5/USB_std.c ****                     CY_GET_REG8(&USB_SIE_EP1_CNT0_PTR[ri]) & ~USB_EPX_CNT_DATA_TOGGLE);
1087:.\Generated_Source\PSoC5/USB_std.c ****         /* Return api State as it was defined before */
1088:.\Generated_Source\PSoC5/USB_std.c ****         USB_EP[ep].apiEpState &= ~USB_NO_EVENT_ALLOWED;
 2370              		.loc 1 1088 0
 2371 00b8 7879     		ldrb	r0, [r7, #5]	@ zero_extendqisi2
 2372 00ba 7979     		ldrb	r1, [r7, #5]	@ zero_extendqisi2
 2373 00bc 40F20002 		movw	r2, #:lower16:USB_EP
 2374 00c0 C0F20002 		movt	r2, #:upper16:USB_EP
 2375 00c4 0B46     		mov	r3, r1
 2376 00c6 4FEA4303 		lsl	r3, r3, #1
 2377 00ca 0B44     		add	r3, r3, r1
 2378 00cc 4FEA8303 		lsl	r3, r3, #2
 2379 00d0 1344     		add	r3, r3, r2
 2380 00d2 5B78     		ldrb	r3, [r3, #1]
 2381 00d4 DBB2     		uxtb	r3, r3
 2382 00d6 1A46     		mov	r2, r3
 2383 00d8 02F0FD02 		and	r2, r2, #253
 2384 00dc 40F20001 		movw	r1, #:lower16:USB_EP
 2385 00e0 C0F20001 		movt	r1, #:upper16:USB_EP
ARM GAS  C:\Users\Craig\AppData\Local\Temp\cc9NnIsK.s 			page 62


 2386 00e4 0346     		mov	r3, r0
 2387 00e6 4FEA4303 		lsl	r3, r3, #1
 2388 00ea 0344     		add	r3, r3, r0
 2389 00ec 4FEA8303 		lsl	r3, r3, #2
 2390 00f0 0B44     		add	r3, r3, r1
 2391 00f2 5A70     		strb	r2, [r3, #1]
1089:.\Generated_Source\PSoC5/USB_std.c **** 
1090:.\Generated_Source\PSoC5/USB_std.c ****         if (USB_EP[ep].addr & USB_DIR_IN)
 2392              		.loc 1 1090 0
 2393 00f4 7979     		ldrb	r1, [r7, #5]	@ zero_extendqisi2
 2394 00f6 40F20002 		movw	r2, #:lower16:USB_EP
 2395 00fa C0F20002 		movt	r2, #:upper16:USB_EP
 2396 00fe 0B46     		mov	r3, r1
 2397 0100 4FEA4303 		lsl	r3, r3, #1
 2398 0104 0B44     		add	r3, r3, r1
 2399 0106 4FEA8303 		lsl	r3, r3, #2
 2400 010a 1344     		add	r3, r3, r2
 2401 010c 1B79     		ldrb	r3, [r3, #4]
 2402 010e DBB2     		uxtb	r3, r3
 2403 0110 5BB2     		sxtb	r3, r3
 2404 0112 002B     		cmp	r3, #0
 2405 0114 23DA     		bge	.L113
1091:.\Generated_Source\PSoC5/USB_std.c ****         {
1092:.\Generated_Source\PSoC5/USB_std.c ****             /* IN Endpoint */
1093:.\Generated_Source\PSoC5/USB_std.c ****             if(USB_EP[ep].apiEpState == USB_IN_BUFFER_EMPTY)
 2406              		.loc 1 1093 0
 2407 0116 7979     		ldrb	r1, [r7, #5]	@ zero_extendqisi2
 2408 0118 40F20002 		movw	r2, #:lower16:USB_EP
 2409 011c C0F20002 		movt	r2, #:upper16:USB_EP
 2410 0120 0B46     		mov	r3, r1
 2411 0122 4FEA4303 		lsl	r3, r3, #1
 2412 0126 0B44     		add	r3, r3, r1
 2413 0128 4FEA8303 		lsl	r3, r3, #2
 2414 012c 1344     		add	r3, r3, r2
 2415 012e 5B78     		ldrb	r3, [r3, #1]
 2416 0130 DBB2     		uxtb	r3, r3
 2417 0132 012B     		cmp	r3, #1
 2418 0134 09D1     		bne	.L114
1094:.\Generated_Source\PSoC5/USB_std.c ****             {       /* Wait for next packet from application */
1095:.\Generated_Source\PSoC5/USB_std.c ****                 CY_SET_REG8(&USB_SIE_EP1_CR0_PTR[ri], USB_MODE_NAK_IN);
 2419              		.loc 1 1095 0
 2420 0136 BA79     		ldrb	r2, [r7, #6]	@ zero_extendqisi2
 2421 0138 46F20E03 		movw	r3, #:lower16:1073766414
 2422 013c C4F20003 		movt	r3, #:upper16:1073766414
 2423 0140 1344     		add	r3, r2, r3
 2424 0142 4FF00C02 		mov	r2, #12
 2425 0146 1A70     		strb	r2, [r3, #0]
1096:.\Generated_Source\PSoC5/USB_std.c ****             }
1097:.\Generated_Source\PSoC5/USB_std.c ****             else    /* Continue armed transfer */
1098:.\Generated_Source\PSoC5/USB_std.c ****             {
1099:.\Generated_Source\PSoC5/USB_std.c ****                 CY_SET_REG8(&USB_SIE_EP1_CR0_PTR[ri], USB_MODE_ACK_IN);
 2426              		.loc 1 1099 0
 2427 0148 2CE0     		b	.L116
 2428              	.L114:
 2429 014a BA79     		ldrb	r2, [r7, #6]	@ zero_extendqisi2
 2430 014c 46F20E03 		movw	r3, #:lower16:1073766414
 2431 0150 C4F20003 		movt	r3, #:upper16:1073766414
ARM GAS  C:\Users\Craig\AppData\Local\Temp\cc9NnIsK.s 			page 63


 2432 0154 1344     		add	r3, r2, r3
 2433 0156 4FF00D02 		mov	r2, #13
 2434 015a 1A70     		strb	r2, [r3, #0]
 2435 015c 22E0     		b	.L116
 2436              	.L113:
1100:.\Generated_Source\PSoC5/USB_std.c ****             }
1101:.\Generated_Source\PSoC5/USB_std.c ****         }
1102:.\Generated_Source\PSoC5/USB_std.c ****         else
1103:.\Generated_Source\PSoC5/USB_std.c ****         {
1104:.\Generated_Source\PSoC5/USB_std.c ****             /* OUT Endpoint */
1105:.\Generated_Source\PSoC5/USB_std.c ****             if(USB_EP[ep].apiEpState == USB_OUT_BUFFER_FULL)
 2437              		.loc 1 1105 0
 2438 015e 7979     		ldrb	r1, [r7, #5]	@ zero_extendqisi2
 2439 0160 40F20002 		movw	r2, #:lower16:USB_EP
 2440 0164 C0F20002 		movt	r2, #:upper16:USB_EP
 2441 0168 0B46     		mov	r3, r1
 2442 016a 4FEA4303 		lsl	r3, r3, #1
 2443 016e 0B44     		add	r3, r3, r1
 2444 0170 4FEA8303 		lsl	r3, r3, #2
 2445 0174 1344     		add	r3, r3, r2
 2446 0176 5B78     		ldrb	r3, [r3, #1]
 2447 0178 DBB2     		uxtb	r3, r3
 2448 017a 012B     		cmp	r3, #1
 2449 017c 09D1     		bne	.L117
1106:.\Generated_Source\PSoC5/USB_std.c ****             {       /* Allow application to read full buffer */
1107:.\Generated_Source\PSoC5/USB_std.c ****                 CY_SET_REG8(&USB_SIE_EP1_CR0_PTR[ri], USB_MODE_NAK_OUT);
 2450              		.loc 1 1107 0
 2451 017e BA79     		ldrb	r2, [r7, #6]	@ zero_extendqisi2
 2452 0180 46F20E03 		movw	r3, #:lower16:1073766414
 2453 0184 C4F20003 		movt	r3, #:upper16:1073766414
 2454 0188 1344     		add	r3, r2, r3
 2455 018a 4FF00802 		mov	r2, #8
 2456 018e 1A70     		strb	r2, [r3, #0]
 2457 0190 08E0     		b	.L116
 2458              	.L117:
1108:.\Generated_Source\PSoC5/USB_std.c ****             }
1109:.\Generated_Source\PSoC5/USB_std.c ****             else    /* Mark endpoint as empty, so it will be reloaded */
1110:.\Generated_Source\PSoC5/USB_std.c ****             {
1111:.\Generated_Source\PSoC5/USB_std.c ****                 CY_SET_REG8(&USB_SIE_EP1_CR0_PTR[ri], USB_MODE_ACK_OUT);
 2459              		.loc 1 1111 0
 2460 0192 BA79     		ldrb	r2, [r7, #6]	@ zero_extendqisi2
 2461 0194 46F20E03 		movw	r3, #:lower16:1073766414
 2462 0198 C4F20003 		movt	r3, #:upper16:1073766414
 2463 019c 1344     		add	r3, r2, r3
 2464 019e 4FF00902 		mov	r2, #9
 2465 01a2 1A70     		strb	r2, [r3, #0]
 2466              	.L116:
1112:.\Generated_Source\PSoC5/USB_std.c ****             }
1113:.\Generated_Source\PSoC5/USB_std.c ****         }
1114:.\Generated_Source\PSoC5/USB_std.c ****         requestHandled = USB_InitNoDataControlTransfer();
 2467              		.loc 1 1114 0
 2468 01a4 FFF7FEFF 		bl	USB_InitNoDataControlTransfer
 2469 01a8 0346     		mov	r3, r0
 2470 01aa FB71     		strb	r3, [r7, #7]
 2471              	.L112:
1115:.\Generated_Source\PSoC5/USB_std.c ****     }
1116:.\Generated_Source\PSoC5/USB_std.c **** 
ARM GAS  C:\Users\Craig\AppData\Local\Temp\cc9NnIsK.s 			page 64


1117:.\Generated_Source\PSoC5/USB_std.c ****     return(requestHandled);
 2472              		.loc 1 1117 0
 2473 01ac FB79     		ldrb	r3, [r7, #7]	@ zero_extendqisi2
1118:.\Generated_Source\PSoC5/USB_std.c **** }
 2474              		.loc 1 1118 0
 2475 01ae 1846     		mov	r0, r3
 2476 01b0 07F10807 		add	r7, r7, #8
 2477 01b4 BD46     		mov	sp, r7
 2478 01b6 80BD     		pop	{r7, pc}
 2479              		.cfi_endproc
 2480              	.LFE10:
 2481              		.size	USB_ClearEndpointHalt, .-USB_ClearEndpointHalt
 2482              		.section	.text.USB_ValidateAlternateSetting,"ax",%progbits
 2483              		.align	2
 2484              		.global	USB_ValidateAlternateSetting
 2485              		.thumb
 2486              		.thumb_func
 2487              		.type	USB_ValidateAlternateSetting, %function
 2488              	USB_ValidateAlternateSetting:
 2489              	.LFB11:
1119:.\Generated_Source\PSoC5/USB_std.c **** 
1120:.\Generated_Source\PSoC5/USB_std.c **** 
1121:.\Generated_Source\PSoC5/USB_std.c **** /*******************************************************************************
1122:.\Generated_Source\PSoC5/USB_std.c **** * Function Name: USB_ValidateAlternateSetting
1123:.\Generated_Source\PSoC5/USB_std.c **** ********************************************************************************
1124:.\Generated_Source\PSoC5/USB_std.c **** *
1125:.\Generated_Source\PSoC5/USB_std.c **** * Summary:
1126:.\Generated_Source\PSoC5/USB_std.c **** *  Validates (and records) a SET INTERFACE request.
1127:.\Generated_Source\PSoC5/USB_std.c **** *
1128:.\Generated_Source\PSoC5/USB_std.c **** * Parameters:
1129:.\Generated_Source\PSoC5/USB_std.c **** *  None.
1130:.\Generated_Source\PSoC5/USB_std.c **** *
1131:.\Generated_Source\PSoC5/USB_std.c **** * Return:
1132:.\Generated_Source\PSoC5/USB_std.c **** *  requestHandled.
1133:.\Generated_Source\PSoC5/USB_std.c **** *
1134:.\Generated_Source\PSoC5/USB_std.c **** * Reentrant:
1135:.\Generated_Source\PSoC5/USB_std.c **** *  No.
1136:.\Generated_Source\PSoC5/USB_std.c **** *
1137:.\Generated_Source\PSoC5/USB_std.c **** *******************************************************************************/
1138:.\Generated_Source\PSoC5/USB_std.c **** uint8 USB_ValidateAlternateSetting(void) 
1139:.\Generated_Source\PSoC5/USB_std.c **** {
 2490              		.loc 1 1139 0
 2491              		.cfi_startproc
 2492              		@ args = 0, pretend = 0, frame = 16
 2493              		@ frame_needed = 1, uses_anonymous_args = 0
 2494 0000 80B5     		push	{r7, lr}
 2495              	.LCFI32:
 2496              		.cfi_def_cfa_offset 8
 2497 0002 84B0     		sub	sp, sp, #16
 2498              	.LCFI33:
 2499              		.cfi_def_cfa_offset 24
 2500 0004 00AF     		add	r7, sp, #0
 2501              		.cfi_offset 14, -4
 2502              		.cfi_offset 7, -8
 2503              	.LCFI34:
 2504              		.cfi_def_cfa_register 7
1140:.\Generated_Source\PSoC5/USB_std.c ****     uint8 requestHandled = USB_TRUE;
ARM GAS  C:\Users\Craig\AppData\Local\Temp\cc9NnIsK.s 			page 65


 2505              		.loc 1 1140 0
 2506 0006 4FF00103 		mov	r3, #1
 2507 000a BB71     		strb	r3, [r7, #6]
1141:.\Generated_Source\PSoC5/USB_std.c ****     uint8 interfaceNum;
1142:.\Generated_Source\PSoC5/USB_std.c ****     T_USB_LUT *pTmp;
1143:.\Generated_Source\PSoC5/USB_std.c ****     uint8 currentInterfacesNum;
1144:.\Generated_Source\PSoC5/USB_std.c **** 
1145:.\Generated_Source\PSoC5/USB_std.c ****     interfaceNum = CY_GET_REG8(USB_wIndexLo);
 2508              		.loc 1 1145 0
 2509 000c 46F20403 		movw	r3, #:lower16:1073766404
 2510 0010 C4F20003 		movt	r3, #:upper16:1073766404
 2511 0014 1B78     		ldrb	r3, [r3, #0]
 2512 0016 FB71     		strb	r3, [r7, #7]
1146:.\Generated_Source\PSoC5/USB_std.c ****     /* Validate interface setting, stall if invalid. */
1147:.\Generated_Source\PSoC5/USB_std.c ****     pTmp = USB_GetConfigTablePtr(USB_configuration - 1u);
 2513              		.loc 1 1147 0
 2514 0018 40F20003 		movw	r3, #:lower16:USB_configuration
 2515 001c C0F20003 		movt	r3, #:upper16:USB_configuration
 2516 0020 1B78     		ldrb	r3, [r3, #0]
 2517 0022 DBB2     		uxtb	r3, r3
 2518 0024 03F1FF33 		add	r3, r3, #-1
 2519 0028 DBB2     		uxtb	r3, r3
 2520 002a 1846     		mov	r0, r3
 2521 002c FFF7FEFF 		bl	USB_GetConfigTablePtr
 2522 0030 0346     		mov	r3, r0
 2523 0032 BB60     		str	r3, [r7, #8]
1148:.\Generated_Source\PSoC5/USB_std.c ****     currentInterfacesNum  = ((uint8 *) pTmp->p_list)[USB_CONFIG_DESCR_NUM_INTERFACES];
 2524              		.loc 1 1148 0
 2525 0034 BB68     		ldr	r3, [r7, #8]
 2526 0036 5B68     		ldr	r3, [r3, #4]
 2527 0038 03F10403 		add	r3, r3, #4
 2528 003c 1B78     		ldrb	r3, [r3, #0]
 2529 003e FB73     		strb	r3, [r7, #15]
1149:.\Generated_Source\PSoC5/USB_std.c **** 
1150:.\Generated_Source\PSoC5/USB_std.c ****     if((interfaceNum >= currentInterfacesNum) || (interfaceNum >= USB_MAX_INTERFACES_NUMBER))
 2530              		.loc 1 1150 0
 2531 0040 FA79     		ldrb	r2, [r7, #7]	@ zero_extendqisi2
 2532 0042 FB7B     		ldrb	r3, [r7, #15]	@ zero_extendqisi2
 2533 0044 9A42     		cmp	r2, r3
 2534 0046 02D2     		bcs	.L120
 2535 0048 FB79     		ldrb	r3, [r7, #7]	@ zero_extendqisi2
 2536 004a 002B     		cmp	r3, #0
 2537 004c 03D0     		beq	.L121
 2538              	.L120:
1151:.\Generated_Source\PSoC5/USB_std.c ****     {   /* wrong interface number */
1152:.\Generated_Source\PSoC5/USB_std.c ****         requestHandled = USB_FALSE;
 2539              		.loc 1 1152 0
 2540 004e 4FF00003 		mov	r3, #0
 2541 0052 BB71     		strb	r3, [r7, #6]
 2542              		.loc 1 1150 0
 2543 0054 18E0     		b	.L122
 2544              	.L121:
1153:.\Generated_Source\PSoC5/USB_std.c ****     }
1154:.\Generated_Source\PSoC5/USB_std.c ****     else
1155:.\Generated_Source\PSoC5/USB_std.c ****     {
1156:.\Generated_Source\PSoC5/USB_std.c ****         /* save current Alt setting to find out the difference in Config() function */
1157:.\Generated_Source\PSoC5/USB_std.c ****         USB_interfaceSetting_last[interfaceNum] = USB_interfaceSetting[interfaceNum];
ARM GAS  C:\Users\Craig\AppData\Local\Temp\cc9NnIsK.s 			page 66


 2545              		.loc 1 1157 0
 2546 0056 FA79     		ldrb	r2, [r7, #7]	@ zero_extendqisi2
 2547 0058 F979     		ldrb	r1, [r7, #7]	@ zero_extendqisi2
 2548 005a 40F20003 		movw	r3, #:lower16:USB_interfaceSetting
 2549 005e C0F20003 		movt	r3, #:upper16:USB_interfaceSetting
 2550 0062 5B5C     		ldrb	r3, [r3, r1]
 2551 0064 D9B2     		uxtb	r1, r3
 2552 0066 40F20003 		movw	r3, #:lower16:USB_interfaceSetting_last
 2553 006a C0F20003 		movt	r3, #:upper16:USB_interfaceSetting_last
 2554 006e 9954     		strb	r1, [r3, r2]
1158:.\Generated_Source\PSoC5/USB_std.c ****         USB_interfaceSetting[interfaceNum] = CY_GET_REG8(USB_wValueLo);
 2555              		.loc 1 1158 0
 2556 0070 FA79     		ldrb	r2, [r7, #7]	@ zero_extendqisi2
 2557 0072 46F20203 		movw	r3, #:lower16:1073766402
 2558 0076 C4F20003 		movt	r3, #:upper16:1073766402
 2559 007a 1B78     		ldrb	r3, [r3, #0]
 2560 007c D9B2     		uxtb	r1, r3
 2561 007e 40F20003 		movw	r3, #:lower16:USB_interfaceSetting
 2562 0082 C0F20003 		movt	r3, #:upper16:USB_interfaceSetting
 2563 0086 9954     		strb	r1, [r3, r2]
 2564              	.L122:
1159:.\Generated_Source\PSoC5/USB_std.c ****     }
1160:.\Generated_Source\PSoC5/USB_std.c **** 
1161:.\Generated_Source\PSoC5/USB_std.c ****     return (requestHandled);
 2565              		.loc 1 1161 0
 2566 0088 BB79     		ldrb	r3, [r7, #6]	@ zero_extendqisi2
1162:.\Generated_Source\PSoC5/USB_std.c **** }
 2567              		.loc 1 1162 0
 2568 008a 1846     		mov	r0, r3
 2569 008c 07F11007 		add	r7, r7, #16
 2570 0090 BD46     		mov	sp, r7
 2571 0092 80BD     		pop	{r7, pc}
 2572              		.cfi_endproc
 2573              	.LFE11:
 2574              		.size	USB_ValidateAlternateSetting, .-USB_ValidateAlternateSetting
 2575              		.text
 2576              	.Letext0:
 2577              		.section	.debug_loc,"",%progbits
 2578              	.Ldebug_loc0:
 2579              	.LLST0:
 2580 0000 00000000 		.4byte	.LFB0
 2581 0004 02000000 		.4byte	.LCFI0
 2582 0008 0100     		.2byte	0x1
 2583 000a 5D       		.byte	0x5d
 2584 000b 02000000 		.4byte	.LCFI0
 2585 000f 04000000 		.4byte	.LCFI1
 2586 0013 0200     		.2byte	0x2
 2587 0015 7D       		.byte	0x7d
 2588 0016 04       		.sleb128 4
 2589 0017 04000000 		.4byte	.LCFI1
 2590 001b 06000000 		.4byte	.LCFI2
 2591 001f 0200     		.2byte	0x2
 2592 0021 7D       		.byte	0x7d
 2593 0022 10       		.sleb128 16
 2594 0023 06000000 		.4byte	.LCFI2
 2595 0027 12000000 		.4byte	.LFE0
 2596 002b 0200     		.2byte	0x2
ARM GAS  C:\Users\Craig\AppData\Local\Temp\cc9NnIsK.s 			page 67


 2597 002d 77       		.byte	0x77
 2598 002e 10       		.sleb128 16
 2599 002f 00000000 		.4byte	0x0
 2600 0033 00000000 		.4byte	0x0
 2601              	.LLST1:
 2602 0037 00000000 		.4byte	.LFB1
 2603 003b 02000000 		.4byte	.LCFI3
 2604 003f 0100     		.2byte	0x1
 2605 0041 5D       		.byte	0x5d
 2606 0042 02000000 		.4byte	.LCFI3
 2607 0046 04000000 		.4byte	.LCFI4
 2608 004a 0200     		.2byte	0x2
 2609 004c 7D       		.byte	0x7d
 2610 004d 08       		.sleb128 8
 2611 004e 04000000 		.4byte	.LCFI4
 2612 0052 06000000 		.4byte	.LCFI5
 2613 0056 0200     		.2byte	0x2
 2614 0058 7D       		.byte	0x7d
 2615 0059 18       		.sleb128 24
 2616 005a 06000000 		.4byte	.LCFI5
 2617 005e D2050000 		.4byte	.LFE1
 2618 0062 0200     		.2byte	0x2
 2619 0064 77       		.byte	0x77
 2620 0065 18       		.sleb128 24
 2621 0066 00000000 		.4byte	0x0
 2622 006a 00000000 		.4byte	0x0
 2623              	.LLST2:
 2624 006e 00000000 		.4byte	.LFB2
 2625 0072 02000000 		.4byte	.LCFI6
 2626 0076 0100     		.2byte	0x1
 2627 0078 5D       		.byte	0x5d
 2628 0079 02000000 		.4byte	.LCFI6
 2629 007d 04000000 		.4byte	.LCFI7
 2630 0081 0200     		.2byte	0x2
 2631 0083 7D       		.byte	0x7d
 2632 0084 04       		.sleb128 4
 2633 0085 04000000 		.4byte	.LCFI7
 2634 0089 06000000 		.4byte	.LCFI8
 2635 008d 0200     		.2byte	0x2
 2636 008f 7D       		.byte	0x7d
 2637 0090 10       		.sleb128 16
 2638 0091 06000000 		.4byte	.LCFI8
 2639 0095 06020000 		.4byte	.LFE2
 2640 0099 0200     		.2byte	0x2
 2641 009b 77       		.byte	0x77
 2642 009c 10       		.sleb128 16
 2643 009d 00000000 		.4byte	0x0
 2644 00a1 00000000 		.4byte	0x0
 2645              	.LLST3:
 2646 00a5 00000000 		.4byte	.LFB3
 2647 00a9 02000000 		.4byte	.LCFI9
 2648 00ad 0100     		.2byte	0x1
 2649 00af 5D       		.byte	0x5d
 2650 00b0 02000000 		.4byte	.LCFI9
 2651 00b4 04000000 		.4byte	.LCFI10
 2652 00b8 0200     		.2byte	0x2
 2653 00ba 7D       		.byte	0x7d
ARM GAS  C:\Users\Craig\AppData\Local\Temp\cc9NnIsK.s 			page 68


 2654 00bb 08       		.sleb128 8
 2655 00bc 04000000 		.4byte	.LCFI10
 2656 00c0 06000000 		.4byte	.LCFI11
 2657 00c4 0200     		.2byte	0x2
 2658 00c6 7D       		.byte	0x7d
 2659 00c7 28       		.sleb128 40
 2660 00c8 06000000 		.4byte	.LCFI11
 2661 00cc 38040000 		.4byte	.LFE3
 2662 00d0 0200     		.2byte	0x2
 2663 00d2 77       		.byte	0x77
 2664 00d3 28       		.sleb128 40
 2665 00d4 00000000 		.4byte	0x0
 2666 00d8 00000000 		.4byte	0x0
 2667              	.LLST4:
 2668 00dc 00000000 		.4byte	.LFB4
 2669 00e0 02000000 		.4byte	.LCFI12
 2670 00e4 0100     		.2byte	0x1
 2671 00e6 5D       		.byte	0x5d
 2672 00e7 02000000 		.4byte	.LCFI12
 2673 00eb 04000000 		.4byte	.LCFI13
 2674 00ef 0200     		.2byte	0x2
 2675 00f1 7D       		.byte	0x7d
 2676 00f2 08       		.sleb128 8
 2677 00f3 04000000 		.4byte	.LCFI13
 2678 00f7 06000000 		.4byte	.LCFI14
 2679 00fb 0200     		.2byte	0x2
 2680 00fd 7D       		.byte	0x7d
 2681 00fe 18       		.sleb128 24
 2682 00ff 06000000 		.4byte	.LCFI14
 2683 0103 5E030000 		.4byte	.LFE4
 2684 0107 0200     		.2byte	0x2
 2685 0109 77       		.byte	0x77
 2686 010a 18       		.sleb128 24
 2687 010b 00000000 		.4byte	0x0
 2688 010f 00000000 		.4byte	0x0
 2689              	.LLST5:
 2690 0113 00000000 		.4byte	.LFB5
 2691 0117 02000000 		.4byte	.LCFI15
 2692 011b 0100     		.2byte	0x1
 2693 011d 5D       		.byte	0x5d
 2694 011e 02000000 		.4byte	.LCFI15
 2695 0122 04000000 		.4byte	.LCFI16
 2696 0126 0200     		.2byte	0x2
 2697 0128 7D       		.byte	0x7d
 2698 0129 08       		.sleb128 8
 2699 012a 04000000 		.4byte	.LCFI16
 2700 012e 06000000 		.4byte	.LCFI17
 2701 0132 0200     		.2byte	0x2
 2702 0134 7D       		.byte	0x7d
 2703 0135 18       		.sleb128 24
 2704 0136 06000000 		.4byte	.LCFI17
 2705 013a 2C000000 		.4byte	.LFE5
 2706 013e 0200     		.2byte	0x2
 2707 0140 77       		.byte	0x77
 2708 0141 18       		.sleb128 24
 2709 0142 00000000 		.4byte	0x0
 2710 0146 00000000 		.4byte	0x0
ARM GAS  C:\Users\Craig\AppData\Local\Temp\cc9NnIsK.s 			page 69


 2711              	.LLST6:
 2712 014a 00000000 		.4byte	.LFB6
 2713 014e 02000000 		.4byte	.LCFI18
 2714 0152 0100     		.2byte	0x1
 2715 0154 5D       		.byte	0x5d
 2716 0155 02000000 		.4byte	.LCFI18
 2717 0159 04000000 		.4byte	.LCFI19
 2718 015d 0200     		.2byte	0x2
 2719 015f 7D       		.byte	0x7d
 2720 0160 04       		.sleb128 4
 2721 0161 04000000 		.4byte	.LCFI19
 2722 0165 28000000 		.4byte	.LFE6
 2723 0169 0200     		.2byte	0x2
 2724 016b 77       		.byte	0x77
 2725 016c 04       		.sleb128 4
 2726 016d 00000000 		.4byte	0x0
 2727 0171 00000000 		.4byte	0x0
 2728              	.LLST7:
 2729 0175 00000000 		.4byte	.LFB7
 2730 0179 02000000 		.4byte	.LCFI20
 2731 017d 0100     		.2byte	0x1
 2732 017f 5D       		.byte	0x5d
 2733 0180 02000000 		.4byte	.LCFI20
 2734 0184 04000000 		.4byte	.LCFI21
 2735 0188 0200     		.2byte	0x2
 2736 018a 7D       		.byte	0x7d
 2737 018b 08       		.sleb128 8
 2738 018c 04000000 		.4byte	.LCFI21
 2739 0190 06000000 		.4byte	.LCFI22
 2740 0194 0200     		.2byte	0x2
 2741 0196 7D       		.byte	0x7d
 2742 0197 10       		.sleb128 16
 2743 0198 06000000 		.4byte	.LCFI22
 2744 019c 50000000 		.4byte	.LFE7
 2745 01a0 0200     		.2byte	0x2
 2746 01a2 77       		.byte	0x77
 2747 01a3 10       		.sleb128 16
 2748 01a4 00000000 		.4byte	0x0
 2749 01a8 00000000 		.4byte	0x0
 2750              	.LLST8:
 2751 01ac 00000000 		.4byte	.LFB8
 2752 01b0 02000000 		.4byte	.LCFI23
 2753 01b4 0100     		.2byte	0x1
 2754 01b6 5D       		.byte	0x5d
 2755 01b7 02000000 		.4byte	.LCFI23
 2756 01bb 04000000 		.4byte	.LCFI24
 2757 01bf 0200     		.2byte	0x2
 2758 01c1 7D       		.byte	0x7d
 2759 01c2 04       		.sleb128 4
 2760 01c3 04000000 		.4byte	.LCFI24
 2761 01c7 06000000 		.4byte	.LCFI25
 2762 01cb 0200     		.2byte	0x2
 2763 01cd 7D       		.byte	0x7d
 2764 01ce 18       		.sleb128 24
 2765 01cf 06000000 		.4byte	.LCFI25
 2766 01d3 F8000000 		.4byte	.LFE8
 2767 01d7 0200     		.2byte	0x2
ARM GAS  C:\Users\Craig\AppData\Local\Temp\cc9NnIsK.s 			page 70


 2768 01d9 77       		.byte	0x77
 2769 01da 18       		.sleb128 24
 2770 01db 00000000 		.4byte	0x0
 2771 01df 00000000 		.4byte	0x0
 2772              	.LLST9:
 2773 01e3 00000000 		.4byte	.LFB9
 2774 01e7 02000000 		.4byte	.LCFI26
 2775 01eb 0100     		.2byte	0x1
 2776 01ed 5D       		.byte	0x5d
 2777 01ee 02000000 		.4byte	.LCFI26
 2778 01f2 04000000 		.4byte	.LCFI27
 2779 01f6 0200     		.2byte	0x2
 2780 01f8 7D       		.byte	0x7d
 2781 01f9 08       		.sleb128 8
 2782 01fa 04000000 		.4byte	.LCFI27
 2783 01fe 06000000 		.4byte	.LCFI28
 2784 0202 0200     		.2byte	0x2
 2785 0204 7D       		.byte	0x7d
 2786 0205 10       		.sleb128 16
 2787 0206 06000000 		.4byte	.LCFI28
 2788 020a 2E010000 		.4byte	.LFE9
 2789 020e 0200     		.2byte	0x2
 2790 0210 77       		.byte	0x77
 2791 0211 10       		.sleb128 16
 2792 0212 00000000 		.4byte	0x0
 2793 0216 00000000 		.4byte	0x0
 2794              	.LLST10:
 2795 021a 00000000 		.4byte	.LFB10
 2796 021e 02000000 		.4byte	.LCFI29
 2797 0222 0100     		.2byte	0x1
 2798 0224 5D       		.byte	0x5d
 2799 0225 02000000 		.4byte	.LCFI29
 2800 0229 04000000 		.4byte	.LCFI30
 2801 022d 0200     		.2byte	0x2
 2802 022f 7D       		.byte	0x7d
 2803 0230 08       		.sleb128 8
 2804 0231 04000000 		.4byte	.LCFI30
 2805 0235 06000000 		.4byte	.LCFI31
 2806 0239 0200     		.2byte	0x2
 2807 023b 7D       		.byte	0x7d
 2808 023c 10       		.sleb128 16
 2809 023d 06000000 		.4byte	.LCFI31
 2810 0241 B8010000 		.4byte	.LFE10
 2811 0245 0200     		.2byte	0x2
 2812 0247 77       		.byte	0x77
 2813 0248 10       		.sleb128 16
 2814 0249 00000000 		.4byte	0x0
 2815 024d 00000000 		.4byte	0x0
 2816              	.LLST11:
 2817 0251 00000000 		.4byte	.LFB11
 2818 0255 02000000 		.4byte	.LCFI32
 2819 0259 0100     		.2byte	0x1
 2820 025b 5D       		.byte	0x5d
 2821 025c 02000000 		.4byte	.LCFI32
 2822 0260 04000000 		.4byte	.LCFI33
 2823 0264 0200     		.2byte	0x2
 2824 0266 7D       		.byte	0x7d
ARM GAS  C:\Users\Craig\AppData\Local\Temp\cc9NnIsK.s 			page 71


 2825 0267 08       		.sleb128 8
 2826 0268 04000000 		.4byte	.LCFI33
 2827 026c 06000000 		.4byte	.LCFI34
 2828 0270 0200     		.2byte	0x2
 2829 0272 7D       		.byte	0x7d
 2830 0273 18       		.sleb128 24
 2831 0274 06000000 		.4byte	.LCFI34
 2832 0278 94000000 		.4byte	.LFE11
 2833 027c 0200     		.2byte	0x2
 2834 027e 77       		.byte	0x77
 2835 027f 18       		.sleb128 24
 2836 0280 00000000 		.4byte	0x0
 2837 0284 00000000 		.4byte	0x0
 2838              		.file 2 ".\\Generated_Source\\PSoC5\\/cytypes.h"
 2839              		.file 3 ".\\Generated_Source\\PSoC5\\/USB.h"
 2840              		.section	.debug_info
 2841 0000 47070000 		.4byte	0x747
 2842 0004 0200     		.2byte	0x2
 2843 0006 00000000 		.4byte	.Ldebug_abbrev0
 2844 000a 04       		.byte	0x4
 2845 000b 01       		.uleb128 0x1
 2846 000c 77000000 		.4byte	.LASF80
 2847 0010 01       		.byte	0x1
 2848 0011 1B020000 		.4byte	.LASF81
 2849 0015 B5010000 		.4byte	.LASF82
 2850 0019 00000000 		.4byte	0x0
 2851 001d 00000000 		.4byte	0x0
 2852 0021 00000000 		.4byte	.Ldebug_ranges0+0x0
 2853 0025 00000000 		.4byte	.Ldebug_line0
 2854 0029 02       		.uleb128 0x2
 2855 002a 01       		.byte	0x1
 2856 002b 06       		.byte	0x6
 2857 002c D7000000 		.4byte	.LASF0
 2858 0030 02       		.uleb128 0x2
 2859 0031 01       		.byte	0x1
 2860 0032 08       		.byte	0x8
 2861 0033 64030000 		.4byte	.LASF1
 2862 0037 02       		.uleb128 0x2
 2863 0038 02       		.byte	0x2
 2864 0039 05       		.byte	0x5
 2865 003a 72030000 		.4byte	.LASF2
 2866 003e 02       		.uleb128 0x2
 2867 003f 02       		.byte	0x2
 2868 0040 07       		.byte	0x7
 2869 0041 38040000 		.4byte	.LASF3
 2870 0045 02       		.uleb128 0x2
 2871 0046 04       		.byte	0x4
 2872 0047 05       		.byte	0x5
 2873 0048 07010000 		.4byte	.LASF4
 2874 004c 02       		.uleb128 0x2
 2875 004d 04       		.byte	0x4
 2876 004e 07       		.byte	0x7
 2877 004f A3010000 		.4byte	.LASF5
 2878 0053 02       		.uleb128 0x2
 2879 0054 08       		.byte	0x8
 2880 0055 05       		.byte	0x5
 2881 0056 C9000000 		.4byte	.LASF6
ARM GAS  C:\Users\Craig\AppData\Local\Temp\cc9NnIsK.s 			page 72


 2882 005a 02       		.uleb128 0x2
 2883 005b 08       		.byte	0x8
 2884 005c 07       		.byte	0x7
 2885 005d 5B000000 		.4byte	.LASF7
 2886 0061 03       		.uleb128 0x3
 2887 0062 04       		.byte	0x4
 2888 0063 05       		.byte	0x5
 2889 0064 696E7400 		.ascii	"int\000"
 2890 0068 02       		.uleb128 0x2
 2891 0069 04       		.byte	0x4
 2892 006a 07       		.byte	0x7
 2893 006b 82010000 		.4byte	.LASF8
 2894 006f 04       		.uleb128 0x4
 2895 0070 10010000 		.4byte	.LASF9
 2896 0074 02       		.byte	0x2
 2897 0075 4C       		.byte	0x4c
 2898 0076 30000000 		.4byte	0x30
 2899 007a 04       		.uleb128 0x4
 2900 007b 1E000000 		.4byte	.LASF10
 2901 007f 02       		.byte	0x2
 2902 0080 4D       		.byte	0x4d
 2903 0081 3E000000 		.4byte	0x3e
 2904 0085 02       		.uleb128 0x2
 2905 0086 04       		.byte	0x4
 2906 0087 04       		.byte	0x4
 2907 0088 29030000 		.4byte	.LASF11
 2908 008c 02       		.uleb128 0x2
 2909 008d 08       		.byte	0x8
 2910 008e 04       		.byte	0x4
 2911 008f 1F010000 		.4byte	.LASF12
 2912 0093 02       		.uleb128 0x2
 2913 0094 01       		.byte	0x1
 2914 0095 08       		.byte	0x8
 2915 0096 DD030000 		.4byte	.LASF13
 2916 009a 05       		.uleb128 0x5
 2917 009b 6F000000 		.4byte	0x6f
 2918 009f 06       		.uleb128 0x6
 2919 00a0 04       		.byte	0x4
 2920 00a1 07       		.byte	0x7
 2921 00a2 07       		.uleb128 0x7
 2922 00a3 04       		.byte	0x4
 2923 00a4 08       		.uleb128 0x8
 2924 00a5 4B000000 		.4byte	.LASF24
 2925 00a9 0C       		.byte	0xc
 2926 00aa 03       		.byte	0x3
 2927 00ab 70       		.byte	0x70
 2928 00ac 2F010000 		.4byte	0x12f
 2929 00b0 09       		.uleb128 0x9
 2930 00b1 B4020000 		.4byte	.LASF14
 2931 00b5 03       		.byte	0x3
 2932 00b6 71       		.byte	0x71
 2933 00b7 6F000000 		.4byte	0x6f
 2934 00bb 02       		.byte	0x2
 2935 00bc 23       		.byte	0x23
 2936 00bd 00       		.uleb128 0x0
 2937 00be 09       		.uleb128 0x9
 2938 00bf 42030000 		.4byte	.LASF15
ARM GAS  C:\Users\Craig\AppData\Local\Temp\cc9NnIsK.s 			page 73


 2939 00c3 03       		.byte	0x3
 2940 00c4 72       		.byte	0x72
 2941 00c5 6F000000 		.4byte	0x6f
 2942 00c9 02       		.byte	0x2
 2943 00ca 23       		.byte	0x23
 2944 00cb 01       		.uleb128 0x1
 2945 00cc 09       		.uleb128 0x9
 2946 00cd 5F020000 		.4byte	.LASF16
 2947 00d1 03       		.byte	0x3
 2948 00d2 73       		.byte	0x73
 2949 00d3 6F000000 		.4byte	0x6f
 2950 00d7 02       		.byte	0x2
 2951 00d8 23       		.byte	0x23
 2952 00d9 02       		.uleb128 0x2
 2953 00da 09       		.uleb128 0x9
 2954 00db 16010000 		.4byte	.LASF17
 2955 00df 03       		.byte	0x3
 2956 00e0 74       		.byte	0x74
 2957 00e1 6F000000 		.4byte	0x6f
 2958 00e5 02       		.byte	0x2
 2959 00e6 23       		.byte	0x23
 2960 00e7 03       		.uleb128 0x3
 2961 00e8 09       		.uleb128 0x9
 2962 00e9 72000000 		.4byte	.LASF18
 2963 00ed 03       		.byte	0x3
 2964 00ee 75       		.byte	0x75
 2965 00ef 6F000000 		.4byte	0x6f
 2966 00f3 02       		.byte	0x2
 2967 00f4 23       		.byte	0x23
 2968 00f5 04       		.uleb128 0x4
 2969 00f6 09       		.uleb128 0x9
 2970 00f7 63010000 		.4byte	.LASF19
 2971 00fb 03       		.byte	0x3
 2972 00fc 76       		.byte	0x76
 2973 00fd 6F000000 		.4byte	0x6f
 2974 0101 02       		.byte	0x2
 2975 0102 23       		.byte	0x23
 2976 0103 05       		.uleb128 0x5
 2977 0104 09       		.uleb128 0x9
 2978 0105 08040000 		.4byte	.LASF20
 2979 0109 03       		.byte	0x3
 2980 010a 77       		.byte	0x77
 2981 010b 7A000000 		.4byte	0x7a
 2982 010f 02       		.byte	0x2
 2983 0110 23       		.byte	0x23
 2984 0111 06       		.uleb128 0x6
 2985 0112 09       		.uleb128 0x9
 2986 0113 EE030000 		.4byte	.LASF21
 2987 0117 03       		.byte	0x3
 2988 0118 78       		.byte	0x78
 2989 0119 7A000000 		.4byte	0x7a
 2990 011d 02       		.byte	0x2
 2991 011e 23       		.byte	0x23
 2992 011f 08       		.uleb128 0x8
 2993 0120 09       		.uleb128 0x9
 2994 0121 11020000 		.4byte	.LASF22
 2995 0125 03       		.byte	0x3
ARM GAS  C:\Users\Craig\AppData\Local\Temp\cc9NnIsK.s 			page 74


 2996 0126 79       		.byte	0x79
 2997 0127 6F000000 		.4byte	0x6f
 2998 012b 02       		.byte	0x2
 2999 012c 23       		.byte	0x23
 3000 012d 0A       		.uleb128 0xa
 3001 012e 00       		.byte	0x0
 3002 012f 04       		.uleb128 0x4
 3003 0130 98000000 		.4byte	.LASF23
 3004 0134 03       		.byte	0x3
 3005 0135 7A       		.byte	0x7a
 3006 0136 A4000000 		.4byte	0xa4
 3007 013a 08       		.uleb128 0x8
 3008 013b 1C040000 		.4byte	.LASF25
 3009 013f 08       		.byte	0x8
 3010 0140 03       		.byte	0x3
 3011 0141 7D       		.byte	0x7d
 3012 0142 9B010000 		.4byte	0x19b
 3013 0146 09       		.uleb128 0x9
 3014 0147 11020000 		.4byte	.LASF22
 3015 014b 03       		.byte	0x3
 3016 014c 7E       		.byte	0x7e
 3017 014d 6F000000 		.4byte	0x6f
 3018 0151 02       		.byte	0x2
 3019 0152 23       		.byte	0x23
 3020 0153 00       		.uleb128 0x0
 3021 0154 09       		.uleb128 0x9
 3022 0155 D2030000 		.4byte	.LASF26
 3023 0159 03       		.byte	0x3
 3024 015a 7F       		.byte	0x7f
 3025 015b 6F000000 		.4byte	0x6f
 3026 015f 02       		.byte	0x2
 3027 0160 23       		.byte	0x23
 3028 0161 01       		.uleb128 0x1
 3029 0162 09       		.uleb128 0x9
 3030 0163 72000000 		.4byte	.LASF18
 3031 0167 03       		.byte	0x3
 3032 0168 80       		.byte	0x80
 3033 0169 6F000000 		.4byte	0x6f
 3034 016d 02       		.byte	0x2
 3035 016e 23       		.byte	0x23
 3036 016f 02       		.uleb128 0x2
 3037 0170 09       		.uleb128 0x9
 3038 0171 B3030000 		.4byte	.LASF27
 3039 0175 03       		.byte	0x3
 3040 0176 81       		.byte	0x81
 3041 0177 6F000000 		.4byte	0x6f
 3042 017b 02       		.byte	0x2
 3043 017c 23       		.byte	0x23
 3044 017d 03       		.uleb128 0x3
 3045 017e 09       		.uleb128 0x9
 3046 017f EE030000 		.4byte	.LASF21
 3047 0183 03       		.byte	0x3
 3048 0184 82       		.byte	0x82
 3049 0185 7A000000 		.4byte	0x7a
 3050 0189 02       		.byte	0x2
 3051 018a 23       		.byte	0x23
 3052 018b 04       		.uleb128 0x4
ARM GAS  C:\Users\Craig\AppData\Local\Temp\cc9NnIsK.s 			page 75


 3053 018c 09       		.uleb128 0x9
 3054 018d 77040000 		.4byte	.LASF28
 3055 0191 03       		.byte	0x3
 3056 0192 83       		.byte	0x83
 3057 0193 6F000000 		.4byte	0x6f
 3058 0197 02       		.byte	0x2
 3059 0198 23       		.byte	0x23
 3060 0199 06       		.uleb128 0x6
 3061 019a 00       		.byte	0x0
 3062 019b 04       		.uleb128 0x4
 3063 019c 7C030000 		.4byte	.LASF29
 3064 01a0 03       		.byte	0x3
 3065 01a1 84       		.byte	0x84
 3066 01a2 3A010000 		.4byte	0x13a
 3067 01a6 08       		.uleb128 0x8
 3068 01a7 7D040000 		.4byte	.LASF30
 3069 01ab 04       		.byte	0x4
 3070 01ac 03       		.byte	0x3
 3071 01ad 87       		.byte	0x87
 3072 01ae CF010000 		.4byte	0x1cf
 3073 01b2 09       		.uleb128 0x9
 3074 01b3 5E040000 		.4byte	.LASF31
 3075 01b7 03       		.byte	0x3
 3076 01b8 88       		.byte	0x88
 3077 01b9 6F000000 		.4byte	0x6f
 3078 01bd 02       		.byte	0x2
 3079 01be 23       		.byte	0x23
 3080 01bf 00       		.uleb128 0x0
 3081 01c0 09       		.uleb128 0x9
 3082 01c1 4B040000 		.4byte	.LASF32
 3083 01c5 03       		.byte	0x3
 3084 01c6 89       		.byte	0x89
 3085 01c7 7A000000 		.4byte	0x7a
 3086 01cb 02       		.byte	0x2
 3087 01cc 23       		.byte	0x23
 3088 01cd 02       		.uleb128 0x2
 3089 01ce 00       		.byte	0x0
 3090 01cf 04       		.uleb128 0x4
 3091 01d0 6A010000 		.4byte	.LASF33
 3092 01d4 03       		.byte	0x3
 3093 01d5 8A       		.byte	0x8a
 3094 01d6 A6010000 		.4byte	0x1a6
 3095 01da 08       		.uleb128 0x8
 3096 01db AB030000 		.4byte	.LASF34
 3097 01df 0C       		.byte	0xc
 3098 01e0 03       		.byte	0x3
 3099 01e1 8D       		.byte	0x8d
 3100 01e2 11020000 		.4byte	0x211
 3101 01e6 09       		.uleb128 0x9
 3102 01e7 18000000 		.4byte	.LASF35
 3103 01eb 03       		.byte	0x3
 3104 01ec 8E       		.byte	0x8e
 3105 01ed 7A000000 		.4byte	0x7a
 3106 01f1 02       		.byte	0x2
 3107 01f2 23       		.byte	0x23
 3108 01f3 00       		.uleb128 0x0
 3109 01f4 09       		.uleb128 0x9
ARM GAS  C:\Users\Craig\AppData\Local\Temp\cc9NnIsK.s 			page 76


 3110 01f5 40010000 		.4byte	.LASF36
 3111 01f9 03       		.byte	0x3
 3112 01fa 8F       		.byte	0x8f
 3113 01fb 11020000 		.4byte	0x211
 3114 01ff 02       		.byte	0x2
 3115 0200 23       		.byte	0x23
 3116 0201 04       		.uleb128 0x4
 3117 0202 09       		.uleb128 0x9
 3118 0203 00000000 		.4byte	.LASF37
 3119 0207 03       		.byte	0x3
 3120 0208 90       		.byte	0x90
 3121 0209 17020000 		.4byte	0x217
 3122 020d 02       		.byte	0x2
 3123 020e 23       		.byte	0x23
 3124 020f 08       		.uleb128 0x8
 3125 0210 00       		.byte	0x0
 3126 0211 0A       		.uleb128 0xa
 3127 0212 04       		.byte	0x4
 3128 0213 9A000000 		.4byte	0x9a
 3129 0217 0A       		.uleb128 0xa
 3130 0218 04       		.byte	0x4
 3131 0219 CF010000 		.4byte	0x1cf
 3132 021d 04       		.uleb128 0x4
 3133 021e 8E020000 		.4byte	.LASF38
 3134 0222 03       		.byte	0x3
 3135 0223 91       		.byte	0x91
 3136 0224 DA010000 		.4byte	0x1da
 3137 0228 08       		.uleb128 0x8
 3138 0229 13040000 		.4byte	.LASF39
 3139 022d 08       		.byte	0x8
 3140 022e 03       		.byte	0x3
 3141 022f 94       		.byte	0x94
 3142 0230 4F020000 		.4byte	0x24f
 3143 0234 0B       		.uleb128 0xb
 3144 0235 6300     		.ascii	"c\000"
 3145 0237 03       		.byte	0x3
 3146 0238 95       		.byte	0x95
 3147 0239 6F000000 		.4byte	0x6f
 3148 023d 02       		.byte	0x2
 3149 023e 23       		.byte	0x23
 3150 023f 00       		.uleb128 0x0
 3151 0240 09       		.uleb128 0x9
 3152 0241 AD020000 		.4byte	.LASF40
 3153 0245 03       		.byte	0x3
 3154 0246 96       		.byte	0x96
 3155 0247 A2000000 		.4byte	0xa2
 3156 024b 02       		.byte	0x2
 3157 024c 23       		.byte	0x23
 3158 024d 04       		.uleb128 0x4
 3159 024e 00       		.byte	0x0
 3160 024f 04       		.uleb128 0x4
 3161 0250 FD000000 		.4byte	.LASF41
 3162 0254 03       		.byte	0x3
 3163 0255 97       		.byte	0x97
 3164 0256 28020000 		.4byte	0x228
 3165 025a 0C       		.uleb128 0xc
 3166 025b 01       		.byte	0x1
ARM GAS  C:\Users\Craig\AppData\Local\Temp\cc9NnIsK.s 			page 77


 3167 025c 92040000 		.4byte	.LASF46
 3168 0260 01       		.byte	0x1
 3169 0261 71       		.byte	0x71
 3170 0262 01       		.byte	0x1
 3171 0263 00000000 		.4byte	.LFB0
 3172 0267 12000000 		.4byte	.LFE0
 3173 026b 00000000 		.4byte	.LLST0
 3174 026f 82020000 		.4byte	0x282
 3175 0273 0D       		.uleb128 0xd
 3176 0274 BF040000 		.4byte	.LASF49
 3177 0278 01       		.byte	0x1
 3178 0279 71       		.byte	0x71
 3179 027a 82020000 		.4byte	0x282
 3180 027e 02       		.byte	0x2
 3181 027f 91       		.byte	0x91
 3182 0280 74       		.sleb128 -12
 3183 0281 00       		.byte	0x0
 3184 0282 0A       		.uleb128 0xa
 3185 0283 04       		.byte	0x4
 3186 0284 6F000000 		.4byte	0x6f
 3187 0288 0E       		.uleb128 0xe
 3188 0289 01       		.byte	0x1
 3189 028a 69020000 		.4byte	.LASF54
 3190 028e 01       		.byte	0x1
 3191 028f 96       		.byte	0x96
 3192 0290 01       		.byte	0x1
 3193 0291 6F000000 		.4byte	0x6f
 3194 0295 00000000 		.4byte	.LFB1
 3195 0299 D2050000 		.4byte	.LFE1
 3196 029d 37000000 		.4byte	.LLST1
 3197 02a1 EC020000 		.4byte	0x2ec
 3198 02a5 0F       		.uleb128 0xf
 3199 02a6 F9030000 		.4byte	.LASF42
 3200 02aa 01       		.byte	0x1
 3201 02ab 98       		.byte	0x98
 3202 02ac 6F000000 		.4byte	0x6f
 3203 02b0 02       		.byte	0x2
 3204 02b1 91       		.byte	0x91
 3205 02b2 6B       		.sleb128 -21
 3206 02b3 0F       		.uleb128 0xf
 3207 02b4 5F030000 		.4byte	.LASF43
 3208 02b8 01       		.byte	0x1
 3209 02b9 9A       		.byte	0x9a
 3210 02ba 11020000 		.4byte	0x211
 3211 02be 02       		.byte	0x2
 3212 02bf 91       		.byte	0x91
 3213 02c0 6C       		.sleb128 -20
 3214 02c1 0F       		.uleb128 0xf
 3215 02c2 52040000 		.4byte	.LASF44
 3216 02c6 01       		.byte	0x1
 3217 02c7 9C       		.byte	0x9c
 3218 02c8 6F000000 		.4byte	0x6f
 3219 02cc 02       		.byte	0x2
 3220 02cd 91       		.byte	0x91
 3221 02ce 71       		.sleb128 -15
 3222 02cf 0F       		.uleb128 0xf
 3223 02d0 18000000 		.4byte	.LASF35
ARM GAS  C:\Users\Craig\AppData\Local\Temp\cc9NnIsK.s 			page 78


 3224 02d4 01       		.byte	0x1
 3225 02d5 9F       		.byte	0x9f
 3226 02d6 7A000000 		.4byte	0x7a
 3227 02da 02       		.byte	0x2
 3228 02db 91       		.byte	0x91
 3229 02dc 72       		.sleb128 -14
 3230 02dd 0F       		.uleb128 0xf
 3231 02de 65040000 		.4byte	.LASF45
 3232 02e2 01       		.byte	0x1
 3233 02e3 A1       		.byte	0xa1
 3234 02e4 EC020000 		.4byte	0x2ec
 3235 02e8 02       		.byte	0x2
 3236 02e9 91       		.byte	0x91
 3237 02ea 74       		.sleb128 -12
 3238 02eb 00       		.byte	0x0
 3239 02ec 0A       		.uleb128 0xa
 3240 02ed 04       		.byte	0x4
 3241 02ee 4F020000 		.4byte	0x24f
 3242 02f2 10       		.uleb128 0x10
 3243 02f3 01       		.byte	0x1
 3244 02f4 C6020000 		.4byte	.LASF47
 3245 02f8 01       		.byte	0x1
 3246 02f9 B001     		.2byte	0x1b0
 3247 02fb 01       		.byte	0x1
 3248 02fc 00000000 		.4byte	.LFB2
 3249 0300 06020000 		.4byte	.LFE2
 3250 0304 6E000000 		.4byte	.LLST2
 3251 0308 28030000 		.4byte	0x328
 3252 030c 11       		.uleb128 0x11
 3253 030d 657000   		.ascii	"ep\000"
 3254 0310 01       		.byte	0x1
 3255 0311 B201     		.2byte	0x1b2
 3256 0313 6F000000 		.4byte	0x6f
 3257 0317 02       		.byte	0x2
 3258 0318 91       		.byte	0x91
 3259 0319 76       		.sleb128 -10
 3260 031a 11       		.uleb128 0x11
 3261 031b 6900     		.ascii	"i\000"
 3262 031d 01       		.byte	0x1
 3263 031e B301     		.2byte	0x1b3
 3264 0320 6F000000 		.4byte	0x6f
 3265 0324 02       		.byte	0x2
 3266 0325 91       		.byte	0x91
 3267 0326 77       		.sleb128 -9
 3268 0327 00       		.byte	0x0
 3269 0328 10       		.uleb128 0x10
 3270 0329 01       		.byte	0x1
 3271 032a 0D000000 		.4byte	.LASF48
 3272 032e 01       		.byte	0x1
 3273 032f 0D02     		.2byte	0x20d
 3274 0331 01       		.byte	0x1
 3275 0332 00000000 		.4byte	.LFB3
 3276 0336 38040000 		.4byte	.LFE3
 3277 033a A5000000 		.4byte	.LLST3
 3278 033e C7030000 		.4byte	0x3c7
 3279 0342 12       		.uleb128 0x12
 3280 0343 E3000000 		.4byte	.LASF50
ARM GAS  C:\Users\Craig\AppData\Local\Temp\cc9NnIsK.s 			page 79


 3281 0347 01       		.byte	0x1
 3282 0348 0D02     		.2byte	0x20d
 3283 034a 6F000000 		.4byte	0x6f
 3284 034e 02       		.byte	0x2
 3285 034f 91       		.byte	0x91
 3286 0350 5F       		.sleb128 -33
 3287 0351 11       		.uleb128 0x11
 3288 0352 657000   		.ascii	"ep\000"
 3289 0355 01       		.byte	0x1
 3290 0356 0F02     		.2byte	0x20f
 3291 0358 6F000000 		.4byte	0x6f
 3292 035c 02       		.byte	0x2
 3293 035d 91       		.byte	0x91
 3294 035e 64       		.sleb128 -28
 3295 035f 13       		.uleb128 0x13
 3296 0360 57040000 		.4byte	.LASF51
 3297 0364 01       		.byte	0x1
 3298 0365 1002     		.2byte	0x210
 3299 0367 6F000000 		.4byte	0x6f
 3300 036b 02       		.byte	0x2
 3301 036c 91       		.byte	0x91
 3302 036d 65       		.sleb128 -27
 3303 036e 11       		.uleb128 0x11
 3304 036f 6900     		.ascii	"i\000"
 3305 0371 01       		.byte	0x1
 3306 0372 1102     		.2byte	0x211
 3307 0374 6F000000 		.4byte	0x6f
 3308 0378 02       		.byte	0x2
 3309 0379 91       		.byte	0x91
 3310 037a 66       		.sleb128 -26
 3311 037b 11       		.uleb128 0x11
 3312 037c 69736F00 		.ascii	"iso\000"
 3313 0380 01       		.byte	0x1
 3314 0381 1202     		.2byte	0x212
 3315 0383 6F000000 		.4byte	0x6f
 3316 0387 02       		.byte	0x2
 3317 0388 91       		.byte	0x91
 3318 0389 67       		.sleb128 -25
 3319 038a 13       		.uleb128 0x13
 3320 038b 31040000 		.4byte	.LASF52
 3321 038f 01       		.byte	0x1
 3322 0390 1302     		.2byte	0x213
 3323 0392 82020000 		.4byte	0x282
 3324 0396 02       		.byte	0x2
 3325 0397 91       		.byte	0x91
 3326 0398 68       		.sleb128 -24
 3327 0399 13       		.uleb128 0x13
 3328 039a 18000000 		.4byte	.LASF35
 3329 039e 01       		.byte	0x1
 3330 039f 1502     		.2byte	0x215
 3331 03a1 7A000000 		.4byte	0x7a
 3332 03a5 02       		.byte	0x2
 3333 03a6 91       		.byte	0x91
 3334 03a7 6E       		.sleb128 -18
 3335 03a8 13       		.uleb128 0x13
 3336 03a9 65040000 		.4byte	.LASF45
 3337 03ad 01       		.byte	0x1
ARM GAS  C:\Users\Craig\AppData\Local\Temp\cc9NnIsK.s 			page 80


 3338 03ae 1802     		.2byte	0x218
 3339 03b0 EC020000 		.4byte	0x2ec
 3340 03b4 02       		.byte	0x2
 3341 03b5 91       		.byte	0x91
 3342 03b6 70       		.sleb128 -16
 3343 03b7 11       		.uleb128 0x11
 3344 03b8 70455000 		.ascii	"pEP\000"
 3345 03bc 01       		.byte	0x1
 3346 03bd 1902     		.2byte	0x219
 3347 03bf C7030000 		.4byte	0x3c7
 3348 03c3 02       		.byte	0x2
 3349 03c4 91       		.byte	0x91
 3350 03c5 74       		.sleb128 -12
 3351 03c6 00       		.byte	0x0
 3352 03c7 0A       		.uleb128 0xa
 3353 03c8 04       		.byte	0x4
 3354 03c9 9B010000 		.4byte	0x19b
 3355 03cd 10       		.uleb128 0x10
 3356 03ce 01       		.byte	0x1
 3357 03cf DC040000 		.4byte	.LASF53
 3358 03d3 01       		.byte	0x1
 3359 03d4 0103     		.2byte	0x301
 3360 03d6 01       		.byte	0x1
 3361 03d7 00000000 		.4byte	.LFB4
 3362 03db 5E030000 		.4byte	.LFE4
 3363 03df DC000000 		.4byte	.LLST4
 3364 03e3 4D040000 		.4byte	0x44d
 3365 03e7 11       		.uleb128 0x11
 3366 03e8 657000   		.ascii	"ep\000"
 3367 03eb 01       		.byte	0x1
 3368 03ec 0303     		.2byte	0x303
 3369 03ee 6F000000 		.4byte	0x6f
 3370 03f2 02       		.byte	0x2
 3371 03f3 91       		.byte	0x91
 3372 03f4 6B       		.sleb128 -21
 3373 03f5 13       		.uleb128 0x13
 3374 03f6 57040000 		.4byte	.LASF51
 3375 03fa 01       		.byte	0x1
 3376 03fb 0303     		.2byte	0x303
 3377 03fd 6F000000 		.4byte	0x6f
 3378 0401 02       		.byte	0x2
 3379 0402 91       		.byte	0x91
 3380 0403 6C       		.sleb128 -20
 3381 0404 11       		.uleb128 0x11
 3382 0405 6900     		.ascii	"i\000"
 3383 0407 01       		.byte	0x1
 3384 0408 0303     		.2byte	0x303
 3385 040a 6F000000 		.4byte	0x6f
 3386 040e 02       		.byte	0x2
 3387 040f 91       		.byte	0x91
 3388 0410 6D       		.sleb128 -19
 3389 0411 11       		.uleb128 0x11
 3390 0412 69736F00 		.ascii	"iso\000"
 3391 0416 01       		.byte	0x1
 3392 0417 0403     		.2byte	0x304
 3393 0419 6F000000 		.4byte	0x6f
 3394 041d 02       		.byte	0x2
ARM GAS  C:\Users\Craig\AppData\Local\Temp\cc9NnIsK.s 			page 81


 3395 041e 91       		.byte	0x91
 3396 041f 6E       		.sleb128 -18
 3397 0420 11       		.uleb128 0x11
 3398 0421 726900   		.ascii	"ri\000"
 3399 0424 01       		.byte	0x1
 3400 0425 0503     		.2byte	0x305
 3401 0427 6F000000 		.4byte	0x6f
 3402 042b 02       		.byte	0x2
 3403 042c 91       		.byte	0x91
 3404 042d 6F       		.sleb128 -17
 3405 042e 13       		.uleb128 0x13
 3406 042f 65040000 		.4byte	.LASF45
 3407 0433 01       		.byte	0x1
 3408 0434 0703     		.2byte	0x307
 3409 0436 EC020000 		.4byte	0x2ec
 3410 043a 02       		.byte	0x2
 3411 043b 91       		.byte	0x91
 3412 043c 70       		.sleb128 -16
 3413 043d 11       		.uleb128 0x11
 3414 043e 70455000 		.ascii	"pEP\000"
 3415 0442 01       		.byte	0x1
 3416 0443 0803     		.2byte	0x308
 3417 0445 C7030000 		.4byte	0x3c7
 3418 0449 02       		.byte	0x2
 3419 044a 91       		.byte	0x91
 3420 044b 74       		.sleb128 -12
 3421 044c 00       		.byte	0x0
 3422 044d 14       		.uleb128 0x14
 3423 044e 01       		.byte	0x1
 3424 044f FB010000 		.4byte	.LASF55
 3425 0453 01       		.byte	0x1
 3426 0454 7303     		.2byte	0x373
 3427 0456 01       		.byte	0x1
 3428 0457 EC020000 		.4byte	0x2ec
 3429 045b 00000000 		.4byte	.LFB5
 3430 045f 2C000000 		.4byte	.LFE5
 3431 0463 13010000 		.4byte	.LLST5
 3432 0467 88040000 		.4byte	0x488
 3433 046b 15       		.uleb128 0x15
 3434 046c 6300     		.ascii	"c\000"
 3435 046e 01       		.byte	0x1
 3436 046f 7303     		.2byte	0x373
 3437 0471 6F000000 		.4byte	0x6f
 3438 0475 02       		.byte	0x2
 3439 0476 91       		.byte	0x91
 3440 0477 6F       		.sleb128 -17
 3441 0478 13       		.uleb128 0x13
 3442 0479 65040000 		.4byte	.LASF45
 3443 047d 01       		.byte	0x1
 3444 047e 7703     		.2byte	0x377
 3445 0480 EC020000 		.4byte	0x2ec
 3446 0484 02       		.byte	0x2
 3447 0485 91       		.byte	0x91
 3448 0486 74       		.sleb128 -12
 3449 0487 00       		.byte	0x0
 3450 0488 16       		.uleb128 0x16
 3451 0489 01       		.byte	0x1
ARM GAS  C:\Users\Craig\AppData\Local\Temp\cc9NnIsK.s 			page 82


 3452 048a 97020000 		.4byte	.LASF83
 3453 048e 01       		.byte	0x1
 3454 048f 8F03     		.2byte	0x38f
 3455 0491 01       		.byte	0x1
 3456 0492 EC020000 		.4byte	0x2ec
 3457 0496 00000000 		.4byte	.LFB6
 3458 049a 28000000 		.4byte	.LFE6
 3459 049e 4A010000 		.4byte	.LLST6
 3460 04a2 14       		.uleb128 0x14
 3461 04a3 01       		.byte	0x1
 3462 04a4 AB000000 		.4byte	.LASF56
 3463 04a8 01       		.byte	0x1
 3464 04a9 A503     		.2byte	0x3a5
 3465 04ab 01       		.byte	0x1
 3466 04ac 82020000 		.4byte	0x282
 3467 04b0 00000000 		.4byte	.LFB7
 3468 04b4 50000000 		.4byte	.LFE7
 3469 04b8 75010000 		.4byte	.LLST7
 3470 04bc DF040000 		.4byte	0x4df
 3471 04c0 13       		.uleb128 0x13
 3472 04c1 65040000 		.4byte	.LASF45
 3473 04c5 01       		.byte	0x1
 3474 04c6 A803     		.2byte	0x3a8
 3475 04c8 EC020000 		.4byte	0x2ec
 3476 04cc 02       		.byte	0x2
 3477 04cd 91       		.byte	0x91
 3478 04ce 70       		.sleb128 -16
 3479 04cf 13       		.uleb128 0x13
 3480 04d0 D4020000 		.4byte	.LASF57
 3481 04d4 01       		.byte	0x1
 3482 04d5 A903     		.2byte	0x3a9
 3483 04d7 6F000000 		.4byte	0x6f
 3484 04db 02       		.byte	0x2
 3485 04dc 91       		.byte	0x91
 3486 04dd 77       		.sleb128 -9
 3487 04de 00       		.byte	0x0
 3488 04df 10       		.uleb128 0x10
 3489 04e0 01       		.byte	0x1
 3490 04e1 3E020000 		.4byte	.LASF58
 3491 04e5 01       		.byte	0x1
 3492 04e6 C703     		.2byte	0x3c7
 3493 04e8 01       		.byte	0x1
 3494 04e9 00000000 		.4byte	.LFB8
 3495 04ed F8000000 		.4byte	.LFE8
 3496 04f1 AC010000 		.4byte	.LLST8
 3497 04f5 16050000 		.4byte	0x516
 3498 04f9 15       		.uleb128 0x15
 3499 04fa 657000   		.ascii	"ep\000"
 3500 04fd 01       		.byte	0x1
 3501 04fe C703     		.2byte	0x3c7
 3502 0500 6F000000 		.4byte	0x6f
 3503 0504 02       		.byte	0x2
 3504 0505 91       		.byte	0x91
 3505 0506 6F       		.sleb128 -17
 3506 0507 11       		.uleb128 0x11
 3507 0508 726900   		.ascii	"ri\000"
 3508 050b 01       		.byte	0x1
ARM GAS  C:\Users\Craig\AppData\Local\Temp\cc9NnIsK.s 			page 83


 3509 050c C903     		.2byte	0x3c9
 3510 050e 6F000000 		.4byte	0x6f
 3511 0512 02       		.byte	0x2
 3512 0513 91       		.byte	0x91
 3513 0514 77       		.sleb128 -9
 3514 0515 00       		.byte	0x0
 3515 0516 14       		.uleb128 0x14
 3516 0517 01       		.byte	0x1
 3517 0518 37000000 		.4byte	.LASF59
 3518 051c 01       		.byte	0x1
 3519 051d F603     		.2byte	0x3f6
 3520 051f 01       		.byte	0x1
 3521 0520 6F000000 		.4byte	0x6f
 3522 0524 00000000 		.4byte	.LFB9
 3523 0528 2E010000 		.4byte	.LFE9
 3524 052c E3010000 		.4byte	.LLST9
 3525 0530 60050000 		.4byte	0x560
 3526 0534 11       		.uleb128 0x11
 3527 0535 657000   		.ascii	"ep\000"
 3528 0538 01       		.byte	0x1
 3529 0539 F803     		.2byte	0x3f8
 3530 053b 6F000000 		.4byte	0x6f
 3531 053f 02       		.byte	0x2
 3532 0540 91       		.byte	0x91
 3533 0541 75       		.sleb128 -11
 3534 0542 11       		.uleb128 0x11
 3535 0543 726900   		.ascii	"ri\000"
 3536 0546 01       		.byte	0x1
 3537 0547 F803     		.2byte	0x3f8
 3538 0549 6F000000 		.4byte	0x6f
 3539 054d 02       		.byte	0x2
 3540 054e 91       		.byte	0x91
 3541 054f 76       		.sleb128 -10
 3542 0550 13       		.uleb128 0x13
 3543 0551 F9030000 		.4byte	.LASF42
 3544 0555 01       		.byte	0x1
 3545 0556 F903     		.2byte	0x3f9
 3546 0558 6F000000 		.4byte	0x6f
 3547 055c 02       		.byte	0x2
 3548 055d 91       		.byte	0x91
 3549 055e 77       		.sleb128 -9
 3550 055f 00       		.byte	0x0
 3551 0560 14       		.uleb128 0x14
 3552 0561 01       		.byte	0x1
 3553 0562 F0020000 		.4byte	.LASF60
 3554 0566 01       		.byte	0x1
 3555 0567 2C04     		.2byte	0x42c
 3556 0569 01       		.byte	0x1
 3557 056a 6F000000 		.4byte	0x6f
 3558 056e 00000000 		.4byte	.LFB10
 3559 0572 B8010000 		.4byte	.LFE10
 3560 0576 1A020000 		.4byte	.LLST10
 3561 057a AA050000 		.4byte	0x5aa
 3562 057e 11       		.uleb128 0x11
 3563 057f 657000   		.ascii	"ep\000"
 3564 0582 01       		.byte	0x1
 3565 0583 2E04     		.2byte	0x42e
ARM GAS  C:\Users\Craig\AppData\Local\Temp\cc9NnIsK.s 			page 84


 3566 0585 6F000000 		.4byte	0x6f
 3567 0589 02       		.byte	0x2
 3568 058a 91       		.byte	0x91
 3569 058b 75       		.sleb128 -11
 3570 058c 11       		.uleb128 0x11
 3571 058d 726900   		.ascii	"ri\000"
 3572 0590 01       		.byte	0x1
 3573 0591 2E04     		.2byte	0x42e
 3574 0593 6F000000 		.4byte	0x6f
 3575 0597 02       		.byte	0x2
 3576 0598 91       		.byte	0x91
 3577 0599 76       		.sleb128 -10
 3578 059a 13       		.uleb128 0x13
 3579 059b F9030000 		.4byte	.LASF42
 3580 059f 01       		.byte	0x1
 3581 05a0 2F04     		.2byte	0x42f
 3582 05a2 6F000000 		.4byte	0x6f
 3583 05a6 02       		.byte	0x2
 3584 05a7 91       		.byte	0x91
 3585 05a8 77       		.sleb128 -9
 3586 05a9 00       		.byte	0x0
 3587 05aa 14       		.uleb128 0x14
 3588 05ab 01       		.byte	0x1
 3589 05ac 46010000 		.4byte	.LASF61
 3590 05b0 01       		.byte	0x1
 3591 05b1 7204     		.2byte	0x472
 3592 05b3 01       		.byte	0x1
 3593 05b4 6F000000 		.4byte	0x6f
 3594 05b8 00000000 		.4byte	.LFB11
 3595 05bc 94000000 		.4byte	.LFE11
 3596 05c0 51020000 		.4byte	.LLST11
 3597 05c4 05060000 		.4byte	0x605
 3598 05c8 13       		.uleb128 0x13
 3599 05c9 F9030000 		.4byte	.LASF42
 3600 05cd 01       		.byte	0x1
 3601 05ce 7404     		.2byte	0x474
 3602 05d0 6F000000 		.4byte	0x6f
 3603 05d4 02       		.byte	0x2
 3604 05d5 91       		.byte	0x91
 3605 05d6 6E       		.sleb128 -18
 3606 05d7 13       		.uleb128 0x13
 3607 05d8 6A040000 		.4byte	.LASF62
 3608 05dc 01       		.byte	0x1
 3609 05dd 7504     		.2byte	0x475
 3610 05df 6F000000 		.4byte	0x6f
 3611 05e3 02       		.byte	0x2
 3612 05e4 91       		.byte	0x91
 3613 05e5 6F       		.sleb128 -17
 3614 05e6 13       		.uleb128 0x13
 3615 05e7 65040000 		.4byte	.LASF45
 3616 05eb 01       		.byte	0x1
 3617 05ec 7604     		.2byte	0x476
 3618 05ee EC020000 		.4byte	0x2ec
 3619 05f2 02       		.byte	0x2
 3620 05f3 91       		.byte	0x91
 3621 05f4 70       		.sleb128 -16
 3622 05f5 13       		.uleb128 0x13
ARM GAS  C:\Users\Craig\AppData\Local\Temp\cc9NnIsK.s 			page 85


 3623 05f6 D4020000 		.4byte	.LASF57
 3624 05fa 01       		.byte	0x1
 3625 05fb 7704     		.2byte	0x477
 3626 05fd 6F000000 		.4byte	0x6f
 3627 0601 02       		.byte	0x2
 3628 0602 91       		.byte	0x91
 3629 0603 77       		.sleb128 -9
 3630 0604 00       		.byte	0x0
 3631 0605 17       		.uleb128 0x17
 3632 0606 6F000000 		.4byte	0x6f
 3633 060a 10060000 		.4byte	0x610
 3634 060e 18       		.uleb128 0x18
 3635 060f 00       		.byte	0x0
 3636 0610 19       		.uleb128 0x19
 3637 0611 94030000 		.4byte	.LASF63
 3638 0615 01       		.byte	0x1
 3639 0616 1A       		.byte	0x1a
 3640 0617 1D060000 		.4byte	0x61d
 3641 061b 01       		.byte	0x1
 3642 061c 01       		.byte	0x1
 3643 061d 1A       		.uleb128 0x1a
 3644 061e 05060000 		.4byte	0x605
 3645 0622 19       		.uleb128 0x19
 3646 0623 BB020000 		.4byte	.LASF64
 3647 0627 01       		.byte	0x1
 3648 0628 1E       		.byte	0x1e
 3649 0629 9A000000 		.4byte	0x9a
 3650 062d 01       		.byte	0x1
 3651 062e 01       		.byte	0x1
 3652 062f 19       		.uleb128 0x19
 3653 0630 25000000 		.4byte	.LASF65
 3654 0634 01       		.byte	0x1
 3655 0635 1F       		.byte	0x1f
 3656 0636 9A000000 		.4byte	0x9a
 3657 063a 01       		.byte	0x1
 3658 063b 01       		.byte	0x1
 3659 063c 19       		.uleb128 0x19
 3660 063d A6040000 		.4byte	.LASF66
 3661 0641 01       		.byte	0x1
 3662 0642 20       		.byte	0x20
 3663 0643 9A000000 		.4byte	0x9a
 3664 0647 01       		.byte	0x1
 3665 0648 01       		.byte	0x1
 3666 0649 19       		.uleb128 0x19
 3667 064a C8040000 		.4byte	.LASF67
 3668 064e 01       		.byte	0x1
 3669 064f 21       		.byte	0x21
 3670 0650 9A000000 		.4byte	0x9a
 3671 0654 01       		.byte	0x1
 3672 0655 01       		.byte	0x1
 3673 0656 19       		.uleb128 0x19
 3674 0657 83000000 		.4byte	.LASF68
 3675 065b 01       		.byte	0x1
 3676 065c 22       		.byte	0x22
 3677 065d 63060000 		.4byte	0x663
 3678 0661 01       		.byte	0x1
 3679 0662 01       		.byte	0x1
ARM GAS  C:\Users\Craig\AppData\Local\Temp\cc9NnIsK.s 			page 86


 3680 0663 05       		.uleb128 0x5
 3681 0664 05060000 		.4byte	0x605
 3682 0668 19       		.uleb128 0x19
 3683 0669 26010000 		.4byte	.LASF69
 3684 066d 01       		.byte	0x1
 3685 066e 23       		.byte	0x23
 3686 066f 75060000 		.4byte	0x675
 3687 0673 01       		.byte	0x1
 3688 0674 01       		.byte	0x1
 3689 0675 05       		.uleb128 0x5
 3690 0676 05060000 		.4byte	0x605
 3691 067a 19       		.uleb128 0x19
 3692 067b 4D030000 		.4byte	.LASF70
 3693 067f 01       		.byte	0x1
 3694 0680 24       		.byte	0x24
 3695 0681 9A000000 		.4byte	0x9a
 3696 0685 01       		.byte	0x1
 3697 0686 01       		.byte	0x1
 3698 0687 19       		.uleb128 0x19
 3699 0688 4E020000 		.4byte	.LASF71
 3700 068c 01       		.byte	0x1
 3701 068d 25       		.byte	0x25
 3702 068e 9A000000 		.4byte	0x9a
 3703 0692 01       		.byte	0x1
 3704 0693 01       		.byte	0x1
 3705 0694 19       		.uleb128 0x19
 3706 0695 BE030000 		.4byte	.LASF72
 3707 0699 01       		.byte	0x1
 3708 069a 26       		.byte	0x26
 3709 069b A1060000 		.4byte	0x6a1
 3710 069f 01       		.byte	0x1
 3711 06a0 01       		.byte	0x1
 3712 06a1 05       		.uleb128 0x5
 3713 06a2 05060000 		.4byte	0x605
 3714 06a6 19       		.uleb128 0x19
 3715 06a7 2F030000 		.4byte	.LASF73
 3716 06ab 01       		.byte	0x1
 3717 06ac 27       		.byte	0x27
 3718 06ad 82020000 		.4byte	0x282
 3719 06b1 01       		.byte	0x1
 3720 06b2 01       		.byte	0x1
 3721 06b3 17       		.uleb128 0x17
 3722 06b4 4F020000 		.4byte	0x24f
 3723 06b8 BE060000 		.4byte	0x6be
 3724 06bc 18       		.uleb128 0x18
 3725 06bd 00       		.byte	0x0
 3726 06be 19       		.uleb128 0x19
 3727 06bf F3000000 		.4byte	.LASF74
 3728 06c3 01       		.byte	0x1
 3729 06c4 28       		.byte	0x28
 3730 06c5 CB060000 		.4byte	0x6cb
 3731 06c9 01       		.byte	0x1
 3732 06ca 01       		.byte	0x1
 3733 06cb 1A       		.uleb128 0x1a
 3734 06cc B3060000 		.4byte	0x6b3
 3735 06d0 17       		.uleb128 0x17
 3736 06d1 2F010000 		.4byte	0x12f
ARM GAS  C:\Users\Craig\AppData\Local\Temp\cc9NnIsK.s 			page 87


 3737 06d5 DB060000 		.4byte	0x6db
 3738 06d9 18       		.uleb128 0x18
 3739 06da 00       		.byte	0x0
 3740 06db 19       		.uleb128 0x19
 3741 06dc E9020000 		.4byte	.LASF75
 3742 06e0 01       		.byte	0x1
 3743 06e1 29       		.byte	0x29
 3744 06e2 E8060000 		.4byte	0x6e8
 3745 06e6 01       		.byte	0x1
 3746 06e7 01       		.byte	0x1
 3747 06e8 05       		.uleb128 0x5
 3748 06e9 D0060000 		.4byte	0x6d0
 3749 06ed 19       		.uleb128 0x19
 3750 06ee 80020000 		.4byte	.LASF76
 3751 06f2 01       		.byte	0x1
 3752 06f3 2A       		.byte	0x2a
 3753 06f4 FA060000 		.4byte	0x6fa
 3754 06f8 01       		.byte	0x1
 3755 06f9 01       		.byte	0x1
 3756 06fa 05       		.uleb128 0x5
 3757 06fb 1D020000 		.4byte	0x21d
 3758 06ff 17       		.uleb128 0x17
 3759 0700 6F000000 		.4byte	0x6f
 3760 0704 0F070000 		.4byte	0x70f
 3761 0708 1B       		.uleb128 0x1b
 3762 0709 9F000000 		.4byte	0x9f
 3763 070d 01       		.byte	0x1
 3764 070e 00       		.byte	0x0
 3765 070f 1C       		.uleb128 0x1c
 3766 0710 E2030000 		.4byte	.LASF77
 3767 0714 01       		.byte	0x1
 3768 0715 59       		.byte	0x59
 3769 0716 21070000 		.4byte	0x721
 3770 071a 01       		.byte	0x1
 3771 071b 05       		.byte	0x5
 3772 071c 03       		.byte	0x3
 3773 071d 00000000 		.4byte	USB_tBuffer
 3774 0721 05       		.uleb128 0x5
 3775 0722 FF060000 		.4byte	0x6ff
 3776 0726 1C       		.uleb128 0x1c
 3777 0727 06030000 		.4byte	.LASF78
 3778 072b 01       		.byte	0x1
 3779 072c 5B       		.byte	0x5b
 3780 072d 11020000 		.4byte	0x211
 3781 0731 01       		.byte	0x1
 3782 0732 05       		.byte	0x5
 3783 0733 03       		.byte	0x3
 3784 0734 00000000 		.4byte	USB_fwSerialNumberStringDescriptor
 3785 0738 1C       		.uleb128 0x1c
 3786 0739 8F010000 		.4byte	.LASF79
 3787 073d 01       		.byte	0x1
 3788 073e 5C       		.byte	0x5c
 3789 073f 9A000000 		.4byte	0x9a
 3790 0743 01       		.byte	0x1
 3791 0744 05       		.byte	0x5
 3792 0745 03       		.byte	0x3
 3793 0746 00000000 		.4byte	USB_snStringConfirm
ARM GAS  C:\Users\Craig\AppData\Local\Temp\cc9NnIsK.s 			page 88


 3794 074a 00       		.byte	0x0
 3795              		.section	.debug_abbrev
 3796 0000 01       		.uleb128 0x1
 3797 0001 11       		.uleb128 0x11
 3798 0002 01       		.byte	0x1
 3799 0003 25       		.uleb128 0x25
 3800 0004 0E       		.uleb128 0xe
 3801 0005 13       		.uleb128 0x13
 3802 0006 0B       		.uleb128 0xb
 3803 0007 03       		.uleb128 0x3
 3804 0008 0E       		.uleb128 0xe
 3805 0009 1B       		.uleb128 0x1b
 3806 000a 0E       		.uleb128 0xe
 3807 000b 11       		.uleb128 0x11
 3808 000c 01       		.uleb128 0x1
 3809 000d 52       		.uleb128 0x52
 3810 000e 01       		.uleb128 0x1
 3811 000f 55       		.uleb128 0x55
 3812 0010 06       		.uleb128 0x6
 3813 0011 10       		.uleb128 0x10
 3814 0012 06       		.uleb128 0x6
 3815 0013 00       		.byte	0x0
 3816 0014 00       		.byte	0x0
 3817 0015 02       		.uleb128 0x2
 3818 0016 24       		.uleb128 0x24
 3819 0017 00       		.byte	0x0
 3820 0018 0B       		.uleb128 0xb
 3821 0019 0B       		.uleb128 0xb
 3822 001a 3E       		.uleb128 0x3e
 3823 001b 0B       		.uleb128 0xb
 3824 001c 03       		.uleb128 0x3
 3825 001d 0E       		.uleb128 0xe
 3826 001e 00       		.byte	0x0
 3827 001f 00       		.byte	0x0
 3828 0020 03       		.uleb128 0x3
 3829 0021 24       		.uleb128 0x24
 3830 0022 00       		.byte	0x0
 3831 0023 0B       		.uleb128 0xb
 3832 0024 0B       		.uleb128 0xb
 3833 0025 3E       		.uleb128 0x3e
 3834 0026 0B       		.uleb128 0xb
 3835 0027 03       		.uleb128 0x3
 3836 0028 08       		.uleb128 0x8
 3837 0029 00       		.byte	0x0
 3838 002a 00       		.byte	0x0
 3839 002b 04       		.uleb128 0x4
 3840 002c 16       		.uleb128 0x16
 3841 002d 00       		.byte	0x0
 3842 002e 03       		.uleb128 0x3
 3843 002f 0E       		.uleb128 0xe
 3844 0030 3A       		.uleb128 0x3a
 3845 0031 0B       		.uleb128 0xb
 3846 0032 3B       		.uleb128 0x3b
 3847 0033 0B       		.uleb128 0xb
 3848 0034 49       		.uleb128 0x49
 3849 0035 13       		.uleb128 0x13
 3850 0036 00       		.byte	0x0
ARM GAS  C:\Users\Craig\AppData\Local\Temp\cc9NnIsK.s 			page 89


 3851 0037 00       		.byte	0x0
 3852 0038 05       		.uleb128 0x5
 3853 0039 35       		.uleb128 0x35
 3854 003a 00       		.byte	0x0
 3855 003b 49       		.uleb128 0x49
 3856 003c 13       		.uleb128 0x13
 3857 003d 00       		.byte	0x0
 3858 003e 00       		.byte	0x0
 3859 003f 06       		.uleb128 0x6
 3860 0040 24       		.uleb128 0x24
 3861 0041 00       		.byte	0x0
 3862 0042 0B       		.uleb128 0xb
 3863 0043 0B       		.uleb128 0xb
 3864 0044 3E       		.uleb128 0x3e
 3865 0045 0B       		.uleb128 0xb
 3866 0046 00       		.byte	0x0
 3867 0047 00       		.byte	0x0
 3868 0048 07       		.uleb128 0x7
 3869 0049 0F       		.uleb128 0xf
 3870 004a 00       		.byte	0x0
 3871 004b 0B       		.uleb128 0xb
 3872 004c 0B       		.uleb128 0xb
 3873 004d 00       		.byte	0x0
 3874 004e 00       		.byte	0x0
 3875 004f 08       		.uleb128 0x8
 3876 0050 13       		.uleb128 0x13
 3877 0051 01       		.byte	0x1
 3878 0052 03       		.uleb128 0x3
 3879 0053 0E       		.uleb128 0xe
 3880 0054 0B       		.uleb128 0xb
 3881 0055 0B       		.uleb128 0xb
 3882 0056 3A       		.uleb128 0x3a
 3883 0057 0B       		.uleb128 0xb
 3884 0058 3B       		.uleb128 0x3b
 3885 0059 0B       		.uleb128 0xb
 3886 005a 01       		.uleb128 0x1
 3887 005b 13       		.uleb128 0x13
 3888 005c 00       		.byte	0x0
 3889 005d 00       		.byte	0x0
 3890 005e 09       		.uleb128 0x9
 3891 005f 0D       		.uleb128 0xd
 3892 0060 00       		.byte	0x0
 3893 0061 03       		.uleb128 0x3
 3894 0062 0E       		.uleb128 0xe
 3895 0063 3A       		.uleb128 0x3a
 3896 0064 0B       		.uleb128 0xb
 3897 0065 3B       		.uleb128 0x3b
 3898 0066 0B       		.uleb128 0xb
 3899 0067 49       		.uleb128 0x49
 3900 0068 13       		.uleb128 0x13
 3901 0069 38       		.uleb128 0x38
 3902 006a 0A       		.uleb128 0xa
 3903 006b 00       		.byte	0x0
 3904 006c 00       		.byte	0x0
 3905 006d 0A       		.uleb128 0xa
 3906 006e 0F       		.uleb128 0xf
 3907 006f 00       		.byte	0x0
ARM GAS  C:\Users\Craig\AppData\Local\Temp\cc9NnIsK.s 			page 90


 3908 0070 0B       		.uleb128 0xb
 3909 0071 0B       		.uleb128 0xb
 3910 0072 49       		.uleb128 0x49
 3911 0073 13       		.uleb128 0x13
 3912 0074 00       		.byte	0x0
 3913 0075 00       		.byte	0x0
 3914 0076 0B       		.uleb128 0xb
 3915 0077 0D       		.uleb128 0xd
 3916 0078 00       		.byte	0x0
 3917 0079 03       		.uleb128 0x3
 3918 007a 08       		.uleb128 0x8
 3919 007b 3A       		.uleb128 0x3a
 3920 007c 0B       		.uleb128 0xb
 3921 007d 3B       		.uleb128 0x3b
 3922 007e 0B       		.uleb128 0xb
 3923 007f 49       		.uleb128 0x49
 3924 0080 13       		.uleb128 0x13
 3925 0081 38       		.uleb128 0x38
 3926 0082 0A       		.uleb128 0xa
 3927 0083 00       		.byte	0x0
 3928 0084 00       		.byte	0x0
 3929 0085 0C       		.uleb128 0xc
 3930 0086 2E       		.uleb128 0x2e
 3931 0087 01       		.byte	0x1
 3932 0088 3F       		.uleb128 0x3f
 3933 0089 0C       		.uleb128 0xc
 3934 008a 03       		.uleb128 0x3
 3935 008b 0E       		.uleb128 0xe
 3936 008c 3A       		.uleb128 0x3a
 3937 008d 0B       		.uleb128 0xb
 3938 008e 3B       		.uleb128 0x3b
 3939 008f 0B       		.uleb128 0xb
 3940 0090 27       		.uleb128 0x27
 3941 0091 0C       		.uleb128 0xc
 3942 0092 11       		.uleb128 0x11
 3943 0093 01       		.uleb128 0x1
 3944 0094 12       		.uleb128 0x12
 3945 0095 01       		.uleb128 0x1
 3946 0096 40       		.uleb128 0x40
 3947 0097 06       		.uleb128 0x6
 3948 0098 01       		.uleb128 0x1
 3949 0099 13       		.uleb128 0x13
 3950 009a 00       		.byte	0x0
 3951 009b 00       		.byte	0x0
 3952 009c 0D       		.uleb128 0xd
 3953 009d 05       		.uleb128 0x5
 3954 009e 00       		.byte	0x0
 3955 009f 03       		.uleb128 0x3
 3956 00a0 0E       		.uleb128 0xe
 3957 00a1 3A       		.uleb128 0x3a
 3958 00a2 0B       		.uleb128 0xb
 3959 00a3 3B       		.uleb128 0x3b
 3960 00a4 0B       		.uleb128 0xb
 3961 00a5 49       		.uleb128 0x49
 3962 00a6 13       		.uleb128 0x13
 3963 00a7 02       		.uleb128 0x2
 3964 00a8 0A       		.uleb128 0xa
ARM GAS  C:\Users\Craig\AppData\Local\Temp\cc9NnIsK.s 			page 91


 3965 00a9 00       		.byte	0x0
 3966 00aa 00       		.byte	0x0
 3967 00ab 0E       		.uleb128 0xe
 3968 00ac 2E       		.uleb128 0x2e
 3969 00ad 01       		.byte	0x1
 3970 00ae 3F       		.uleb128 0x3f
 3971 00af 0C       		.uleb128 0xc
 3972 00b0 03       		.uleb128 0x3
 3973 00b1 0E       		.uleb128 0xe
 3974 00b2 3A       		.uleb128 0x3a
 3975 00b3 0B       		.uleb128 0xb
 3976 00b4 3B       		.uleb128 0x3b
 3977 00b5 0B       		.uleb128 0xb
 3978 00b6 27       		.uleb128 0x27
 3979 00b7 0C       		.uleb128 0xc
 3980 00b8 49       		.uleb128 0x49
 3981 00b9 13       		.uleb128 0x13
 3982 00ba 11       		.uleb128 0x11
 3983 00bb 01       		.uleb128 0x1
 3984 00bc 12       		.uleb128 0x12
 3985 00bd 01       		.uleb128 0x1
 3986 00be 40       		.uleb128 0x40
 3987 00bf 06       		.uleb128 0x6
 3988 00c0 01       		.uleb128 0x1
 3989 00c1 13       		.uleb128 0x13
 3990 00c2 00       		.byte	0x0
 3991 00c3 00       		.byte	0x0
 3992 00c4 0F       		.uleb128 0xf
 3993 00c5 34       		.uleb128 0x34
 3994 00c6 00       		.byte	0x0
 3995 00c7 03       		.uleb128 0x3
 3996 00c8 0E       		.uleb128 0xe
 3997 00c9 3A       		.uleb128 0x3a
 3998 00ca 0B       		.uleb128 0xb
 3999 00cb 3B       		.uleb128 0x3b
 4000 00cc 0B       		.uleb128 0xb
 4001 00cd 49       		.uleb128 0x49
 4002 00ce 13       		.uleb128 0x13
 4003 00cf 02       		.uleb128 0x2
 4004 00d0 0A       		.uleb128 0xa
 4005 00d1 00       		.byte	0x0
 4006 00d2 00       		.byte	0x0
 4007 00d3 10       		.uleb128 0x10
 4008 00d4 2E       		.uleb128 0x2e
 4009 00d5 01       		.byte	0x1
 4010 00d6 3F       		.uleb128 0x3f
 4011 00d7 0C       		.uleb128 0xc
 4012 00d8 03       		.uleb128 0x3
 4013 00d9 0E       		.uleb128 0xe
 4014 00da 3A       		.uleb128 0x3a
 4015 00db 0B       		.uleb128 0xb
 4016 00dc 3B       		.uleb128 0x3b
 4017 00dd 05       		.uleb128 0x5
 4018 00de 27       		.uleb128 0x27
 4019 00df 0C       		.uleb128 0xc
 4020 00e0 11       		.uleb128 0x11
 4021 00e1 01       		.uleb128 0x1
ARM GAS  C:\Users\Craig\AppData\Local\Temp\cc9NnIsK.s 			page 92


 4022 00e2 12       		.uleb128 0x12
 4023 00e3 01       		.uleb128 0x1
 4024 00e4 40       		.uleb128 0x40
 4025 00e5 06       		.uleb128 0x6
 4026 00e6 01       		.uleb128 0x1
 4027 00e7 13       		.uleb128 0x13
 4028 00e8 00       		.byte	0x0
 4029 00e9 00       		.byte	0x0
 4030 00ea 11       		.uleb128 0x11
 4031 00eb 34       		.uleb128 0x34
 4032 00ec 00       		.byte	0x0
 4033 00ed 03       		.uleb128 0x3
 4034 00ee 08       		.uleb128 0x8
 4035 00ef 3A       		.uleb128 0x3a
 4036 00f0 0B       		.uleb128 0xb
 4037 00f1 3B       		.uleb128 0x3b
 4038 00f2 05       		.uleb128 0x5
 4039 00f3 49       		.uleb128 0x49
 4040 00f4 13       		.uleb128 0x13
 4041 00f5 02       		.uleb128 0x2
 4042 00f6 0A       		.uleb128 0xa
 4043 00f7 00       		.byte	0x0
 4044 00f8 00       		.byte	0x0
 4045 00f9 12       		.uleb128 0x12
 4046 00fa 05       		.uleb128 0x5
 4047 00fb 00       		.byte	0x0
 4048 00fc 03       		.uleb128 0x3
 4049 00fd 0E       		.uleb128 0xe
 4050 00fe 3A       		.uleb128 0x3a
 4051 00ff 0B       		.uleb128 0xb
 4052 0100 3B       		.uleb128 0x3b
 4053 0101 05       		.uleb128 0x5
 4054 0102 49       		.uleb128 0x49
 4055 0103 13       		.uleb128 0x13
 4056 0104 02       		.uleb128 0x2
 4057 0105 0A       		.uleb128 0xa
 4058 0106 00       		.byte	0x0
 4059 0107 00       		.byte	0x0
 4060 0108 13       		.uleb128 0x13
 4061 0109 34       		.uleb128 0x34
 4062 010a 00       		.byte	0x0
 4063 010b 03       		.uleb128 0x3
 4064 010c 0E       		.uleb128 0xe
 4065 010d 3A       		.uleb128 0x3a
 4066 010e 0B       		.uleb128 0xb
 4067 010f 3B       		.uleb128 0x3b
 4068 0110 05       		.uleb128 0x5
 4069 0111 49       		.uleb128 0x49
 4070 0112 13       		.uleb128 0x13
 4071 0113 02       		.uleb128 0x2
 4072 0114 0A       		.uleb128 0xa
 4073 0115 00       		.byte	0x0
 4074 0116 00       		.byte	0x0
 4075 0117 14       		.uleb128 0x14
 4076 0118 2E       		.uleb128 0x2e
 4077 0119 01       		.byte	0x1
 4078 011a 3F       		.uleb128 0x3f
ARM GAS  C:\Users\Craig\AppData\Local\Temp\cc9NnIsK.s 			page 93


 4079 011b 0C       		.uleb128 0xc
 4080 011c 03       		.uleb128 0x3
 4081 011d 0E       		.uleb128 0xe
 4082 011e 3A       		.uleb128 0x3a
 4083 011f 0B       		.uleb128 0xb
 4084 0120 3B       		.uleb128 0x3b
 4085 0121 05       		.uleb128 0x5
 4086 0122 27       		.uleb128 0x27
 4087 0123 0C       		.uleb128 0xc
 4088 0124 49       		.uleb128 0x49
 4089 0125 13       		.uleb128 0x13
 4090 0126 11       		.uleb128 0x11
 4091 0127 01       		.uleb128 0x1
 4092 0128 12       		.uleb128 0x12
 4093 0129 01       		.uleb128 0x1
 4094 012a 40       		.uleb128 0x40
 4095 012b 06       		.uleb128 0x6
 4096 012c 01       		.uleb128 0x1
 4097 012d 13       		.uleb128 0x13
 4098 012e 00       		.byte	0x0
 4099 012f 00       		.byte	0x0
 4100 0130 15       		.uleb128 0x15
 4101 0131 05       		.uleb128 0x5
 4102 0132 00       		.byte	0x0
 4103 0133 03       		.uleb128 0x3
 4104 0134 08       		.uleb128 0x8
 4105 0135 3A       		.uleb128 0x3a
 4106 0136 0B       		.uleb128 0xb
 4107 0137 3B       		.uleb128 0x3b
 4108 0138 05       		.uleb128 0x5
 4109 0139 49       		.uleb128 0x49
 4110 013a 13       		.uleb128 0x13
 4111 013b 02       		.uleb128 0x2
 4112 013c 0A       		.uleb128 0xa
 4113 013d 00       		.byte	0x0
 4114 013e 00       		.byte	0x0
 4115 013f 16       		.uleb128 0x16
 4116 0140 2E       		.uleb128 0x2e
 4117 0141 00       		.byte	0x0
 4118 0142 3F       		.uleb128 0x3f
 4119 0143 0C       		.uleb128 0xc
 4120 0144 03       		.uleb128 0x3
 4121 0145 0E       		.uleb128 0xe
 4122 0146 3A       		.uleb128 0x3a
 4123 0147 0B       		.uleb128 0xb
 4124 0148 3B       		.uleb128 0x3b
 4125 0149 05       		.uleb128 0x5
 4126 014a 27       		.uleb128 0x27
 4127 014b 0C       		.uleb128 0xc
 4128 014c 49       		.uleb128 0x49
 4129 014d 13       		.uleb128 0x13
 4130 014e 11       		.uleb128 0x11
 4131 014f 01       		.uleb128 0x1
 4132 0150 12       		.uleb128 0x12
 4133 0151 01       		.uleb128 0x1
 4134 0152 40       		.uleb128 0x40
 4135 0153 06       		.uleb128 0x6
ARM GAS  C:\Users\Craig\AppData\Local\Temp\cc9NnIsK.s 			page 94


 4136 0154 00       		.byte	0x0
 4137 0155 00       		.byte	0x0
 4138 0156 17       		.uleb128 0x17
 4139 0157 01       		.uleb128 0x1
 4140 0158 01       		.byte	0x1
 4141 0159 49       		.uleb128 0x49
 4142 015a 13       		.uleb128 0x13
 4143 015b 01       		.uleb128 0x1
 4144 015c 13       		.uleb128 0x13
 4145 015d 00       		.byte	0x0
 4146 015e 00       		.byte	0x0
 4147 015f 18       		.uleb128 0x18
 4148 0160 21       		.uleb128 0x21
 4149 0161 00       		.byte	0x0
 4150 0162 00       		.byte	0x0
 4151 0163 00       		.byte	0x0
 4152 0164 19       		.uleb128 0x19
 4153 0165 34       		.uleb128 0x34
 4154 0166 00       		.byte	0x0
 4155 0167 03       		.uleb128 0x3
 4156 0168 0E       		.uleb128 0xe
 4157 0169 3A       		.uleb128 0x3a
 4158 016a 0B       		.uleb128 0xb
 4159 016b 3B       		.uleb128 0x3b
 4160 016c 0B       		.uleb128 0xb
 4161 016d 49       		.uleb128 0x49
 4162 016e 13       		.uleb128 0x13
 4163 016f 3F       		.uleb128 0x3f
 4164 0170 0C       		.uleb128 0xc
 4165 0171 3C       		.uleb128 0x3c
 4166 0172 0C       		.uleb128 0xc
 4167 0173 00       		.byte	0x0
 4168 0174 00       		.byte	0x0
 4169 0175 1A       		.uleb128 0x1a
 4170 0176 26       		.uleb128 0x26
 4171 0177 00       		.byte	0x0
 4172 0178 49       		.uleb128 0x49
 4173 0179 13       		.uleb128 0x13
 4174 017a 00       		.byte	0x0
 4175 017b 00       		.byte	0x0
 4176 017c 1B       		.uleb128 0x1b
 4177 017d 21       		.uleb128 0x21
 4178 017e 00       		.byte	0x0
 4179 017f 49       		.uleb128 0x49
 4180 0180 13       		.uleb128 0x13
 4181 0181 2F       		.uleb128 0x2f
 4182 0182 0B       		.uleb128 0xb
 4183 0183 00       		.byte	0x0
 4184 0184 00       		.byte	0x0
 4185 0185 1C       		.uleb128 0x1c
 4186 0186 34       		.uleb128 0x34
 4187 0187 00       		.byte	0x0
 4188 0188 03       		.uleb128 0x3
 4189 0189 0E       		.uleb128 0xe
 4190 018a 3A       		.uleb128 0x3a
 4191 018b 0B       		.uleb128 0xb
 4192 018c 3B       		.uleb128 0x3b
ARM GAS  C:\Users\Craig\AppData\Local\Temp\cc9NnIsK.s 			page 95


 4193 018d 0B       		.uleb128 0xb
 4194 018e 49       		.uleb128 0x49
 4195 018f 13       		.uleb128 0x13
 4196 0190 3F       		.uleb128 0x3f
 4197 0191 0C       		.uleb128 0xc
 4198 0192 02       		.uleb128 0x2
 4199 0193 0A       		.uleb128 0xa
 4200 0194 00       		.byte	0x0
 4201 0195 00       		.byte	0x0
 4202 0196 00       		.byte	0x0
 4203              		.section	.debug_pubnames,"",%progbits
 4204 0000 87010000 		.4byte	0x187
 4205 0004 0200     		.2byte	0x2
 4206 0006 00000000 		.4byte	.Ldebug_info0
 4207 000a 4B070000 		.4byte	0x74b
 4208 000e 5A020000 		.4byte	0x25a
 4209 0012 5553425F 		.ascii	"USB_SerialNumString\000"
 4209      53657269 
 4209      616C4E75 
 4209      6D537472 
 4209      696E6700 
 4210 0026 88020000 		.4byte	0x288
 4211 002a 5553425F 		.ascii	"USB_HandleStandardRqst\000"
 4211      48616E64 
 4211      6C655374 
 4211      616E6461 
 4211      72645271 
 4212 0041 F2020000 		.4byte	0x2f2
 4213 0045 5553425F 		.ascii	"USB_ConfigReg\000"
 4213      436F6E66 
 4213      69675265 
 4213      6700
 4214 0053 28030000 		.4byte	0x328
 4215 0057 5553425F 		.ascii	"USB_Config\000"
 4215      436F6E66 
 4215      696700
 4216 0062 CD030000 		.4byte	0x3cd
 4217 0066 5553425F 		.ascii	"USB_ConfigAltChanged\000"
 4217      436F6E66 
 4217      6967416C 
 4217      74436861 
 4217      6E676564 
 4218 007b 4D040000 		.4byte	0x44d
 4219 007f 5553425F 		.ascii	"USB_GetConfigTablePtr\000"
 4219      47657443 
 4219      6F6E6669 
 4219      67546162 
 4219      6C655074 
 4220 0095 88040000 		.4byte	0x488
 4221 0099 5553425F 		.ascii	"USB_GetDeviceTablePtr\000"
 4221      47657444 
 4221      65766963 
 4221      65546162 
 4221      6C655074 
 4222 00af A2040000 		.4byte	0x4a2
 4223 00b3 5553425F 		.ascii	"USB_GetInterfaceClassTablePtr\000"
 4223      47657449 
ARM GAS  C:\Users\Craig\AppData\Local\Temp\cc9NnIsK.s 			page 96


 4223      6E746572 
 4223      66616365 
 4223      436C6173 
 4224 00d1 DF040000 		.4byte	0x4df
 4225 00d5 5553425F 		.ascii	"USB_TerminateEP\000"
 4225      5465726D 
 4225      696E6174 
 4225      65455000 
 4226 00e5 16050000 		.4byte	0x516
 4227 00e9 5553425F 		.ascii	"USB_SetEndpointHalt\000"
 4227      53657445 
 4227      6E64706F 
 4227      696E7448 
 4227      616C7400 
 4228 00fd 60050000 		.4byte	0x560
 4229 0101 5553425F 		.ascii	"USB_ClearEndpointHalt\000"
 4229      436C6561 
 4229      72456E64 
 4229      706F696E 
 4229      7448616C 
 4230 0117 AA050000 		.4byte	0x5aa
 4231 011b 5553425F 		.ascii	"USB_ValidateAlternateSetting\000"
 4231      56616C69 
 4231      64617465 
 4231      416C7465 
 4231      726E6174 
 4232 0138 0F070000 		.4byte	0x70f
 4233 013c 5553425F 		.ascii	"USB_tBuffer\000"
 4233      74427566 
 4233      66657200 
 4234 0148 26070000 		.4byte	0x726
 4235 014c 5553425F 		.ascii	"USB_fwSerialNumberStringDescriptor\000"
 4235      66775365 
 4235      7269616C 
 4235      4E756D62 
 4235      65725374 
 4236 016f 38070000 		.4byte	0x738
 4237 0173 5553425F 		.ascii	"USB_snStringConfirm\000"
 4237      736E5374 
 4237      72696E67 
 4237      436F6E66 
 4237      69726D00 
 4238 0187 00000000 		.4byte	0x0
 4239              		.section	.debug_aranges,"",%progbits
 4240 0000 74000000 		.4byte	0x74
 4241 0004 0200     		.2byte	0x2
 4242 0006 00000000 		.4byte	.Ldebug_info0
 4243 000a 04       		.byte	0x4
 4244 000b 00       		.byte	0x0
 4245 000c 0000     		.2byte	0x0
 4246 000e 0000     		.2byte	0x0
 4247 0010 00000000 		.4byte	.LFB0
 4248 0014 12000000 		.4byte	.LFE0-.LFB0
 4249 0018 00000000 		.4byte	.LFB1
 4250 001c D2050000 		.4byte	.LFE1-.LFB1
 4251 0020 00000000 		.4byte	.LFB2
 4252 0024 06020000 		.4byte	.LFE2-.LFB2
ARM GAS  C:\Users\Craig\AppData\Local\Temp\cc9NnIsK.s 			page 97


 4253 0028 00000000 		.4byte	.LFB3
 4254 002c 38040000 		.4byte	.LFE3-.LFB3
 4255 0030 00000000 		.4byte	.LFB4
 4256 0034 5E030000 		.4byte	.LFE4-.LFB4
 4257 0038 00000000 		.4byte	.LFB5
 4258 003c 2C000000 		.4byte	.LFE5-.LFB5
 4259 0040 00000000 		.4byte	.LFB6
 4260 0044 28000000 		.4byte	.LFE6-.LFB6
 4261 0048 00000000 		.4byte	.LFB7
 4262 004c 50000000 		.4byte	.LFE7-.LFB7
 4263 0050 00000000 		.4byte	.LFB8
 4264 0054 F8000000 		.4byte	.LFE8-.LFB8
 4265 0058 00000000 		.4byte	.LFB9
 4266 005c 2E010000 		.4byte	.LFE9-.LFB9
 4267 0060 00000000 		.4byte	.LFB10
 4268 0064 B8010000 		.4byte	.LFE10-.LFB10
 4269 0068 00000000 		.4byte	.LFB11
 4270 006c 94000000 		.4byte	.LFE11-.LFB11
 4271 0070 00000000 		.4byte	0x0
 4272 0074 00000000 		.4byte	0x0
 4273              		.section	.debug_ranges,"",%progbits
 4274              	.Ldebug_ranges0:
 4275 0000 00000000 		.4byte	.Ltext0
 4276 0004 00000000 		.4byte	.Letext0
 4277 0008 00000000 		.4byte	.LFB0
 4278 000c 12000000 		.4byte	.LFE0
 4279 0010 00000000 		.4byte	.LFB1
 4280 0014 D2050000 		.4byte	.LFE1
 4281 0018 00000000 		.4byte	.LFB2
 4282 001c 06020000 		.4byte	.LFE2
 4283 0020 00000000 		.4byte	.LFB3
 4284 0024 38040000 		.4byte	.LFE3
 4285 0028 00000000 		.4byte	.LFB4
 4286 002c 5E030000 		.4byte	.LFE4
 4287 0030 00000000 		.4byte	.LFB5
 4288 0034 2C000000 		.4byte	.LFE5
 4289 0038 00000000 		.4byte	.LFB6
 4290 003c 28000000 		.4byte	.LFE6
 4291 0040 00000000 		.4byte	.LFB7
 4292 0044 50000000 		.4byte	.LFE7
 4293 0048 00000000 		.4byte	.LFB8
 4294 004c F8000000 		.4byte	.LFE8
 4295 0050 00000000 		.4byte	.LFB9
 4296 0054 2E010000 		.4byte	.LFE9
 4297 0058 00000000 		.4byte	.LFB10
 4298 005c B8010000 		.4byte	.LFE10
 4299 0060 00000000 		.4byte	.LFB11
 4300 0064 94000000 		.4byte	.LFE11
 4301 0068 00000000 		.4byte	0x0
 4302 006c 00000000 		.4byte	0x0
 4303              		.section	.debug_str,"MS",%progbits,1
 4304              	.LASF37:
 4305 0000 70537461 		.ascii	"pStatusBlock\000"
 4305      74757342 
 4305      6C6F636B 
 4305      00
 4306              	.LASF48:
ARM GAS  C:\Users\Craig\AppData\Local\Temp\cc9NnIsK.s 			page 98


 4307 000d 5553425F 		.ascii	"USB_Config\000"
 4307      436F6E66 
 4307      696700
 4308              	.LASF35:
 4309 0018 636F756E 		.ascii	"count\000"
 4309      7400
 4310              	.LASF10:
 4311 001e 75696E74 		.ascii	"uint16\000"
 4311      313600
 4312              	.LASF65:
 4313 0025 5553425F 		.ascii	"USB_configuration\000"
 4313      636F6E66 
 4313      69677572 
 4313      6174696F 
 4313      6E00
 4314              	.LASF59:
 4315 0037 5553425F 		.ascii	"USB_SetEndpointHalt\000"
 4315      53657445 
 4315      6E64706F 
 4315      696E7448 
 4315      616C7400 
 4316              	.LASF24:
 4317 004b 5F555342 		.ascii	"_USB_EpCtlBlock\000"
 4317      5F457043 
 4317      746C426C 
 4317      6F636B00 
 4318              	.LASF7:
 4319 005b 6C6F6E67 		.ascii	"long long unsigned int\000"
 4319      206C6F6E 
 4319      6720756E 
 4319      7369676E 
 4319      65642069 
 4320              	.LASF18:
 4321 0072 61646472 		.ascii	"addr\000"
 4321      00
 4322              	.LASF80:
 4323 0077 474E5520 		.ascii	"GNU C 4.4.1\000"
 4323      4320342E 
 4323      342E3100 
 4324              	.LASF68:
 4325 0083 5553425F 		.ascii	"USB_interfaceSetting\000"
 4325      696E7465 
 4325      72666163 
 4325      65536574 
 4325      74696E67 
 4326              	.LASF23:
 4327 0098 545F5553 		.ascii	"T_USB_EP_CTL_BLOCK\000"
 4327      425F4550 
 4327      5F43544C 
 4327      5F424C4F 
 4327      434B00
 4328              	.LASF56:
 4329 00ab 5553425F 		.ascii	"USB_GetInterfaceClassTablePtr\000"
 4329      47657449 
 4329      6E746572 
 4329      66616365 
 4329      436C6173 
ARM GAS  C:\Users\Craig\AppData\Local\Temp\cc9NnIsK.s 			page 99


 4330              	.LASF6:
 4331 00c9 6C6F6E67 		.ascii	"long long int\000"
 4331      206C6F6E 
 4331      6720696E 
 4331      7400
 4332              	.LASF0:
 4333 00d7 7369676E 		.ascii	"signed char\000"
 4333      65642063 
 4333      68617200 
 4334              	.LASF50:
 4335 00e3 636C6561 		.ascii	"clearAltSetting\000"
 4335      72416C74 
 4335      53657474 
 4335      696E6700 
 4336              	.LASF74:
 4337 00f3 5553425F 		.ascii	"USB_TABLE\000"
 4337      5441424C 
 4337      4500
 4338              	.LASF41:
 4339 00fd 545F5553 		.ascii	"T_USB_LUT\000"
 4339      425F4C55 
 4339      5400
 4340              	.LASF4:
 4341 0107 6C6F6E67 		.ascii	"long int\000"
 4341      20696E74 
 4341      00
 4342              	.LASF9:
 4343 0110 75696E74 		.ascii	"uint8\000"
 4343      3800
 4344              	.LASF17:
 4345 0116 6570546F 		.ascii	"epToggle\000"
 4345      67676C65 
 4345      00
 4346              	.LASF12:
 4347 011f 646F7562 		.ascii	"double\000"
 4347      6C6500
 4348              	.LASF69:
 4349 0126 5553425F 		.ascii	"USB_interfaceSetting_last\000"
 4349      696E7465 
 4349      72666163 
 4349      65536574 
 4349      74696E67 
 4350              	.LASF36:
 4351 0140 70446174 		.ascii	"pData\000"
 4351      6100
 4352              	.LASF61:
 4353 0146 5553425F 		.ascii	"USB_ValidateAlternateSetting\000"
 4353      56616C69 
 4353      64617465 
 4353      416C7465 
 4353      726E6174 
 4354              	.LASF19:
 4355 0163 65704D6F 		.ascii	"epMode\000"
 4355      646500
 4356              	.LASF33:
 4357 016a 545F5553 		.ascii	"T_USB_XFER_STATUS_BLOCK\000"
 4357      425F5846 
ARM GAS  C:\Users\Craig\AppData\Local\Temp\cc9NnIsK.s 			page 100


 4357      45525F53 
 4357      54415455 
 4357      535F424C 
 4358              	.LASF8:
 4359 0182 756E7369 		.ascii	"unsigned int\000"
 4359      676E6564 
 4359      20696E74 
 4359      00
 4360              	.LASF79:
 4361 018f 5553425F 		.ascii	"USB_snStringConfirm\000"
 4361      736E5374 
 4361      72696E67 
 4361      436F6E66 
 4361      69726D00 
 4362              	.LASF5:
 4363 01a3 6C6F6E67 		.ascii	"long unsigned int\000"
 4363      20756E73 
 4363      69676E65 
 4363      6420696E 
 4363      7400
 4364              	.LASF82:
 4365 01b5 433A5C55 		.ascii	"C:\\Users\\Craig\\Dropbox\\6.115\\Final Project\\PS"
 4365      73657273 
 4365      5C437261 
 4365      69675C44 
 4365      726F7062 
 4366 01e2 6F432057 		.ascii	"oC Work\\BitBanging.cydsn\000"
 4366      6F726B5C 
 4366      42697442 
 4366      616E6769 
 4366      6E672E63 
 4367              	.LASF55:
 4368 01fb 5553425F 		.ascii	"USB_GetConfigTablePtr\000"
 4368      47657443 
 4368      6F6E6669 
 4368      67546162 
 4368      6C655074 
 4369              	.LASF22:
 4370 0211 696E7465 		.ascii	"interface\000"
 4370      72666163 
 4370      6500
 4371              	.LASF81:
 4372 021b 2E5C4765 		.ascii	".\\Generated_Source\\PSoC5\\USB_std.c\000"
 4372      6E657261 
 4372      7465645F 
 4372      536F7572 
 4372      63655C50 
 4373              	.LASF58:
 4374 023e 5553425F 		.ascii	"USB_TerminateEP\000"
 4374      5465726D 
 4374      696E6174 
 4374      65455000 
 4375              	.LASF71:
 4376 024e 5553425F 		.ascii	"USB_deviceStatus\000"
 4376      64657669 
 4376      63655374 
 4376      61747573 
ARM GAS  C:\Users\Craig\AppData\Local\Temp\cc9NnIsK.s 			page 101


 4376      00
 4377              	.LASF16:
 4378 025f 68774570 		.ascii	"hwEpState\000"
 4378      53746174 
 4378      6500
 4379              	.LASF54:
 4380 0269 5553425F 		.ascii	"USB_HandleStandardRqst\000"
 4380      48616E64 
 4380      6C655374 
 4380      616E6461 
 4380      72645271 
 4381              	.LASF76:
 4382 0280 5553425F 		.ascii	"USB_currentTD\000"
 4382      63757272 
 4382      656E7454 
 4382      4400
 4383              	.LASF38:
 4384 028e 545F5553 		.ascii	"T_USB_TD\000"
 4384      425F5444 
 4384      00
 4385              	.LASF83:
 4386 0297 5553425F 		.ascii	"USB_GetDeviceTablePtr\000"
 4386      47657444 
 4386      65766963 
 4386      65546162 
 4386      6C655074 
 4387              	.LASF40:
 4388 02ad 705F6C69 		.ascii	"p_list\000"
 4388      737400
 4389              	.LASF14:
 4390 02b4 61747472 		.ascii	"attrib\000"
 4390      696200
 4391              	.LASF64:
 4392 02bb 5553425F 		.ascii	"USB_device\000"
 4392      64657669 
 4392      636500
 4393              	.LASF47:
 4394 02c6 5553425F 		.ascii	"USB_ConfigReg\000"
 4394      436F6E66 
 4394      69675265 
 4394      6700
 4395              	.LASF57:
 4396 02d4 63757272 		.ascii	"currentInterfacesNum\000"
 4396      656E7449 
 4396      6E746572 
 4396      66616365 
 4396      734E756D 
 4397              	.LASF75:
 4398 02e9 5553425F 		.ascii	"USB_EP\000"
 4398      455000
 4399              	.LASF60:
 4400 02f0 5553425F 		.ascii	"USB_ClearEndpointHalt\000"
 4400      436C6561 
 4400      72456E64 
 4400      706F696E 
 4400      7448616C 
 4401              	.LASF78:
ARM GAS  C:\Users\Craig\AppData\Local\Temp\cc9NnIsK.s 			page 102


 4402 0306 5553425F 		.ascii	"USB_fwSerialNumberStringDescriptor\000"
 4402      66775365 
 4402      7269616C 
 4402      4E756D62 
 4402      65725374 
 4403              	.LASF11:
 4404 0329 666C6F61 		.ascii	"float\000"
 4404      7400
 4405              	.LASF73:
 4406 032f 5553425F 		.ascii	"USB_interfaceClass\000"
 4406      696E7465 
 4406      72666163 
 4406      65436C61 
 4406      737300
 4407              	.LASF15:
 4408 0342 61706945 		.ascii	"apiEpState\000"
 4408      70537461 
 4408      746500
 4409              	.LASF70:
 4410 034d 5553425F 		.ascii	"USB_deviceAddress\000"
 4410      64657669 
 4410      63654164 
 4410      64726573 
 4410      7300
 4411              	.LASF43:
 4412 035f 70537472 		.ascii	"pStr\000"
 4412      00
 4413              	.LASF1:
 4414 0364 756E7369 		.ascii	"unsigned char\000"
 4414      676E6564 
 4414      20636861 
 4414      7200
 4415              	.LASF2:
 4416 0372 73686F72 		.ascii	"short int\000"
 4416      7420696E 
 4416      7400
 4417              	.LASF29:
 4418 037c 545F5553 		.ascii	"T_USB_EP_SETTINGS_BLOCK\000"
 4418      425F4550 
 4418      5F534554 
 4418      54494E47 
 4418      535F424C 
 4419              	.LASF63:
 4420 0394 5553425F 		.ascii	"USB_STRING_DESCRIPTORS\000"
 4420      53545249 
 4420      4E475F44 
 4420      45534352 
 4420      4950544F 
 4421              	.LASF34:
 4422 03ab 5F555342 		.ascii	"_USB_Td\000"
 4422      5F546400 
 4423              	.LASF27:
 4424 03b3 61747472 		.ascii	"attributes\000"
 4424      69627574 
 4424      657300
 4425              	.LASF72:
 4426 03be 5553425F 		.ascii	"USB_interfaceStatus\000"
ARM GAS  C:\Users\Craig\AppData\Local\Temp\cc9NnIsK.s 			page 103


 4426      696E7465 
 4426      72666163 
 4426      65537461 
 4426      74757300 
 4427              	.LASF26:
 4428 03d2 616C7453 		.ascii	"altSetting\000"
 4428      65747469 
 4428      6E6700
 4429              	.LASF13:
 4430 03dd 63686172 		.ascii	"char\000"
 4430      00
 4431              	.LASF77:
 4432 03e2 5553425F 		.ascii	"USB_tBuffer\000"
 4432      74427566 
 4432      66657200 
 4433              	.LASF21:
 4434 03ee 62756666 		.ascii	"bufferSize\000"
 4434      65725369 
 4434      7A6500
 4435              	.LASF42:
 4436 03f9 72657175 		.ascii	"requestHandled\000"
 4436      65737448 
 4436      616E646C 
 4436      656400
 4437              	.LASF20:
 4438 0408 62756666 		.ascii	"buffOffset\000"
 4438      4F666673 
 4438      657400
 4439              	.LASF39:
 4440 0413 5F555342 		.ascii	"_USB_Lut\000"
 4440      5F4C7574 
 4440      00
 4441              	.LASF25:
 4442 041c 5F555342 		.ascii	"_USB_EpSettingsBlock\000"
 4442      5F457053 
 4442      65747469 
 4442      6E677342 
 4442      6C6F636B 
 4443              	.LASF52:
 4444 0431 70446573 		.ascii	"pDescr\000"
 4444      637200
 4445              	.LASF3:
 4446 0438 73686F72 		.ascii	"short unsigned int\000"
 4446      7420756E 
 4446      7369676E 
 4446      65642069 
 4446      6E7400
 4447              	.LASF32:
 4448 044b 6C656E67 		.ascii	"length\000"
 4448      746800
 4449              	.LASF44:
 4450 0452 6E537472 		.ascii	"nStr\000"
 4450      00
 4451              	.LASF51:
 4452 0457 6375725F 		.ascii	"cur_ep\000"
 4452      657000
 4453              	.LASF31:
ARM GAS  C:\Users\Craig\AppData\Local\Temp\cc9NnIsK.s 			page 104


 4454 045e 73746174 		.ascii	"status\000"
 4454      757300
 4455              	.LASF45:
 4456 0465 70546D70 		.ascii	"pTmp\000"
 4456      00
 4457              	.LASF62:
 4458 046a 696E7465 		.ascii	"interfaceNum\000"
 4458      72666163 
 4458      654E756D 
 4458      00
 4459              	.LASF28:
 4460 0477 624D6973 		.ascii	"bMisc\000"
 4460      6300
 4461              	.LASF30:
 4462 047d 5F555342 		.ascii	"_USB_XferStatusBlock\000"
 4462      5F586665 
 4462      72537461 
 4462      74757342 
 4462      6C6F636B 
 4463              	.LASF46:
 4464 0492 5553425F 		.ascii	"USB_SerialNumString\000"
 4464      53657269 
 4464      616C4E75 
 4464      6D537472 
 4464      696E6700 
 4465              	.LASF66:
 4466 04a6 5553425F 		.ascii	"USB_configurationChanged\000"
 4466      636F6E66 
 4466      69677572 
 4466      6174696F 
 4466      6E436861 
 4467              	.LASF49:
 4468 04bf 736E5374 		.ascii	"snString\000"
 4468      72696E67 
 4468      00
 4469              	.LASF67:
 4470 04c8 5553425F 		.ascii	"USB_interfaceNumber\000"
 4470      696E7465 
 4470      72666163 
 4470      654E756D 
 4470      62657200 
 4471              	.LASF53:
 4472 04dc 5553425F 		.ascii	"USB_ConfigAltChanged\000"
 4472      436F6E66 
 4472      6967416C 
 4472      74436861 
 4472      6E676564 
 4473              		.ident	"GCC: (Sourcery G++ Lite 2010q1-188) 4.4.1"
