ARM GAS  C:\Users\Craig\AppData\Local\Temp\cc9NnIsK.s 			page 1


   1              		.syntax unified
   2              		.cpu cortex-m3
   3              		.fpu softvfp
   4              		.eabi_attribute 20, 1
   5              		.eabi_attribute 21, 1
   6              		.eabi_attribute 23, 3
   7              		.eabi_attribute 24, 1
   8              		.eabi_attribute 25, 1
   9              		.eabi_attribute 26, 1
  10              		.eabi_attribute 30, 6
  11              		.eabi_attribute 18, 4
  12              		.thumb
  13              		.file	"USB_std.c"
  20 0000 AE020000 		.text
  20      02006900 
  20      00000201 
  20      FB0E0D00 
  20      01010101 
  21              	.Ltext0:
  22              		.cfi_sections	.debug_frame
  23              		.comm	USB_tBuffer,2,4
  24              		.comm	USB_fwSerialNumberStringDescriptor,4,4
  25              		.global	USB_snStringConfirm
  26              		.bss
  27              		.type	USB_snStringConfirm, %object
  28              		.size	USB_snStringConfirm, 1
  29              	USB_snStringConfirm:
  30 0000 00       		.space	1
  31              		.section	.text.USB_SerialNumString,"ax",%progbits
  32              		.align	2
  33              		.global	USB_SerialNumString
  34              		.thumb
  35              		.thumb_func
  36              		.type	USB_SerialNumString, %function
  37              	USB_SerialNumString:
  38              	.LFB0:
  39              		.file 1 ".\\Generated_Source\\PSoC5\\USB_std.c"
   1:.\Generated_Source\PSoC5/USB_std.c **** /*******************************************************************************
   2:.\Generated_Source\PSoC5/USB_std.c **** * File Name: USB_std.c
   3:.\Generated_Source\PSoC5/USB_std.c **** * Version 2.50
   4:.\Generated_Source\PSoC5/USB_std.c **** *
   5:.\Generated_Source\PSoC5/USB_std.c **** * Description:
   6:.\Generated_Source\PSoC5/USB_std.c **** *  USB Standard request handler.
   7:.\Generated_Source\PSoC5/USB_std.c **** *
   8:.\Generated_Source\PSoC5/USB_std.c **** * Note:
   9:.\Generated_Source\PSoC5/USB_std.c **** *
  10:.\Generated_Source\PSoC5/USB_std.c **** ********************************************************************************
  11:.\Generated_Source\PSoC5/USB_std.c **** * Copyright 2008-2012, Cypress Semiconductor Corporation.  All rights reserved.
  12:.\Generated_Source\PSoC5/USB_std.c **** * You may use this file only in accordance with the license, terms, conditions,
  13:.\Generated_Source\PSoC5/USB_std.c **** * disclaimers, and limitations in the end user license agreement accompanying
  14:.\Generated_Source\PSoC5/USB_std.c **** * the software package with which this file was provided.
ARM GAS  C:\Users\Craig\AppData\Local\Temp\cc9NnIsK.s 			page 2


  15:.\Generated_Source\PSoC5/USB_std.c **** *******************************************************************************/
  16:.\Generated_Source\PSoC5/USB_std.c **** 
  17:.\Generated_Source\PSoC5/USB_std.c **** #include "USB.h"
  18:.\Generated_Source\PSoC5/USB_std.c **** 
  19:.\Generated_Source\PSoC5/USB_std.c **** 
  20:.\Generated_Source\PSoC5/USB_std.c **** /***************************************
  21:.\Generated_Source\PSoC5/USB_std.c **** * External references
  22:.\Generated_Source\PSoC5/USB_std.c **** ***************************************/
  23:.\Generated_Source\PSoC5/USB_std.c **** 
  24:.\Generated_Source\PSoC5/USB_std.c **** extern const uint8 CYCODE USB_DEVICE0_DESCR[];
  25:.\Generated_Source\PSoC5/USB_std.c **** extern const uint8 CYCODE USB_DEVICE0_CONFIGURATION0_DESCR[];
  26:.\Generated_Source\PSoC5/USB_std.c **** extern const uint8 CYCODE USB_STRING_DESCRIPTORS[];
  27:.\Generated_Source\PSoC5/USB_std.c **** extern const uint8 CYCODE USB_MSOS_DESCRIPTOR[];
  28:.\Generated_Source\PSoC5/USB_std.c **** extern const uint8 CYCODE USB_SN_STRING_DESCRIPTOR[];
  29:.\Generated_Source\PSoC5/USB_std.c **** 
  30:.\Generated_Source\PSoC5/USB_std.c **** extern volatile uint8 USB_device;
  31:.\Generated_Source\PSoC5/USB_std.c **** extern volatile uint8 USB_configuration;
  32:.\Generated_Source\PSoC5/USB_std.c **** extern volatile uint8 USB_configurationChanged;
  33:.\Generated_Source\PSoC5/USB_std.c **** extern volatile uint8 USB_interfaceNumber;
  34:.\Generated_Source\PSoC5/USB_std.c **** extern volatile uint8 USB_interfaceSetting[];
  35:.\Generated_Source\PSoC5/USB_std.c **** extern volatile uint8 USB_interfaceSetting_last[];
  36:.\Generated_Source\PSoC5/USB_std.c **** extern volatile uint8 USB_deviceAddress;
  37:.\Generated_Source\PSoC5/USB_std.c **** extern volatile uint8 USB_deviceStatus;
  38:.\Generated_Source\PSoC5/USB_std.c **** extern volatile uint8 USB_interfaceStatus[];
  39:.\Generated_Source\PSoC5/USB_std.c **** extern uint8 CYCODE *USB_interfaceClass;
  40:.\Generated_Source\PSoC5/USB_std.c **** extern const T_USB_LUT CYCODE USB_TABLE[];
  41:.\Generated_Source\PSoC5/USB_std.c **** extern volatile T_USB_EP_CTL_BLOCK USB_EP[];
  42:.\Generated_Source\PSoC5/USB_std.c **** extern volatile T_USB_TD USB_currentTD;
  43:.\Generated_Source\PSoC5/USB_std.c **** #if defined(USB_ENABLE_CDC_CLASS)
  44:.\Generated_Source\PSoC5/USB_std.c ****     extern volatile uint8 USB_cdc_data_in_ep;
  45:.\Generated_Source\PSoC5/USB_std.c ****     extern volatile uint8 USB_cdc_data_out_ep;
  46:.\Generated_Source\PSoC5/USB_std.c **** #endif  /* End USB_ENABLE_CDC_CLASS*/
  47:.\Generated_Source\PSoC5/USB_std.c **** #if defined(USB_ENABLE_MIDI_STREAMING)
  48:.\Generated_Source\PSoC5/USB_std.c ****     extern volatile uint8 USB_midi_in_ep;
  49:.\Generated_Source\PSoC5/USB_std.c ****     extern volatile uint8 USB_midi_out_ep;
  50:.\Generated_Source\PSoC5/USB_std.c **** #endif /* End USB_ENABLE_MIDI_STREAMING */
  51:.\Generated_Source\PSoC5/USB_std.c **** 
  52:.\Generated_Source\PSoC5/USB_std.c **** 
  53:.\Generated_Source\PSoC5/USB_std.c **** /***************************************
  54:.\Generated_Source\PSoC5/USB_std.c **** *         Forward references
  55:.\Generated_Source\PSoC5/USB_std.c **** ***************************************/
  56:.\Generated_Source\PSoC5/USB_std.c **** 
  57:.\Generated_Source\PSoC5/USB_std.c **** uint8 USB_InitControlRead(void) ;
  58:.\Generated_Source\PSoC5/USB_std.c **** uint8 USB_InitControlWrite(void) ;
  59:.\Generated_Source\PSoC5/USB_std.c **** uint8 USB_InitNoDataControlTransfer(void) ;
  60:.\Generated_Source\PSoC5/USB_std.c **** uint8 USB_DispatchClassRqst(void) ;
  61:.\Generated_Source\PSoC5/USB_std.c **** 
  62:.\Generated_Source\PSoC5/USB_std.c **** void USB_Config(uint8 clearAltSetting) ;
  63:.\Generated_Source\PSoC5/USB_std.c **** void USB_ConfigAltChanged(void) ;
  64:.\Generated_Source\PSoC5/USB_std.c **** T_USB_LUT *USB_GetConfigTablePtr(uint8 c)
  65:.\Generated_Source\PSoC5/USB_std.c ****                                                             ;
  66:.\Generated_Source\PSoC5/USB_std.c **** T_USB_LUT *USB_GetDeviceTablePtr(void)
  67:.\Generated_Source\PSoC5/USB_std.c ****                                                             ;
  68:.\Generated_Source\PSoC5/USB_std.c **** uint8 USB_ClearEndpointHalt(void) ;
  69:.\Generated_Source\PSoC5/USB_std.c **** uint8 USB_SetEndpointHalt(void) ;
  70:.\Generated_Source\PSoC5/USB_std.c **** uint8 USB_ValidateAlternateSetting(void) ;
  71:.\Generated_Source\PSoC5/USB_std.c **** 
ARM GAS  C:\Users\Craig\AppData\Local\Temp\cc9NnIsK.s 			page 3


  72:.\Generated_Source\PSoC5/USB_std.c **** /*DIE ID string descriptor for 8 bytes ID*/
  73:.\Generated_Source\PSoC5/USB_std.c **** #if defined(USB_ENABLE_IDSN_STRING)
  74:.\Generated_Source\PSoC5/USB_std.c ****     void USB_ReadDieID(uint8 *descr) ;
  75:.\Generated_Source\PSoC5/USB_std.c ****     uint8 USB_idSerialNumberStringDescriptor[0x22u]={0x22u, USB_DESCR_STRING};
  76:.\Generated_Source\PSoC5/USB_std.c **** #endif /* USB_ENABLE_IDSN_STRING */
  77:.\Generated_Source\PSoC5/USB_std.c **** 
  78:.\Generated_Source\PSoC5/USB_std.c **** #if(USB_EP_MM != USB__EP_MANUAL)
  79:.\Generated_Source\PSoC5/USB_std.c ****     void USB_Stop_DMA(uint8 epNumber) ;
  80:.\Generated_Source\PSoC5/USB_std.c **** #endif   /* End USB_EP_MM != USB__EP_MANUAL */
  81:.\Generated_Source\PSoC5/USB_std.c **** uint8 CYCODE *USB_GetInterfaceClassTablePtr(void)
  82:.\Generated_Source\PSoC5/USB_std.c ****                                                     ;
  83:.\Generated_Source\PSoC5/USB_std.c **** 
  84:.\Generated_Source\PSoC5/USB_std.c **** 
  85:.\Generated_Source\PSoC5/USB_std.c **** /***************************************
  86:.\Generated_Source\PSoC5/USB_std.c **** * Global data allocation
  87:.\Generated_Source\PSoC5/USB_std.c **** ***************************************/
  88:.\Generated_Source\PSoC5/USB_std.c **** 
  89:.\Generated_Source\PSoC5/USB_std.c **** volatile uint8 USB_tBuffer[USB_EP_STATUS_LENGTH > USB_DEVICE_STATUS_LENGTH ? \
  90:.\Generated_Source\PSoC5/USB_std.c ****                                USB_EP_STATUS_LENGTH : USB_DEVICE_STATUS_LENGTH];
  91:.\Generated_Source\PSoC5/USB_std.c **** volatile uint8 *USB_fwSerialNumberStringDescriptor;
  92:.\Generated_Source\PSoC5/USB_std.c **** volatile uint8 USB_snStringConfirm = USB_FALSE;
  93:.\Generated_Source\PSoC5/USB_std.c **** 
  94:.\Generated_Source\PSoC5/USB_std.c **** 
  95:.\Generated_Source\PSoC5/USB_std.c **** /*******************************************************************************
  96:.\Generated_Source\PSoC5/USB_std.c **** * Function Name: USB_SerialNumString
  97:.\Generated_Source\PSoC5/USB_std.c **** ********************************************************************************
  98:.\Generated_Source\PSoC5/USB_std.c **** *
  99:.\Generated_Source\PSoC5/USB_std.c **** * Summary:
 100:.\Generated_Source\PSoC5/USB_std.c **** *  Application firmware may supply the source of the USB device descriptors
 101:.\Generated_Source\PSoC5/USB_std.c **** *  serial number string during runtime.
 102:.\Generated_Source\PSoC5/USB_std.c **** *
 103:.\Generated_Source\PSoC5/USB_std.c **** * Parameters:
 104:.\Generated_Source\PSoC5/USB_std.c **** *  snString:  pointer to string.
 105:.\Generated_Source\PSoC5/USB_std.c **** *
 106:.\Generated_Source\PSoC5/USB_std.c **** * Return:
 107:.\Generated_Source\PSoC5/USB_std.c **** *  None.
 108:.\Generated_Source\PSoC5/USB_std.c **** *
 109:.\Generated_Source\PSoC5/USB_std.c **** * Reentrant:
 110:.\Generated_Source\PSoC5/USB_std.c **** *  No.
 111:.\Generated_Source\PSoC5/USB_std.c **** *
 112:.\Generated_Source\PSoC5/USB_std.c **** *******************************************************************************/
 113:.\Generated_Source\PSoC5/USB_std.c **** void  USB_SerialNumString(uint8 *snString) 
 114:.\Generated_Source\PSoC5/USB_std.c **** {
  40              		.loc 1 114 0
  41              		.cfi_startproc
  42              		@ args = 0, pretend = 0, frame = 8
  43              		@ frame_needed = 1, uses_anonymous_args = 0
  44              		@ link register save eliminated.
  45 0000 80B4     		push	{r7}
  46              	.LCFI0:
  47              		.cfi_def_cfa_offset 4
  48 0002 83B0     		sub	sp, sp, #12
  49              	.LCFI1:
  50              		.cfi_def_cfa_offset 16
  51 0004 00AF     		add	r7, sp, #0
  52              		.cfi_offset 7, -4
  53              	.LCFI2:
ARM GAS  C:\Users\Craig\AppData\Local\Temp\cc9NnIsK.s 			page 4


  54              		.cfi_def_cfa_register 7
  55 0006 7860     		str	r0, [r7, #4]
 115:.\Generated_Source\PSoC5/USB_std.c ****     #if defined(USB_ENABLE_FWSN_STRING)
 116:.\Generated_Source\PSoC5/USB_std.c ****         USB_snStringConfirm = USB_FALSE;
 117:.\Generated_Source\PSoC5/USB_std.c ****         if(snString != NULL)
 118:.\Generated_Source\PSoC5/USB_std.c ****         {
 119:.\Generated_Source\PSoC5/USB_std.c ****             USB_fwSerialNumberStringDescriptor = snString;
 120:.\Generated_Source\PSoC5/USB_std.c ****             /* check descriptor validation */
 121:.\Generated_Source\PSoC5/USB_std.c ****             if( (USB_fwSerialNumberStringDescriptor[0u] > 1u ) &&  \
 122:.\Generated_Source\PSoC5/USB_std.c ****                 (USB_fwSerialNumberStringDescriptor[1u] == USB_DESCR_STRING) )
 123:.\Generated_Source\PSoC5/USB_std.c ****             {
 124:.\Generated_Source\PSoC5/USB_std.c ****                 USB_snStringConfirm = USB_TRUE;
 125:.\Generated_Source\PSoC5/USB_std.c ****             }
 126:.\Generated_Source\PSoC5/USB_std.c ****         }
 127:.\Generated_Source\PSoC5/USB_std.c ****     #else
 128:.\Generated_Source\PSoC5/USB_std.c ****         snString = snString;
 129:.\Generated_Source\PSoC5/USB_std.c ****     #endif  /* USB_ENABLE_FWSN_STRING */
 130:.\Generated_Source\PSoC5/USB_std.c **** }
  56              		.loc 1 130 0
  57 0008 07F10C07 		add	r7, r7, #12
  58 000c BD46     		mov	sp, r7
  59 000e 80BC     		pop	{r7}
  60 0010 7047     		bx	lr
  61              		.cfi_endproc
  62              	.LFE0:
  63              		.size	USB_SerialNumString, .-USB_SerialNumString
  64 0012 00BF     		.section	.text.USB_HandleStandardRqst,"ax",%progbits
  65              		.align	2
  66              		.global	USB_HandleStandardRqst
  67              		.thumb
  68              		.thumb_func
  69              		.type	USB_HandleStandardRqst, %function
  70              	USB_HandleStandardRqst:
  71              	.LFB1:
 131:.\Generated_Source\PSoC5/USB_std.c **** 
 132:.\Generated_Source\PSoC5/USB_std.c **** 
 133:.\Generated_Source\PSoC5/USB_std.c **** /*******************************************************************************
 134:.\Generated_Source\PSoC5/USB_std.c **** * Function Name: USB_HandleStandardRqst
 135:.\Generated_Source\PSoC5/USB_std.c **** ********************************************************************************
 136:.\Generated_Source\PSoC5/USB_std.c **** *
 137:.\Generated_Source\PSoC5/USB_std.c **** * Summary:
 138:.\Generated_Source\PSoC5/USB_std.c **** *  This Routine dispatches standard requests
 139:.\Generated_Source\PSoC5/USB_std.c **** *
 140:.\Generated_Source\PSoC5/USB_std.c **** * Parameters:
 141:.\Generated_Source\PSoC5/USB_std.c **** *  None.
 142:.\Generated_Source\PSoC5/USB_std.c **** *
 143:.\Generated_Source\PSoC5/USB_std.c **** * Return:
 144:.\Generated_Source\PSoC5/USB_std.c **** *  TRUE if request handled.
 145:.\Generated_Source\PSoC5/USB_std.c **** *
 146:.\Generated_Source\PSoC5/USB_std.c **** * Reentrant:
 147:.\Generated_Source\PSoC5/USB_std.c **** *  No.
 148:.\Generated_Source\PSoC5/USB_std.c **** *
 149:.\Generated_Source\PSoC5/USB_std.c **** *******************************************************************************/
 150:.\Generated_Source\PSoC5/USB_std.c **** uint8 USB_HandleStandardRqst(void) 
 151:.\Generated_Source\PSoC5/USB_std.c **** {
  72              		.loc 1 151 0
  73              		.cfi_startproc
ARM GAS  C:\Users\Craig\AppData\Local\Temp\cc9NnIsK.s 			page 5


  74              		@ args = 0, pretend = 0, frame = 16
  75              		@ frame_needed = 1, uses_anonymous_args = 0
  76 0000 80B5     		push	{r7, lr}
  77              	.LCFI3:
  78              		.cfi_def_cfa_offset 8
  79 0002 84B0     		sub	sp, sp, #16
  80              	.LCFI4:
  81              		.cfi_def_cfa_offset 24
  82 0004 00AF     		add	r7, sp, #0
  83              		.cfi_offset 14, -4
  84              		.cfi_offset 7, -8
  85              	.LCFI5:
  86              		.cfi_def_cfa_register 7
 152:.\Generated_Source\PSoC5/USB_std.c ****     uint8 requestHandled = USB_FALSE;
  87              		.loc 1 152 0
  88 0006 4FF00003 		mov	r3, #0
  89 000a FB70     		strb	r3, [r7, #3]
 153:.\Generated_Source\PSoC5/USB_std.c ****     #if defined(USB_ENABLE_STRINGS)
 154:.\Generated_Source\PSoC5/USB_std.c ****         volatile uint8 *pStr = 0u;
  90              		.loc 1 154 0
  91 000c 4FF00003 		mov	r3, #0
  92 0010 7B60     		str	r3, [r7, #4]
 155:.\Generated_Source\PSoC5/USB_std.c ****         #if defined(USB_ENABLE_DESCRIPTOR_STRINGS)
 156:.\Generated_Source\PSoC5/USB_std.c ****             uint8 nStr;
 157:.\Generated_Source\PSoC5/USB_std.c ****         #endif /* USB_ENABLE_DESCRIPTOR_STRINGS */
 158:.\Generated_Source\PSoC5/USB_std.c ****     #endif /* USB_ENABLE_STRINGS */
 159:.\Generated_Source\PSoC5/USB_std.c ****     uint16 count;
 160:.\Generated_Source\PSoC5/USB_std.c **** 
 161:.\Generated_Source\PSoC5/USB_std.c ****     T_USB_LUT *pTmp;
 162:.\Generated_Source\PSoC5/USB_std.c ****     USB_currentTD.count = 0u;
  93              		.loc 1 162 0
  94 0012 40F20003 		movw	r3, #:lower16:USB_currentTD
  95 0016 C0F20003 		movt	r3, #:upper16:USB_currentTD
  96 001a 4FF00002 		mov	r2, #0
  97 001e 1A80     		strh	r2, [r3, #0]	@ movhi
 163:.\Generated_Source\PSoC5/USB_std.c **** 
 164:.\Generated_Source\PSoC5/USB_std.c ****     if ((CY_GET_REG8(USB_bmRequestType) & USB_RQST_DIR_MASK) == USB_RQST_DIR_D2H)
  98              		.loc 1 164 0
  99 0020 46F20003 		movw	r3, #:lower16:1073766400
 100 0024 C4F20003 		movt	r3, #:upper16:1073766400
 101 0028 1B78     		ldrb	r3, [r3, #0]
 102 002a DBB2     		uxtb	r3, r3
 103 002c 5BB2     		sxtb	r3, r3
 104 002e 002B     		cmp	r3, #0
 105 0030 80F26781 		bge	.L4
 165:.\Generated_Source\PSoC5/USB_std.c ****     {
 166:.\Generated_Source\PSoC5/USB_std.c ****         /* Control Read */
 167:.\Generated_Source\PSoC5/USB_std.c ****         switch (CY_GET_REG8(USB_bRequest))
 106              		.loc 1 167 0
 107 0034 46F20103 		movw	r3, #:lower16:1073766401
 108 0038 C4F20003 		movt	r3, #:upper16:1073766401
 109 003c 1B78     		ldrb	r3, [r3, #0]
 110 003e DBB2     		uxtb	r3, r3
 111 0040 0A2B     		cmp	r3, #10
 112 0042 00F2B182 		bhi	.L42
 113 0046 01A2     		adr	r2, .L10
 114 0048 52F823F0 		ldr	pc, [r2, r3, lsl #2]
ARM GAS  C:\Users\Craig\AppData\Local\Temp\cc9NnIsK.s 			page 6


 115              		.align	2
 116              	.L10:
 117 004c C7010000 		.word	.L6+1
 118 0050 A9050000 		.word	.L42+1
 119 0054 A9050000 		.word	.L42+1
 120 0058 A9050000 		.word	.L42+1
 121 005c A9050000 		.word	.L42+1
 122 0060 A9050000 		.word	.L42+1
 123 0064 79000000 		.word	.L7+1
 124 0068 A9050000 		.word	.L42+1
 125 006c 9D020000 		.word	.L8+1
 126 0070 A9050000 		.word	.L42+1
 127 0074 C9020000 		.word	.L9+1
 128              	.L7:
 168:.\Generated_Source\PSoC5/USB_std.c ****         {
 169:.\Generated_Source\PSoC5/USB_std.c ****             case USB_GET_DESCRIPTOR:
 170:.\Generated_Source\PSoC5/USB_std.c ****                 if (CY_GET_REG8(USB_wValueHi) == USB_DESCR_DEVICE)
 129              		.loc 1 170 0
 130 0078 46F20303 		movw	r3, #:lower16:1073766403
 131 007c C4F20003 		movt	r3, #:upper16:1073766403
 132 0080 1B78     		ldrb	r3, [r3, #0]
 133 0082 DBB2     		uxtb	r3, r3
 134 0084 012B     		cmp	r3, #1
 135 0086 17D1     		bne	.L11
 171:.\Generated_Source\PSoC5/USB_std.c ****                 {
 172:.\Generated_Source\PSoC5/USB_std.c ****                     pTmp = USB_GetDeviceTablePtr();
 136              		.loc 1 172 0
 137 0088 FFF7FEFF 		bl	USB_GetDeviceTablePtr
 138 008c 0346     		mov	r3, r0
 139 008e FB60     		str	r3, [r7, #12]
 173:.\Generated_Source\PSoC5/USB_std.c ****                     USB_currentTD.pData = pTmp->p_list;
 140              		.loc 1 173 0
 141 0090 FB68     		ldr	r3, [r7, #12]
 142 0092 5B68     		ldr	r3, [r3, #4]
 143 0094 1A46     		mov	r2, r3
 144 0096 40F20003 		movw	r3, #:lower16:USB_currentTD
 145 009a C0F20003 		movt	r3, #:upper16:USB_currentTD
 146 009e 5A60     		str	r2, [r3, #4]
 174:.\Generated_Source\PSoC5/USB_std.c ****                     USB_currentTD.count = USB_DEVICE_DESCR_LENGTH;
 147              		.loc 1 174 0
 148 00a0 40F20003 		movw	r3, #:lower16:USB_currentTD
 149 00a4 C0F20003 		movt	r3, #:upper16:USB_currentTD
 150 00a8 4FF01202 		mov	r2, #18
 151 00ac 1A80     		strh	r2, [r3, #0]	@ movhi
 175:.\Generated_Source\PSoC5/USB_std.c ****                     requestHandled  = USB_InitControlRead();
 152              		.loc 1 175 0
 153 00ae FFF7FEFF 		bl	USB_InitControlRead
 154 00b2 0346     		mov	r3, r0
 155 00b4 FB70     		strb	r3, [r7, #3]
 176:.\Generated_Source\PSoC5/USB_std.c ****                 }
 177:.\Generated_Source\PSoC5/USB_std.c ****                 else if (CY_GET_REG8(USB_wValueHi) == USB_DESCR_CONFIG)
 178:.\Generated_Source\PSoC5/USB_std.c ****                 {
 179:.\Generated_Source\PSoC5/USB_std.c ****                     pTmp = USB_GetConfigTablePtr(CY_GET_REG8(USB_wValueLo));
 180:.\Generated_Source\PSoC5/USB_std.c ****                     USB_currentTD.pData = pTmp->p_list;
 181:.\Generated_Source\PSoC5/USB_std.c ****                     count = ((uint16)(USB_currentTD.pData)[ \
 182:.\Generated_Source\PSoC5/USB_std.c ****                                       USB_CONFIG_DESCR_TOTAL_LENGTH_HI] << 8u) | \
 183:.\Generated_Source\PSoC5/USB_std.c ****                                      (USB_currentTD.pData)[USB_CONFIG_DESCR_TOTAL_LENGTH_LOW];
ARM GAS  C:\Users\Craig\AppData\Local\Temp\cc9NnIsK.s 			page 7


 184:.\Generated_Source\PSoC5/USB_std.c ****                     USB_currentTD.count = count;
 185:.\Generated_Source\PSoC5/USB_std.c ****                     requestHandled  = USB_InitControlRead();
 186:.\Generated_Source\PSoC5/USB_std.c ****                 }
 187:.\Generated_Source\PSoC5/USB_std.c ****                 #if defined(USB_ENABLE_STRINGS)
 188:.\Generated_Source\PSoC5/USB_std.c ****                 else if (CY_GET_REG8(USB_wValueHi) == USB_DESCR_STRING)
 189:.\Generated_Source\PSoC5/USB_std.c ****                 {
 190:.\Generated_Source\PSoC5/USB_std.c ****                     /* Descriptor Strings*/
 191:.\Generated_Source\PSoC5/USB_std.c ****                     #if defined(USB_ENABLE_DESCRIPTOR_STRINGS)
 192:.\Generated_Source\PSoC5/USB_std.c ****                         nStr = 0u;
 193:.\Generated_Source\PSoC5/USB_std.c ****                         pStr = (volatile uint8 *)&USB_STRING_DESCRIPTORS[0u];
 194:.\Generated_Source\PSoC5/USB_std.c ****                         while ( (CY_GET_REG8(USB_wValueLo) > nStr) && (*pStr != 0u ))
 195:.\Generated_Source\PSoC5/USB_std.c ****                         {
 196:.\Generated_Source\PSoC5/USB_std.c ****                             pStr += *pStr;
 197:.\Generated_Source\PSoC5/USB_std.c ****                             nStr++;
 198:.\Generated_Source\PSoC5/USB_std.c ****                         };
 199:.\Generated_Source\PSoC5/USB_std.c ****                     #endif /* End USB_ENABLE_DESCRIPTOR_STRINGS */
 200:.\Generated_Source\PSoC5/USB_std.c ****                     /* Microsoft OS String*/
 201:.\Generated_Source\PSoC5/USB_std.c ****                     #if defined(USB_ENABLE_MSOS_STRING)
 202:.\Generated_Source\PSoC5/USB_std.c ****                         if( CY_GET_REG8(USB_wValueLo) == USB_STRING_MSOS )
 203:.\Generated_Source\PSoC5/USB_std.c ****                         {
 204:.\Generated_Source\PSoC5/USB_std.c ****                             pStr = (volatile uint8 *)&USB_MSOS_DESCRIPTOR[0u];
 205:.\Generated_Source\PSoC5/USB_std.c ****                         }
 206:.\Generated_Source\PSoC5/USB_std.c ****                     #endif /* End USB_ENABLE_MSOS_STRING*/
 207:.\Generated_Source\PSoC5/USB_std.c ****                     /* SN string*/
 208:.\Generated_Source\PSoC5/USB_std.c ****                     #if defined(USB_ENABLE_SN_STRING)
 209:.\Generated_Source\PSoC5/USB_std.c ****                         if( (CY_GET_REG8(USB_wValueLo) != 0) && 
 210:.\Generated_Source\PSoC5/USB_std.c ****                             (CY_GET_REG8(USB_wValueLo) == 
 211:.\Generated_Source\PSoC5/USB_std.c ****                             USB_DEVICE0_DESCR[USB_DEVICE_DESCR_SN_SHIFT]) )
 212:.\Generated_Source\PSoC5/USB_std.c ****                         {
 213:.\Generated_Source\PSoC5/USB_std.c ****                             pStr = (volatile uint8 *)&USB_SN_STRING_DESCRIPTOR[0u];
 214:.\Generated_Source\PSoC5/USB_std.c ****                             if(USB_snStringConfirm != USB_FALSE)
 215:.\Generated_Source\PSoC5/USB_std.c ****                             {
 216:.\Generated_Source\PSoC5/USB_std.c ****                                 pStr = USB_fwSerialNumberStringDescriptor;
 217:.\Generated_Source\PSoC5/USB_std.c ****                             }
 218:.\Generated_Source\PSoC5/USB_std.c ****                             #if defined(USB_ENABLE_IDSN_STRING)
 219:.\Generated_Source\PSoC5/USB_std.c ****                                 /* Read DIE ID and genarete string descriptor in RAM*/
 220:.\Generated_Source\PSoC5/USB_std.c ****                                 USB_ReadDieID(USB_idSerialNumberStringDescriptor);
 221:.\Generated_Source\PSoC5/USB_std.c ****                                 pStr = USB_idSerialNumberStringDescriptor;
 222:.\Generated_Source\PSoC5/USB_std.c ****                             #endif    /* End USB_ENABLE_IDSN_STRING */
 223:.\Generated_Source\PSoC5/USB_std.c ****                         }
 224:.\Generated_Source\PSoC5/USB_std.c ****                     #endif    /* End USB_ENABLE_SN_STRING */
 225:.\Generated_Source\PSoC5/USB_std.c ****                     if (*pStr != 0u)
 226:.\Generated_Source\PSoC5/USB_std.c ****                     {
 227:.\Generated_Source\PSoC5/USB_std.c ****                         USB_currentTD.count = *pStr;
 228:.\Generated_Source\PSoC5/USB_std.c ****                         USB_currentTD.pData = pStr;
 229:.\Generated_Source\PSoC5/USB_std.c ****                         requestHandled  = USB_InitControlRead();
 230:.\Generated_Source\PSoC5/USB_std.c ****                     }
 231:.\Generated_Source\PSoC5/USB_std.c ****                 }
 232:.\Generated_Source\PSoC5/USB_std.c ****                 #endif /* End USB_ENABLE_STRINGS */
 233:.\Generated_Source\PSoC5/USB_std.c ****                 else
 234:.\Generated_Source\PSoC5/USB_std.c ****                 {
 235:.\Generated_Source\PSoC5/USB_std.c ****                     requestHandled = USB_DispatchClassRqst();
 236:.\Generated_Source\PSoC5/USB_std.c ****                 }
 237:.\Generated_Source\PSoC5/USB_std.c ****                 break;
 156              		.loc 1 237 0
 157 00b6 86E2     		b	.L22
 158              	.L11:
ARM GAS  C:\Users\Craig\AppData\Local\Temp\cc9NnIsK.s 			page 8


 159              		.loc 1 177 0
 160 00b8 46F20303 		movw	r3, #:lower16:1073766403
 161 00bc C4F20003 		movt	r3, #:upper16:1073766403
 162 00c0 1B78     		ldrb	r3, [r3, #0]
 163 00c2 DBB2     		uxtb	r3, r3
 164 00c4 022B     		cmp	r3, #2
 165 00c6 36D1     		bne	.L13
 166              		.loc 1 179 0
 167 00c8 46F20203 		movw	r3, #:lower16:1073766402
 168 00cc C4F20003 		movt	r3, #:upper16:1073766402
 169 00d0 1B78     		ldrb	r3, [r3, #0]
 170 00d2 DBB2     		uxtb	r3, r3
 171 00d4 1846     		mov	r0, r3
 172 00d6 FFF7FEFF 		bl	USB_GetConfigTablePtr
 173 00da 0346     		mov	r3, r0
 174 00dc FB60     		str	r3, [r7, #12]
 175              		.loc 1 180 0
 176 00de FB68     		ldr	r3, [r7, #12]
 177 00e0 5B68     		ldr	r3, [r3, #4]
 178 00e2 1A46     		mov	r2, r3
 179 00e4 40F20003 		movw	r3, #:lower16:USB_currentTD
 180 00e8 C0F20003 		movt	r3, #:upper16:USB_currentTD
 181 00ec 5A60     		str	r2, [r3, #4]
 182              		.loc 1 181 0
 183 00ee 40F20003 		movw	r3, #:lower16:USB_currentTD
 184 00f2 C0F20003 		movt	r3, #:upper16:USB_currentTD
 185 00f6 5B68     		ldr	r3, [r3, #4]
 186 00f8 03F10303 		add	r3, r3, #3
 187 00fc 1B78     		ldrb	r3, [r3, #0]
 188 00fe DBB2     		uxtb	r3, r3
 189 0100 4FEA0323 		lsl	r3, r3, #8
 190 0104 9AB2     		uxth	r2, r3
 191              		.loc 1 183 0
 192 0106 40F20003 		movw	r3, #:lower16:USB_currentTD
 193 010a C0F20003 		movt	r3, #:upper16:USB_currentTD
 194 010e 5B68     		ldr	r3, [r3, #4]
 195 0110 03F10203 		add	r3, r3, #2
 196 0114 1B78     		ldrb	r3, [r3, #0]
 197 0116 DBB2     		uxtb	r3, r3
 198              		.loc 1 181 0
 199 0118 42EA0303 		orr	r3, r2, r3
 200 011c 9BB2     		uxth	r3, r3
 201 011e 7B81     		strh	r3, [r7, #10]	@ movhi
 202              		.loc 1 184 0
 203 0120 40F20003 		movw	r3, #:lower16:USB_currentTD
 204 0124 C0F20003 		movt	r3, #:upper16:USB_currentTD
 205 0128 7A89     		ldrh	r2, [r7, #10]	@ movhi
 206 012a 1A80     		strh	r2, [r3, #0]	@ movhi
 207              		.loc 1 185 0
 208 012c FFF7FEFF 		bl	USB_InitControlRead
 209 0130 0346     		mov	r3, r0
 210 0132 FB70     		strb	r3, [r7, #3]
 211              		.loc 1 237 0
 212 0134 47E2     		b	.L22
 213              	.L13:
 214              		.loc 1 188 0
 215 0136 46F20303 		movw	r3, #:lower16:1073766403
ARM GAS  C:\Users\Craig\AppData\Local\Temp\cc9NnIsK.s 			page 9


 216 013a C4F20003 		movt	r3, #:upper16:1073766403
 217 013e 1B78     		ldrb	r3, [r3, #0]
 218 0140 DBB2     		uxtb	r3, r3
 219 0142 032B     		cmp	r3, #3
 220 0144 3AD1     		bne	.L14
 221              		.loc 1 192 0
 222 0146 4FF00003 		mov	r3, #0
 223 014a 7B72     		strb	r3, [r7, #9]
 224              		.loc 1 193 0
 225 014c 40F20003 		movw	r3, #:lower16:USB_STRING_DESCRIPTORS
 226 0150 C0F20003 		movt	r3, #:upper16:USB_STRING_DESCRIPTORS
 227 0154 7B60     		str	r3, [r7, #4]
 228              		.loc 1 194 0
 229 0156 09E0     		b	.L15
 230              	.L17:
 231              		.loc 1 196 0
 232 0158 7B68     		ldr	r3, [r7, #4]
 233 015a 1B78     		ldrb	r3, [r3, #0]
 234 015c DBB2     		uxtb	r3, r3
 235 015e 7A68     		ldr	r2, [r7, #4]
 236 0160 1344     		add	r3, r2, r3
 237 0162 7B60     		str	r3, [r7, #4]
 238              		.loc 1 197 0
 239 0164 7B7A     		ldrb	r3, [r7, #9]
 240 0166 03F10103 		add	r3, r3, #1
 241 016a 7B72     		strb	r3, [r7, #9]
 242              	.L15:
 243              		.loc 1 194 0
 244 016c 46F20203 		movw	r3, #:lower16:1073766402
 245 0170 C4F20003 		movt	r3, #:upper16:1073766402
 246 0174 1B78     		ldrb	r3, [r3, #0]
 247 0176 DBB2     		uxtb	r3, r3
 248 0178 7A7A     		ldrb	r2, [r7, #9]	@ zero_extendqisi2
 249 017a 9A42     		cmp	r2, r3
 250 017c 04D2     		bcs	.L16
 251 017e 7B68     		ldr	r3, [r7, #4]
 252 0180 1B78     		ldrb	r3, [r3, #0]
 253 0182 DBB2     		uxtb	r3, r3
 254 0184 002B     		cmp	r3, #0
 255 0186 E7D1     		bne	.L17
 256              	.L16:
 257              		.loc 1 225 0
 258 0188 7B68     		ldr	r3, [r7, #4]
 259 018a 1B78     		ldrb	r3, [r3, #0]
 260 018c DBB2     		uxtb	r3, r3
 261 018e 002B     		cmp	r3, #0
 262 0190 00F00C82 		beq	.L43
 263              		.loc 1 227 0
 264 0194 7B68     		ldr	r3, [r7, #4]
 265 0196 1B78     		ldrb	r3, [r3, #0]
 266 0198 DBB2     		uxtb	r3, r3
 267 019a 1A46     		mov	r2, r3
 268 019c 40F20003 		movw	r3, #:lower16:USB_currentTD
 269 01a0 C0F20003 		movt	r3, #:upper16:USB_currentTD
 270 01a4 1A80     		strh	r2, [r3, #0]	@ movhi
 271              		.loc 1 228 0
 272 01a6 40F20003 		movw	r3, #:lower16:USB_currentTD
ARM GAS  C:\Users\Craig\AppData\Local\Temp\cc9NnIsK.s 			page 10


 273 01aa C0F20003 		movt	r3, #:upper16:USB_currentTD
 274 01ae 7A68     		ldr	r2, [r7, #4]
 275 01b0 5A60     		str	r2, [r3, #4]
 276              		.loc 1 229 0
 277 01b2 FFF7FEFF 		bl	USB_InitControlRead
 278 01b6 0346     		mov	r3, r0
 279 01b8 FB70     		strb	r3, [r7, #3]
 280              		.loc 1 237 0
 281 01ba 04E2     		b	.L22
 282              	.L14:
 283              		.loc 1 235 0
 284 01bc FFF7FEFF 		bl	USB_DispatchClassRqst
 285 01c0 0346     		mov	r3, r0
 286 01c2 FB70     		strb	r3, [r7, #3]
 287              		.loc 1 237 0
 288 01c4 FFE1     		b	.L22
 289              	.L6:
 238:.\Generated_Source\PSoC5/USB_std.c ****             case USB_GET_STATUS:
 239:.\Generated_Source\PSoC5/USB_std.c ****                 switch ((CY_GET_REG8(USB_bmRequestType) & USB_RQST_RCPT_MASK))
 290              		.loc 1 239 0
 291 01c6 46F20003 		movw	r3, #:lower16:1073766400
 292 01ca C4F20003 		movt	r3, #:upper16:1073766400
 293 01ce 1B78     		ldrb	r3, [r3, #0]
 294 01d0 DBB2     		uxtb	r3, r3
 295 01d2 03F00303 		and	r3, r3, #3
 296 01d6 002B     		cmp	r3, #0
 297 01d8 39D0     		beq	.L20
 298 01da 022B     		cmp	r3, #2
 299 01dc 40F0E881 		bne	.L44
 300              	.L21:
 240:.\Generated_Source\PSoC5/USB_std.c ****                 {
 241:.\Generated_Source\PSoC5/USB_std.c ****                     case USB_RQST_RCPT_EP:
 242:.\Generated_Source\PSoC5/USB_std.c ****                         USB_currentTD.count = USB_EP_STATUS_LENGTH;
 301              		.loc 1 242 0
 302 01e0 40F20003 		movw	r3, #:lower16:USB_currentTD
 303 01e4 C0F20003 		movt	r3, #:upper16:USB_currentTD
 304 01e8 4FF00202 		mov	r2, #2
 305 01ec 1A80     		strh	r2, [r3, #0]	@ movhi
 243:.\Generated_Source\PSoC5/USB_std.c ****                         USB_tBuffer[0] = USB_EP[ \
 244:.\Generated_Source\PSoC5/USB_std.c ****                                         CY_GET_REG8(USB_wIndexLo) & USB_DIR_UNUSED].hwEpState;
 306              		.loc 1 244 0
 307 01ee 46F20403 		movw	r3, #:lower16:1073766404
 308 01f2 C4F20003 		movt	r3, #:upper16:1073766404
 309 01f6 1B78     		ldrb	r3, [r3, #0]
 310 01f8 DBB2     		uxtb	r3, r3
 311 01fa 03F07F01 		and	r1, r3, #127
 312              		.loc 1 243 0
 313 01fe 40F20002 		movw	r2, #:lower16:USB_EP
 314 0202 C0F20002 		movt	r2, #:upper16:USB_EP
 315 0206 0B46     		mov	r3, r1
 316 0208 4FEA4303 		lsl	r3, r3, #1
 317 020c 0B44     		add	r3, r3, r1
 318 020e 4FEA8303 		lsl	r3, r3, #2
 319 0212 1344     		add	r3, r3, r2
 320 0214 9B78     		ldrb	r3, [r3, #2]
 321 0216 DAB2     		uxtb	r2, r3
 322 0218 40F20003 		movw	r3, #:lower16:USB_tBuffer
ARM GAS  C:\Users\Craig\AppData\Local\Temp\cc9NnIsK.s 			page 11


 323 021c C0F20003 		movt	r3, #:upper16:USB_tBuffer
 324 0220 1A70     		strb	r2, [r3, #0]
 245:.\Generated_Source\PSoC5/USB_std.c ****                         USB_tBuffer[1] = 0u;
 325              		.loc 1 245 0
 326 0222 40F20003 		movw	r3, #:lower16:USB_tBuffer
 327 0226 C0F20003 		movt	r3, #:upper16:USB_tBuffer
 328 022a 4FF00002 		mov	r2, #0
 329 022e 5A70     		strb	r2, [r3, #1]
 246:.\Generated_Source\PSoC5/USB_std.c ****                         USB_currentTD.pData = &USB_tBuffer[0u];
 330              		.loc 1 246 0
 331 0230 40F20003 		movw	r3, #:lower16:USB_currentTD
 332 0234 C0F20003 		movt	r3, #:upper16:USB_currentTD
 333 0238 40F20002 		movw	r2, #:lower16:USB_tBuffer
 334 023c C0F20002 		movt	r2, #:upper16:USB_tBuffer
 335 0240 5A60     		str	r2, [r3, #4]
 247:.\Generated_Source\PSoC5/USB_std.c ****                         requestHandled  = USB_InitControlRead();
 336              		.loc 1 247 0
 337 0242 FFF7FEFF 		bl	USB_InitControlRead
 338 0246 0346     		mov	r3, r0
 339 0248 FB70     		strb	r3, [r7, #3]
 248:.\Generated_Source\PSoC5/USB_std.c ****                         break;
 340              		.loc 1 248 0
 341 024a 00BF     		nop
 249:.\Generated_Source\PSoC5/USB_std.c ****                     case USB_RQST_RCPT_DEV:
 250:.\Generated_Source\PSoC5/USB_std.c ****                         USB_currentTD.count = USB_DEVICE_STATUS_LENGTH;
 251:.\Generated_Source\PSoC5/USB_std.c ****                         USB_tBuffer[0u] = USB_deviceStatus;
 252:.\Generated_Source\PSoC5/USB_std.c ****                         USB_tBuffer[1u] = 0u;
 253:.\Generated_Source\PSoC5/USB_std.c ****                         USB_currentTD.pData = &USB_tBuffer[0u];
 254:.\Generated_Source\PSoC5/USB_std.c ****                         requestHandled  = USB_InitControlRead();
 255:.\Generated_Source\PSoC5/USB_std.c ****                         break;
 256:.\Generated_Source\PSoC5/USB_std.c ****                     default:    /* requestHandled is initialezed as FALSE by default */
 257:.\Generated_Source\PSoC5/USB_std.c ****                         break;
 258:.\Generated_Source\PSoC5/USB_std.c ****                 }
 259:.\Generated_Source\PSoC5/USB_std.c ****                 break;
 342              		.loc 1 259 0
 343 024c BBE1     		b	.L22
 344              	.L20:
 345              		.loc 1 250 0
 346 024e 40F20003 		movw	r3, #:lower16:USB_currentTD
 347 0252 C0F20003 		movt	r3, #:upper16:USB_currentTD
 348 0256 4FF00202 		mov	r2, #2
 349 025a 1A80     		strh	r2, [r3, #0]	@ movhi
 350              		.loc 1 251 0
 351 025c 40F20003 		movw	r3, #:lower16:USB_deviceStatus
 352 0260 C0F20003 		movt	r3, #:upper16:USB_deviceStatus
 353 0264 1B78     		ldrb	r3, [r3, #0]
 354 0266 DAB2     		uxtb	r2, r3
 355 0268 40F20003 		movw	r3, #:lower16:USB_tBuffer
 356 026c C0F20003 		movt	r3, #:upper16:USB_tBuffer
 357 0270 1A70     		strb	r2, [r3, #0]
 358              		.loc 1 252 0
 359 0272 40F20003 		movw	r3, #:lower16:USB_tBuffer
 360 0276 C0F20003 		movt	r3, #:upper16:USB_tBuffer
 361 027a 4FF00002 		mov	r2, #0
 362 027e 5A70     		strb	r2, [r3, #1]
 363              		.loc 1 253 0
 364 0280 40F20003 		movw	r3, #:lower16:USB_currentTD
ARM GAS  C:\Users\Craig\AppData\Local\Temp\cc9NnIsK.s 			page 12


 365 0284 C0F20003 		movt	r3, #:upper16:USB_currentTD
 366 0288 40F20002 		movw	r2, #:lower16:USB_tBuffer
 367 028c C0F20002 		movt	r2, #:upper16:USB_tBuffer
 368 0290 5A60     		str	r2, [r3, #4]
 369              		.loc 1 254 0
 370 0292 FFF7FEFF 		bl	USB_InitControlRead
 371 0296 0346     		mov	r3, r0
 372 0298 FB70     		strb	r3, [r7, #3]
 373              		.loc 1 259 0
 374 029a 94E1     		b	.L22
 375              	.L8:
 260:.\Generated_Source\PSoC5/USB_std.c ****             case USB_GET_CONFIGURATION:
 261:.\Generated_Source\PSoC5/USB_std.c ****                 USB_currentTD.count = 1u;
 376              		.loc 1 261 0
 377 029c 40F20003 		movw	r3, #:lower16:USB_currentTD
 378 02a0 C0F20003 		movt	r3, #:upper16:USB_currentTD
 379 02a4 4FF00102 		mov	r2, #1
 380 02a8 1A80     		strh	r2, [r3, #0]	@ movhi
 262:.\Generated_Source\PSoC5/USB_std.c ****                 USB_currentTD.pData = (uint8 *)&USB_configuration;
 381              		.loc 1 262 0
 382 02aa 40F20003 		movw	r3, #:lower16:USB_currentTD
 383 02ae C0F20003 		movt	r3, #:upper16:USB_currentTD
 384 02b2 40F20002 		movw	r2, #:lower16:USB_configuration
 385 02b6 C0F20002 		movt	r2, #:upper16:USB_configuration
 386 02ba 5A60     		str	r2, [r3, #4]
 263:.\Generated_Source\PSoC5/USB_std.c ****                 requestHandled  = USB_InitControlRead();
 387              		.loc 1 263 0
 388 02bc FFF7FEFF 		bl	USB_InitControlRead
 389 02c0 0346     		mov	r3, r0
 390 02c2 FB70     		strb	r3, [r7, #3]
 264:.\Generated_Source\PSoC5/USB_std.c ****                 break;
 391              		.loc 1 264 0
 392 02c4 00BF     		nop
 393 02c6 7EE1     		b	.L22
 394              	.L9:
 265:.\Generated_Source\PSoC5/USB_std.c ****             case USB_GET_INTERFACE:
 266:.\Generated_Source\PSoC5/USB_std.c ****                 USB_currentTD.count = 1u;
 395              		.loc 1 266 0
 396 02c8 40F20003 		movw	r3, #:lower16:USB_currentTD
 397 02cc C0F20003 		movt	r3, #:upper16:USB_currentTD
 398 02d0 4FF00102 		mov	r2, #1
 399 02d4 1A80     		strh	r2, [r3, #0]	@ movhi
 267:.\Generated_Source\PSoC5/USB_std.c ****                 USB_currentTD.pData = (uint8 *)&USB_interfaceSetting[ \
 268:.\Generated_Source\PSoC5/USB_std.c ****                                                                             CY_GET_REG8(USB_wIndexL
 400              		.loc 1 268 0
 401 02d6 46F20403 		movw	r3, #:lower16:1073766404
 402 02da C4F20003 		movt	r3, #:upper16:1073766404
 403 02de 1B78     		ldrb	r3, [r3, #0]
 404 02e0 DBB2     		uxtb	r3, r3
 405              		.loc 1 267 0
 406 02e2 1A46     		mov	r2, r3
 407 02e4 40F20003 		movw	r3, #:lower16:USB_interfaceSetting
 408 02e8 C0F20003 		movt	r3, #:upper16:USB_interfaceSetting
 409 02ec 1A44     		add	r2, r2, r3
 410 02ee 40F20003 		movw	r3, #:lower16:USB_currentTD
 411 02f2 C0F20003 		movt	r3, #:upper16:USB_currentTD
 412 02f6 5A60     		str	r2, [r3, #4]
ARM GAS  C:\Users\Craig\AppData\Local\Temp\cc9NnIsK.s 			page 13


 269:.\Generated_Source\PSoC5/USB_std.c ****                 requestHandled  = USB_InitControlRead();
 413              		.loc 1 269 0
 414 02f8 FFF7FEFF 		bl	USB_InitControlRead
 415 02fc 0346     		mov	r3, r0
 416 02fe FB70     		strb	r3, [r7, #3]
 417 0300 61E1     		b	.L22
 418              	.L4:
 270:.\Generated_Source\PSoC5/USB_std.c ****                 break;
 271:.\Generated_Source\PSoC5/USB_std.c ****             default: /* requestHandled is initialezed as FALSE by default */
 272:.\Generated_Source\PSoC5/USB_std.c ****                 break;
 273:.\Generated_Source\PSoC5/USB_std.c ****         }
 274:.\Generated_Source\PSoC5/USB_std.c ****     }
 275:.\Generated_Source\PSoC5/USB_std.c ****     else {
 276:.\Generated_Source\PSoC5/USB_std.c ****         /* Control Write */
 277:.\Generated_Source\PSoC5/USB_std.c ****         switch (CY_GET_REG8(USB_bRequest))
 419              		.loc 1 277 0
 420 0302 46F20103 		movw	r3, #:lower16:1073766401
 421 0306 C4F20003 		movt	r3, #:upper16:1073766401
 422 030a 1B78     		ldrb	r3, [r3, #0]
 423 030c DBB2     		uxtb	r3, r3
 424 030e 03F1FF33 		add	r3, r3, #-1
 425 0312 0A2B     		cmp	r3, #10
 426 0314 00F25781 		bhi	.L22
 427 0318 01A2     		adr	r2, .L28
 428 031a 52F823F0 		ldr	pc, [r2, r3, lsl #2]
 429 031e 00BF     		.align	2
 430              	.L28:
 431 0320 13040000 		.word	.L23+1
 432 0324 C7050000 		.word	.L22+1
 433 0328 E1040000 		.word	.L24+1
 434 032c C7050000 		.word	.L22+1
 435 0330 4D030000 		.word	.L25+1
 436 0334 C7050000 		.word	.L22+1
 437 0338 C7050000 		.word	.L22+1
 438 033c C7050000 		.word	.L22+1
 439 0340 6D030000 		.word	.L26+1
 440 0344 C7050000 		.word	.L22+1
 441 0348 A3030000 		.word	.L27+1
 442              	.L25:
 278:.\Generated_Source\PSoC5/USB_std.c ****         {
 279:.\Generated_Source\PSoC5/USB_std.c ****             case USB_SET_ADDRESS:
 280:.\Generated_Source\PSoC5/USB_std.c ****                 USB_deviceAddress = CY_GET_REG8(USB_wValueLo);
 443              		.loc 1 280 0
 444 034c 46F20203 		movw	r3, #:lower16:1073766402
 445 0350 C4F20003 		movt	r3, #:upper16:1073766402
 446 0354 1B78     		ldrb	r3, [r3, #0]
 447 0356 DAB2     		uxtb	r2, r3
 448 0358 40F20003 		movw	r3, #:lower16:USB_deviceAddress
 449 035c C0F20003 		movt	r3, #:upper16:USB_deviceAddress
 450 0360 1A70     		strb	r2, [r3, #0]
 281:.\Generated_Source\PSoC5/USB_std.c ****                 requestHandled = USB_InitNoDataControlTransfer();
 451              		.loc 1 281 0
 452 0362 FFF7FEFF 		bl	USB_InitNoDataControlTransfer
 453 0366 0346     		mov	r3, r0
 454 0368 FB70     		strb	r3, [r7, #3]
 282:.\Generated_Source\PSoC5/USB_std.c ****                 break;
 455              		.loc 1 282 0
ARM GAS  C:\Users\Craig\AppData\Local\Temp\cc9NnIsK.s 			page 14


 456 036a 2CE1     		b	.L22
 457              	.L26:
 283:.\Generated_Source\PSoC5/USB_std.c ****             case USB_SET_CONFIGURATION:
 284:.\Generated_Source\PSoC5/USB_std.c ****                 USB_configuration = CY_GET_REG8(USB_wValueLo);
 458              		.loc 1 284 0
 459 036c 46F20203 		movw	r3, #:lower16:1073766402
 460 0370 C4F20003 		movt	r3, #:upper16:1073766402
 461 0374 1B78     		ldrb	r3, [r3, #0]
 462 0376 DAB2     		uxtb	r2, r3
 463 0378 40F20003 		movw	r3, #:lower16:USB_configuration
 464 037c C0F20003 		movt	r3, #:upper16:USB_configuration
 465 0380 1A70     		strb	r2, [r3, #0]
 285:.\Generated_Source\PSoC5/USB_std.c ****                 USB_configurationChanged = USB_TRUE;
 466              		.loc 1 285 0
 467 0382 40F20003 		movw	r3, #:lower16:USB_configurationChanged
 468 0386 C0F20003 		movt	r3, #:upper16:USB_configurationChanged
 469 038a 4FF00102 		mov	r2, #1
 470 038e 1A70     		strb	r2, [r3, #0]
 286:.\Generated_Source\PSoC5/USB_std.c ****                 USB_Config(USB_TRUE);
 471              		.loc 1 286 0
 472 0390 4FF00100 		mov	r0, #1
 473 0394 FFF7FEFF 		bl	USB_Config
 287:.\Generated_Source\PSoC5/USB_std.c ****                 requestHandled = USB_InitNoDataControlTransfer();
 474              		.loc 1 287 0
 475 0398 FFF7FEFF 		bl	USB_InitNoDataControlTransfer
 476 039c 0346     		mov	r3, r0
 477 039e FB70     		strb	r3, [r7, #3]
 288:.\Generated_Source\PSoC5/USB_std.c ****                 break;
 478              		.loc 1 288 0
 479 03a0 11E1     		b	.L22
 480              	.L27:
 289:.\Generated_Source\PSoC5/USB_std.c ****             case USB_SET_INTERFACE:
 290:.\Generated_Source\PSoC5/USB_std.c ****                 if (USB_ValidateAlternateSetting())
 481              		.loc 1 290 0
 482 03a2 FFF7FEFF 		bl	USB_ValidateAlternateSetting
 483 03a6 0346     		mov	r3, r0
 484 03a8 002B     		cmp	r3, #0
 485 03aa 00F00381 		beq	.L45
 291:.\Generated_Source\PSoC5/USB_std.c ****                 {
 292:.\Generated_Source\PSoC5/USB_std.c ****                     USB_interfaceNumber = CY_GET_REG8(USB_wIndexLo);
 486              		.loc 1 292 0
 487 03ae 46F20403 		movw	r3, #:lower16:1073766404
 488 03b2 C4F20003 		movt	r3, #:upper16:1073766404
 489 03b6 1B78     		ldrb	r3, [r3, #0]
 490 03b8 DAB2     		uxtb	r2, r3
 491 03ba 40F20003 		movw	r3, #:lower16:USB_interfaceNumber
 492 03be C0F20003 		movt	r3, #:upper16:USB_interfaceNumber
 493 03c2 1A70     		strb	r2, [r3, #0]
 293:.\Generated_Source\PSoC5/USB_std.c ****                     USB_configurationChanged = USB_TRUE;
 494              		.loc 1 293 0
 495 03c4 40F20003 		movw	r3, #:lower16:USB_configurationChanged
 496 03c8 C0F20003 		movt	r3, #:upper16:USB_configurationChanged
 497 03cc 4FF00102 		mov	r2, #1
 498 03d0 1A70     		strb	r2, [r3, #0]
 294:.\Generated_Source\PSoC5/USB_std.c ****                     #if ((USB_EP_MA == USB__MA_DYNAMIC) && \
 295:.\Generated_Source\PSoC5/USB_std.c ****                          (USB_EP_MM == USB__EP_MANUAL) )
 296:.\Generated_Source\PSoC5/USB_std.c ****                         USB_Config(USB_FALSE);
ARM GAS  C:\Users\Craig\AppData\Local\Temp\cc9NnIsK.s 			page 15


 297:.\Generated_Source\PSoC5/USB_std.c ****                     #else
 298:.\Generated_Source\PSoC5/USB_std.c ****                         USB_ConfigAltChanged();
 499              		.loc 1 298 0
 500 03d2 FFF7FEFF 		bl	USB_ConfigAltChanged
 299:.\Generated_Source\PSoC5/USB_std.c ****                     #endif /* End (USB_EP_MA == USB__MA_DYNAMIC) */
 300:.\Generated_Source\PSoC5/USB_std.c ****                     /* Update handled Alt setting changes status */
 301:.\Generated_Source\PSoC5/USB_std.c ****                     USB_interfaceSetting_last[USB_interfaceNumber] = 
 501              		.loc 1 301 0
 502 03d6 40F20003 		movw	r3, #:lower16:USB_interfaceNumber
 503 03da C0F20003 		movt	r3, #:upper16:USB_interfaceNumber
 504 03de 1B78     		ldrb	r3, [r3, #0]
 505 03e0 DBB2     		uxtb	r3, r3
 506 03e2 1A46     		mov	r2, r3
 302:.\Generated_Source\PSoC5/USB_std.c ****                          USB_interfaceSetting[USB_interfaceNumber];
 507              		.loc 1 302 0
 508 03e4 40F20003 		movw	r3, #:lower16:USB_interfaceNumber
 509 03e8 C0F20003 		movt	r3, #:upper16:USB_interfaceNumber
 510 03ec 1B78     		ldrb	r3, [r3, #0]
 511 03ee DBB2     		uxtb	r3, r3
 512 03f0 1946     		mov	r1, r3
 513 03f2 40F20003 		movw	r3, #:lower16:USB_interfaceSetting
 514 03f6 C0F20003 		movt	r3, #:upper16:USB_interfaceSetting
 515 03fa 5B5C     		ldrb	r3, [r3, r1]
 516 03fc D9B2     		uxtb	r1, r3
 517              		.loc 1 301 0
 518 03fe 40F20003 		movw	r3, #:lower16:USB_interfaceSetting_last
 519 0402 C0F20003 		movt	r3, #:upper16:USB_interfaceSetting_last
 520 0406 9954     		strb	r1, [r3, r2]
 303:.\Generated_Source\PSoC5/USB_std.c ****                     requestHandled = USB_InitNoDataControlTransfer();
 521              		.loc 1 303 0
 522 0408 FFF7FEFF 		bl	USB_InitNoDataControlTransfer
 523 040c 0346     		mov	r3, r0
 524 040e FB70     		strb	r3, [r7, #3]
 304:.\Generated_Source\PSoC5/USB_std.c ****                 }
 305:.\Generated_Source\PSoC5/USB_std.c ****                 break;
 525              		.loc 1 305 0
 526 0410 D9E0     		b	.L22
 527              	.L23:
 306:.\Generated_Source\PSoC5/USB_std.c ****             case USB_CLEAR_FEATURE:
 307:.\Generated_Source\PSoC5/USB_std.c ****                 switch (CY_GET_REG8(USB_bmRequestType) & USB_RQST_RCPT_MASK)
 528              		.loc 1 307 0
 529 0412 46F20003 		movw	r3, #:lower16:1073766400
 530 0416 C4F20003 		movt	r3, #:upper16:1073766400
 531 041a 1B78     		ldrb	r3, [r3, #0]
 532 041c DBB2     		uxtb	r3, r3
 533 041e 03F00303 		and	r3, r3, #3
 534 0422 012B     		cmp	r3, #1
 535 0424 2CD0     		beq	.L32
 536 0426 012B     		cmp	r3, #1
 537 0428 0FD3     		bcc	.L31
 538 042a 022B     		cmp	r3, #2
 539 042c 40F0C480 		bne	.L46
 540              	.L33:
 308:.\Generated_Source\PSoC5/USB_std.c ****                 {
 309:.\Generated_Source\PSoC5/USB_std.c ****                     case USB_RQST_RCPT_EP:
 310:.\Generated_Source\PSoC5/USB_std.c ****                         if (CY_GET_REG8(USB_wValueLo) == USB_ENDPOINT_HALT)
 541              		.loc 1 310 0
ARM GAS  C:\Users\Craig\AppData\Local\Temp\cc9NnIsK.s 			page 16


 542 0430 46F20203 		movw	r3, #:lower16:1073766402
 543 0434 C4F20003 		movt	r3, #:upper16:1073766402
 544 0438 1B78     		ldrb	r3, [r3, #0]
 545 043a DBB2     		uxtb	r3, r3
 546 043c 002B     		cmp	r3, #0
 547 043e 03D1     		bne	.L34
 311:.\Generated_Source\PSoC5/USB_std.c ****                         {
 312:.\Generated_Source\PSoC5/USB_std.c ****                             requestHandled = USB_ClearEndpointHalt();
 548              		.loc 1 312 0
 549 0440 FFF7FEFF 		bl	USB_ClearEndpointHalt
 550 0444 0346     		mov	r3, r0
 551 0446 FB70     		strb	r3, [r7, #3]
 552              	.L34:
 313:.\Generated_Source\PSoC5/USB_std.c ****                         }
 314:.\Generated_Source\PSoC5/USB_std.c ****                         break;
 553              		.loc 1 314 0
 554 0448 49E0     		b	.L30
 555              	.L31:
 315:.\Generated_Source\PSoC5/USB_std.c ****                     case USB_RQST_RCPT_DEV:
 316:.\Generated_Source\PSoC5/USB_std.c ****                         /* Clear device REMOTE_WAKEUP */
 317:.\Generated_Source\PSoC5/USB_std.c ****                         if (CY_GET_REG8(USB_wValueLo) == USB_DEVICE_REMOTE_WAKEUP)
 556              		.loc 1 317 0
 557 044a 46F20203 		movw	r3, #:lower16:1073766402
 558 044e C4F20003 		movt	r3, #:upper16:1073766402
 559 0452 1B78     		ldrb	r3, [r3, #0]
 560 0454 DBB2     		uxtb	r3, r3
 561 0456 012B     		cmp	r3, #1
 562 0458 11D1     		bne	.L35
 318:.\Generated_Source\PSoC5/USB_std.c ****                         {
 319:.\Generated_Source\PSoC5/USB_std.c ****                             USB_deviceStatus &= ~USB_DEVICE_STATUS_REMOTE_WAKEUP;
 563              		.loc 1 319 0
 564 045a 40F20003 		movw	r3, #:lower16:USB_deviceStatus
 565 045e C0F20003 		movt	r3, #:upper16:USB_deviceStatus
 566 0462 1B78     		ldrb	r3, [r3, #0]
 567 0464 DBB2     		uxtb	r3, r3
 568 0466 1A46     		mov	r2, r3
 569 0468 02F0FD02 		and	r2, r2, #253
 570 046c 40F20003 		movw	r3, #:lower16:USB_deviceStatus
 571 0470 C0F20003 		movt	r3, #:upper16:USB_deviceStatus
 572 0474 1A70     		strb	r2, [r3, #0]
 320:.\Generated_Source\PSoC5/USB_std.c ****                             requestHandled = USB_InitNoDataControlTransfer();
 573              		.loc 1 320 0
 574 0476 FFF7FEFF 		bl	USB_InitNoDataControlTransfer
 575 047a 0346     		mov	r3, r0
 576 047c FB70     		strb	r3, [r7, #3]
 577              	.L35:
 321:.\Generated_Source\PSoC5/USB_std.c ****                         }
 322:.\Generated_Source\PSoC5/USB_std.c ****                         break;
 578              		.loc 1 322 0
 579 047e 2EE0     		b	.L30
 580              	.L32:
 323:.\Generated_Source\PSoC5/USB_std.c ****                     case USB_RQST_RCPT_IFC:
 324:.\Generated_Source\PSoC5/USB_std.c ****                         /* Validate interfaceNumber */
 325:.\Generated_Source\PSoC5/USB_std.c ****                         if (CY_GET_REG8(USB_wIndexLo) < USB_MAX_INTERFACES_NUMBER)
 581              		.loc 1 325 0
 582 0480 46F20403 		movw	r3, #:lower16:1073766404
 583 0484 C4F20003 		movt	r3, #:upper16:1073766404
ARM GAS  C:\Users\Craig\AppData\Local\Temp\cc9NnIsK.s 			page 17


 584 0488 1B78     		ldrb	r3, [r3, #0]
 585 048a DBB2     		uxtb	r3, r3
 586 048c 002B     		cmp	r3, #0
 587 048e 40F09580 		bne	.L47
 326:.\Generated_Source\PSoC5/USB_std.c ****                         {
 327:.\Generated_Source\PSoC5/USB_std.c ****                             USB_interfaceStatus[CY_GET_REG8(USB_wIndexLo)] &= \
 588              		.loc 1 327 0
 589 0492 46F20403 		movw	r3, #:lower16:1073766404
 590 0496 C4F20003 		movt	r3, #:upper16:1073766404
 591 049a 1B78     		ldrb	r3, [r3, #0]
 592 049c DBB2     		uxtb	r3, r3
 593 049e 1A46     		mov	r2, r3
 594 04a0 1946     		mov	r1, r3
 595 04a2 40F20003 		movw	r3, #:lower16:USB_interfaceStatus
 596 04a6 C0F20003 		movt	r3, #:upper16:USB_interfaceStatus
 597 04aa 5B5C     		ldrb	r3, [r3, r1]
 598 04ac DBB2     		uxtb	r3, r3
 599 04ae 1946     		mov	r1, r3
 328:.\Generated_Source\PSoC5/USB_std.c ****                                                                 ~(CY_GET_REG8(USB_wValueLo)) ;
 600              		.loc 1 328 0
 601 04b0 46F20203 		movw	r3, #:lower16:1073766402
 602 04b4 C4F20003 		movt	r3, #:upper16:1073766402
 603 04b8 1B78     		ldrb	r3, [r3, #0]
 604 04ba DBB2     		uxtb	r3, r3
 605              		.loc 1 327 0
 606 04bc 6FEA0303 		mvn	r3, r3
 607 04c0 DBB2     		uxtb	r3, r3
 608 04c2 01EA0303 		and	r3, r1, r3
 609 04c6 DBB2     		uxtb	r3, r3
 610 04c8 D9B2     		uxtb	r1, r3
 611 04ca 40F20003 		movw	r3, #:lower16:USB_interfaceStatus
 612 04ce C0F20003 		movt	r3, #:upper16:USB_interfaceStatus
 613 04d2 9954     		strb	r1, [r3, r2]
 329:.\Generated_Source\PSoC5/USB_std.c ****                             requestHandled = USB_InitNoDataControlTransfer();
 614              		.loc 1 329 0
 615 04d4 FFF7FEFF 		bl	USB_InitNoDataControlTransfer
 616 04d8 0346     		mov	r3, r0
 617 04da FB70     		strb	r3, [r7, #3]
 330:.\Generated_Source\PSoC5/USB_std.c ****                         }
 331:.\Generated_Source\PSoC5/USB_std.c ****                         break;
 332:.\Generated_Source\PSoC5/USB_std.c ****                     default:    /* requestHandled is initialezed as FALSE by default */
 333:.\Generated_Source\PSoC5/USB_std.c ****                         break;
 334:.\Generated_Source\PSoC5/USB_std.c ****                 }
 335:.\Generated_Source\PSoC5/USB_std.c ****                 break;
 618              		.loc 1 335 0
 619 04dc 73E0     		b	.L22
 620              	.L30:
 621 04de 72E0     		b	.L22
 622              	.L24:
 336:.\Generated_Source\PSoC5/USB_std.c ****             case USB_SET_FEATURE:
 337:.\Generated_Source\PSoC5/USB_std.c ****                 switch (CY_GET_REG8(USB_bmRequestType) & USB_RQST_RCPT_MASK)
 623              		.loc 1 337 0
 624 04e0 46F20003 		movw	r3, #:lower16:1073766400
 625 04e4 C4F20003 		movt	r3, #:upper16:1073766400
 626 04e8 1B78     		ldrb	r3, [r3, #0]
 627 04ea DBB2     		uxtb	r3, r3
 628 04ec 03F00303 		and	r3, r3, #3
ARM GAS  C:\Users\Craig\AppData\Local\Temp\cc9NnIsK.s 			page 18


 629 04f0 012B     		cmp	r3, #1
 630 04f2 2BD0     		beq	.L37
 631 04f4 012B     		cmp	r3, #1
 632 04f6 0ED3     		bcc	.L36
 633 04f8 022B     		cmp	r3, #2
 634 04fa 64D1     		bne	.L22
 635              	.L38:
 338:.\Generated_Source\PSoC5/USB_std.c ****                 {
 339:.\Generated_Source\PSoC5/USB_std.c ****                     case USB_RQST_RCPT_EP:
 340:.\Generated_Source\PSoC5/USB_std.c ****                         if (CY_GET_REG8(USB_wValueLo) == USB_ENDPOINT_HALT)
 636              		.loc 1 340 0
 637 04fc 46F20203 		movw	r3, #:lower16:1073766402
 638 0500 C4F20003 		movt	r3, #:upper16:1073766402
 639 0504 1B78     		ldrb	r3, [r3, #0]
 640 0506 DBB2     		uxtb	r3, r3
 641 0508 002B     		cmp	r3, #0
 642 050a 59D1     		bne	.L48
 341:.\Generated_Source\PSoC5/USB_std.c ****                         {
 342:.\Generated_Source\PSoC5/USB_std.c ****                             requestHandled = USB_SetEndpointHalt();
 643              		.loc 1 342 0
 644 050c FFF7FEFF 		bl	USB_SetEndpointHalt
 645 0510 0346     		mov	r3, r0
 646 0512 FB70     		strb	r3, [r7, #3]
 343:.\Generated_Source\PSoC5/USB_std.c ****                         }
 344:.\Generated_Source\PSoC5/USB_std.c ****                         break;
 647              		.loc 1 344 0
 648 0514 57E0     		b	.L22
 649              	.L36:
 345:.\Generated_Source\PSoC5/USB_std.c ****                     case USB_RQST_RCPT_DEV:
 346:.\Generated_Source\PSoC5/USB_std.c ****                         /* Set device REMOTE_WAKEUP */
 347:.\Generated_Source\PSoC5/USB_std.c ****                         if (CY_GET_REG8(USB_wValueLo) == USB_DEVICE_REMOTE_WAKEUP)
 650              		.loc 1 347 0
 651 0516 46F20203 		movw	r3, #:lower16:1073766402
 652 051a C4F20003 		movt	r3, #:upper16:1073766402
 653 051e 1B78     		ldrb	r3, [r3, #0]
 654 0520 DBB2     		uxtb	r3, r3
 655 0522 012B     		cmp	r3, #1
 656 0524 4ED1     		bne	.L49
 348:.\Generated_Source\PSoC5/USB_std.c ****                         {
 349:.\Generated_Source\PSoC5/USB_std.c ****                             USB_deviceStatus |= USB_DEVICE_STATUS_REMOTE_WAKEUP;
 657              		.loc 1 349 0
 658 0526 40F20003 		movw	r3, #:lower16:USB_deviceStatus
 659 052a C0F20003 		movt	r3, #:upper16:USB_deviceStatus
 660 052e 1B78     		ldrb	r3, [r3, #0]
 661 0530 DBB2     		uxtb	r3, r3
 662 0532 43F00203 		orr	r3, r3, #2
 663 0536 DAB2     		uxtb	r2, r3
 664 0538 40F20003 		movw	r3, #:lower16:USB_deviceStatus
 665 053c C0F20003 		movt	r3, #:upper16:USB_deviceStatus
 666 0540 1A70     		strb	r2, [r3, #0]
 350:.\Generated_Source\PSoC5/USB_std.c ****                             requestHandled = USB_InitNoDataControlTransfer();
 667              		.loc 1 350 0
 668 0542 FFF7FEFF 		bl	USB_InitNoDataControlTransfer
 669 0546 0346     		mov	r3, r0
 670 0548 FB70     		strb	r3, [r7, #3]
 351:.\Generated_Source\PSoC5/USB_std.c ****                         }
 352:.\Generated_Source\PSoC5/USB_std.c ****                         break;
ARM GAS  C:\Users\Craig\AppData\Local\Temp\cc9NnIsK.s 			page 19


 671              		.loc 1 352 0
 672 054a 3CE0     		b	.L22
 673              	.L37:
 353:.\Generated_Source\PSoC5/USB_std.c ****                     case USB_RQST_RCPT_IFC:
 354:.\Generated_Source\PSoC5/USB_std.c ****                         /* Validate interfaceNumber */
 355:.\Generated_Source\PSoC5/USB_std.c ****                         if (CY_GET_REG8(USB_wIndexLo) < USB_MAX_INTERFACES_NUMBER)
 674              		.loc 1 355 0
 675 054c 46F20403 		movw	r3, #:lower16:1073766404
 676 0550 C4F20003 		movt	r3, #:upper16:1073766404
 677 0554 1B78     		ldrb	r3, [r3, #0]
 678 0556 DBB2     		uxtb	r3, r3
 679 0558 002B     		cmp	r3, #0
 680 055a 34D1     		bne	.L22
 356:.\Generated_Source\PSoC5/USB_std.c ****                         {
 357:.\Generated_Source\PSoC5/USB_std.c ****                             USB_interfaceStatus[CY_GET_REG8(USB_wIndexLo)] &= \
 681              		.loc 1 357 0
 682 055c 46F20403 		movw	r3, #:lower16:1073766404
 683 0560 C4F20003 		movt	r3, #:upper16:1073766404
 684 0564 1B78     		ldrb	r3, [r3, #0]
 685 0566 DBB2     		uxtb	r3, r3
 686 0568 1A46     		mov	r2, r3
 687 056a 1946     		mov	r1, r3
 688 056c 40F20003 		movw	r3, #:lower16:USB_interfaceStatus
 689 0570 C0F20003 		movt	r3, #:upper16:USB_interfaceStatus
 690 0574 5B5C     		ldrb	r3, [r3, r1]
 691 0576 DBB2     		uxtb	r3, r3
 692 0578 1946     		mov	r1, r3
 358:.\Generated_Source\PSoC5/USB_std.c ****                                                                 ~(CY_GET_REG8(USB_wValueLo)) ;
 693              		.loc 1 358 0
 694 057a 46F20203 		movw	r3, #:lower16:1073766402
 695 057e C4F20003 		movt	r3, #:upper16:1073766402
 696 0582 1B78     		ldrb	r3, [r3, #0]
 697 0584 DBB2     		uxtb	r3, r3
 698              		.loc 1 357 0
 699 0586 6FEA0303 		mvn	r3, r3
 700 058a DBB2     		uxtb	r3, r3
 701 058c 01EA0303 		and	r3, r1, r3
 702 0590 DBB2     		uxtb	r3, r3
 703 0592 D9B2     		uxtb	r1, r3
 704 0594 40F20003 		movw	r3, #:lower16:USB_interfaceStatus
 705 0598 C0F20003 		movt	r3, #:upper16:USB_interfaceStatus
 706 059c 9954     		strb	r1, [r3, r2]
 359:.\Generated_Source\PSoC5/USB_std.c ****                             requestHandled = USB_InitNoDataControlTransfer();
 707              		.loc 1 359 0
 708 059e FFF7FEFF 		bl	USB_InitNoDataControlTransfer
 709 05a2 0346     		mov	r3, r0
 710 05a4 FB70     		strb	r3, [r7, #3]
 711 05a6 0EE0     		b	.L22
 712              	.L42:
 713              		.loc 1 269 0
 714 05a8 00BF     		nop
 715 05aa 0CE0     		b	.L22
 716              	.L43:
 717              		.loc 1 237 0
 718 05ac 00BF     		nop
 719 05ae 0AE0     		b	.L22
 720              	.L44:
ARM GAS  C:\Users\Craig\AppData\Local\Temp\cc9NnIsK.s 			page 20


 721              		.loc 1 259 0
 722 05b0 00BF     		nop
 723 05b2 08E0     		b	.L22
 724              	.L45:
 725              		.loc 1 305 0
 726 05b4 00BF     		nop
 727 05b6 06E0     		b	.L22
 728              	.L46:
 729              		.loc 1 335 0
 730 05b8 00BF     		nop
 731 05ba 04E0     		b	.L22
 732              	.L47:
 733 05bc 00BF     		nop
 734 05be 02E0     		b	.L22
 735              	.L48:
 736              		.loc 1 344 0
 737 05c0 00BF     		nop
 738 05c2 00E0     		b	.L22
 739              	.L49:
 740              		.loc 1 352 0
 741 05c4 00BF     		nop
 742              	.L22:
 360:.\Generated_Source\PSoC5/USB_std.c ****                         }
 361:.\Generated_Source\PSoC5/USB_std.c ****                         break;
 362:.\Generated_Source\PSoC5/USB_std.c ****                     default:    /* requestHandled is initialezed as FALSE by default */
 363:.\Generated_Source\PSoC5/USB_std.c ****                         break;
 364:.\Generated_Source\PSoC5/USB_std.c ****                 }
 365:.\Generated_Source\PSoC5/USB_std.c ****                 break;
 366:.\Generated_Source\PSoC5/USB_std.c ****             default:    /* requestHandled is initialezed as FALSE by default */
 367:.\Generated_Source\PSoC5/USB_std.c ****                 break;
 368:.\Generated_Source\PSoC5/USB_std.c ****         }
 369:.\Generated_Source\PSoC5/USB_std.c ****     }
 370:.\Generated_Source\PSoC5/USB_std.c ****     return(requestHandled);
 743              		.loc 1 370 0
 744 05c6 FB78     		ldrb	r3, [r7, #3]	@ zero_extendqisi2
 371:.\Generated_Source\PSoC5/USB_std.c **** }
 745              		.loc 1 371 0
 746 05c8 1846     		mov	r0, r3
 747 05ca 07F11007 		add	r7, r7, #16
 748 05ce BD46     		mov	sp, r7
 749 05d0 80BD     		pop	{r7, pc}
 750              		.cfi_endproc
 751              	.LFE1:
 752              		.size	USB_HandleStandardRqst, .-USB_HandleStandardRqst
 753 05d2 00BF     		.section	.text.USB_ConfigReg,"ax",%progbits
 754              		.align	2
 755              		.global	USB_ConfigReg
 756              		.thumb
 757              		.thumb_func
 758              		.type	USB_ConfigReg, %function
 759              	USB_ConfigReg:
 760              	.LFB2:
 372:.\Generated_Source\PSoC5/USB_std.c **** 
 373:.\Generated_Source\PSoC5/USB_std.c **** 
 374:.\Generated_Source\PSoC5/USB_std.c **** #if defined(USB_ENABLE_IDSN_STRING)
 375:.\Generated_Source\PSoC5/USB_std.c **** 
 376:.\Generated_Source\PSoC5/USB_std.c ****     /***************************************************************************
ARM GAS  C:\Users\Craig\AppData\Local\Temp\cc9NnIsK.s 			page 21


 377:.\Generated_Source\PSoC5/USB_std.c ****     * Function Name: USB_ReadDieID
 378:.\Generated_Source\PSoC5/USB_std.c ****     ****************************************************************************
 379:.\Generated_Source\PSoC5/USB_std.c ****     *
 380:.\Generated_Source\PSoC5/USB_std.c ****     * Summary:
 381:.\Generated_Source\PSoC5/USB_std.c ****     *  This routine read Die ID and genarete Serian Number string descriptor.
 382:.\Generated_Source\PSoC5/USB_std.c ****     *
 383:.\Generated_Source\PSoC5/USB_std.c ****     * Parameters:
 384:.\Generated_Source\PSoC5/USB_std.c ****     *  descr:  pointer on string descriptor.
 385:.\Generated_Source\PSoC5/USB_std.c ****     *
 386:.\Generated_Source\PSoC5/USB_std.c ****     * Return:
 387:.\Generated_Source\PSoC5/USB_std.c ****     *  None.
 388:.\Generated_Source\PSoC5/USB_std.c ****     *
 389:.\Generated_Source\PSoC5/USB_std.c ****     * Reentrant:
 390:.\Generated_Source\PSoC5/USB_std.c ****     *  No.
 391:.\Generated_Source\PSoC5/USB_std.c ****     *
 392:.\Generated_Source\PSoC5/USB_std.c ****     ***************************************************************************/
 393:.\Generated_Source\PSoC5/USB_std.c ****     void USB_ReadDieID(uint8 *descr) 
 394:.\Generated_Source\PSoC5/USB_std.c ****     {
 395:.\Generated_Source\PSoC5/USB_std.c ****         uint8 i,j;
 396:.\Generated_Source\PSoC5/USB_std.c ****         uint8 value;
 397:.\Generated_Source\PSoC5/USB_std.c ****         static char8 const hex[16u] = "0123456789ABCDEF";
 398:.\Generated_Source\PSoC5/USB_std.c **** 
 399:.\Generated_Source\PSoC5/USB_std.c ****         /* check descriptor validation */
 400:.\Generated_Source\PSoC5/USB_std.c ****         if( (descr[0u] > 1u ) && (descr[1u] == USB_DESCR_STRING) )
 401:.\Generated_Source\PSoC5/USB_std.c ****         {
 402:.\Generated_Source\PSoC5/USB_std.c ****             /* fill descriptor */
 403:.\Generated_Source\PSoC5/USB_std.c ****             for(j = 0u, i = 2u; i < descr[0u]; i += 2u)
 404:.\Generated_Source\PSoC5/USB_std.c ****             {
 405:.\Generated_Source\PSoC5/USB_std.c ****                 value = CY_GET_XTND_REG8((void CYFAR *)(USB_DIE_ID + j++));
 406:.\Generated_Source\PSoC5/USB_std.c ****                 descr[i] = (uint8)hex[value >> 4u];
 407:.\Generated_Source\PSoC5/USB_std.c ****                 i += 2u;
 408:.\Generated_Source\PSoC5/USB_std.c ****                 descr[i] = (uint8)hex[value & 0x0Fu];
 409:.\Generated_Source\PSoC5/USB_std.c ****             }
 410:.\Generated_Source\PSoC5/USB_std.c ****         }
 411:.\Generated_Source\PSoC5/USB_std.c ****     }
 412:.\Generated_Source\PSoC5/USB_std.c **** 
 413:.\Generated_Source\PSoC5/USB_std.c **** #endif /* End $INSTANCE_NAME`_ENABLE_IDSN_STRING*/
 414:.\Generated_Source\PSoC5/USB_std.c **** 
 415:.\Generated_Source\PSoC5/USB_std.c **** 
 416:.\Generated_Source\PSoC5/USB_std.c **** /*******************************************************************************
 417:.\Generated_Source\PSoC5/USB_std.c **** * Function Name: USB_ConfigReg
 418:.\Generated_Source\PSoC5/USB_std.c **** ********************************************************************************
 419:.\Generated_Source\PSoC5/USB_std.c **** *
 420:.\Generated_Source\PSoC5/USB_std.c **** * Summary:
 421:.\Generated_Source\PSoC5/USB_std.c **** *  This routine configures hardware registers from the variables.
 422:.\Generated_Source\PSoC5/USB_std.c **** *  It is called from USB_Config() function and from RestoreConfig
 423:.\Generated_Source\PSoC5/USB_std.c **** *  after Wakeup.
 424:.\Generated_Source\PSoC5/USB_std.c **** *
 425:.\Generated_Source\PSoC5/USB_std.c **** * Parameters:
 426:.\Generated_Source\PSoC5/USB_std.c **** *  None.
 427:.\Generated_Source\PSoC5/USB_std.c **** *
 428:.\Generated_Source\PSoC5/USB_std.c **** * Return:
 429:.\Generated_Source\PSoC5/USB_std.c **** *  None.
 430:.\Generated_Source\PSoC5/USB_std.c **** *
 431:.\Generated_Source\PSoC5/USB_std.c **** *******************************************************************************/
 432:.\Generated_Source\PSoC5/USB_std.c **** void USB_ConfigReg(void) 
 433:.\Generated_Source\PSoC5/USB_std.c **** {
ARM GAS  C:\Users\Craig\AppData\Local\Temp\cc9NnIsK.s 			page 22


 761              		.loc 1 433 0
 762              		.cfi_startproc
 763              		@ args = 0, pretend = 0, frame = 8
 764              		@ frame_needed = 1, uses_anonymous_args = 0
 765              		@ link register save eliminated.
 766 0000 80B4     		push	{r7}
 767              	.LCFI6:
 768              		.cfi_def_cfa_offset 4
 769 0002 83B0     		sub	sp, sp, #12
 770              	.LCFI7:
 771              		.cfi_def_cfa_offset 16
 772 0004 00AF     		add	r7, sp, #0
 773              		.cfi_offset 7, -4
 774              	.LCFI8:
 775              		.cfi_def_cfa_register 7
 434:.\Generated_Source\PSoC5/USB_std.c ****     uint8 ep;
 435:.\Generated_Source\PSoC5/USB_std.c ****     uint8 i;
 436:.\Generated_Source\PSoC5/USB_std.c ****     #if(USB_EP_MM == USB__EP_DMAAUTO)
 437:.\Generated_Source\PSoC5/USB_std.c ****         uint8 ep_type = 0u;
 438:.\Generated_Source\PSoC5/USB_std.c ****     #endif /* End USB_EP_MM == USB__EP_DMAAUTO */
 439:.\Generated_Source\PSoC5/USB_std.c **** 
 440:.\Generated_Source\PSoC5/USB_std.c ****     /* Set the endpoint buffer addresses */
 441:.\Generated_Source\PSoC5/USB_std.c ****     ep = USB_EP1;
 776              		.loc 1 441 0
 777 0006 4FF00103 		mov	r3, #1
 778 000a BB71     		strb	r3, [r7, #6]
 442:.\Generated_Source\PSoC5/USB_std.c ****     for (i = 0u; i < 0x80u; i+= 0x10u)
 779              		.loc 1 442 0
 780 000c 4FF00003 		mov	r3, #0
 781 0010 FB71     		strb	r3, [r7, #7]
 782 0012 E7E0     		b	.L51
 783              	.L56:
 443:.\Generated_Source\PSoC5/USB_std.c ****     {
 444:.\Generated_Source\PSoC5/USB_std.c ****         CY_SET_REG8(&USB_ARB_EP1_CFG_PTR[i], USB_ARB_EPX_CFG_CRC_BYPASS |
 784              		.loc 1 444 0
 785 0014 FA79     		ldrb	r2, [r7, #7]	@ zero_extendqisi2
 786 0016 46F28003 		movw	r3, #:lower16:1073766528
 787 001a C4F20003 		movt	r3, #:upper16:1073766528
 788 001e 1344     		add	r3, r2, r3
 789 0020 4FF00C02 		mov	r2, #12
 790 0024 1A70     		strb	r2, [r3, #0]
 445:.\Generated_Source\PSoC5/USB_std.c ****                                                           USB_ARB_EPX_CFG_RESET);
 446:.\Generated_Source\PSoC5/USB_std.c **** 
 447:.\Generated_Source\PSoC5/USB_std.c ****         #if(USB_EP_MM != USB__EP_MANUAL)
 448:.\Generated_Source\PSoC5/USB_std.c ****             /* Enable all Arbiter EP Interrupts : err, buf under, buf over, dma gnt(mode2 only), in
 449:.\Generated_Source\PSoC5/USB_std.c ****             USB_ARB_EP1_INT_EN_PTR[i] = USB_ARB_EPX_INT_MASK;
 450:.\Generated_Source\PSoC5/USB_std.c ****         #endif   /* End USB_EP_MM != USB__EP_MANUAL */
 451:.\Generated_Source\PSoC5/USB_std.c **** 
 452:.\Generated_Source\PSoC5/USB_std.c ****         if(USB_EP[ep].epMode != USB_MODE_DISABLE)
 791              		.loc 1 452 0
 792 0026 B979     		ldrb	r1, [r7, #6]	@ zero_extendqisi2
 793 0028 40F20002 		movw	r2, #:lower16:USB_EP
 794 002c C0F20002 		movt	r2, #:upper16:USB_EP
 795 0030 0B46     		mov	r3, r1
 796 0032 4FEA4303 		lsl	r3, r3, #1
 797 0036 0B44     		add	r3, r3, r1
 798 0038 4FEA8303 		lsl	r3, r3, #2
ARM GAS  C:\Users\Craig\AppData\Local\Temp\cc9NnIsK.s 			page 23


 799 003c 1344     		add	r3, r3, r2
 800 003e 5B79     		ldrb	r3, [r3, #5]
 801 0040 DBB2     		uxtb	r3, r3
 802 0042 002B     		cmp	r3, #0
 803 0044 24D0     		beq	.L52
 453:.\Generated_Source\PSoC5/USB_std.c ****         {
 454:.\Generated_Source\PSoC5/USB_std.c ****             if((USB_EP[ep].addr & USB_DIR_IN) != 0u )
 804              		.loc 1 454 0
 805 0046 B979     		ldrb	r1, [r7, #6]	@ zero_extendqisi2
 806 0048 40F20002 		movw	r2, #:lower16:USB_EP
 807 004c C0F20002 		movt	r2, #:upper16:USB_EP
 808 0050 0B46     		mov	r3, r1
 809 0052 4FEA4303 		lsl	r3, r3, #1
 810 0056 0B44     		add	r3, r3, r1
 811 0058 4FEA8303 		lsl	r3, r3, #2
 812 005c 1344     		add	r3, r3, r2
 813 005e 1B79     		ldrb	r3, [r3, #4]
 814 0060 DBB2     		uxtb	r3, r3
 815 0062 5BB2     		sxtb	r3, r3
 816 0064 002B     		cmp	r3, #0
 817 0066 09DA     		bge	.L53
 455:.\Generated_Source\PSoC5/USB_std.c ****             {
 456:.\Generated_Source\PSoC5/USB_std.c ****                 CY_SET_REG8(&USB_SIE_EP1_CR0_PTR[i], USB_MODE_NAK_IN);
 818              		.loc 1 456 0
 819 0068 FA79     		ldrb	r2, [r7, #7]	@ zero_extendqisi2
 820 006a 46F20E03 		movw	r3, #:lower16:1073766414
 821 006e C4F20003 		movt	r3, #:upper16:1073766414
 822 0072 1344     		add	r3, r2, r3
 823 0074 4FF00C02 		mov	r2, #12
 824 0078 1A70     		strb	r2, [r3, #0]
 457:.\Generated_Source\PSoC5/USB_std.c ****             }
 458:.\Generated_Source\PSoC5/USB_std.c ****             else
 459:.\Generated_Source\PSoC5/USB_std.c ****             {
 460:.\Generated_Source\PSoC5/USB_std.c ****                 CY_SET_REG8(&USB_SIE_EP1_CR0_PTR[i], USB_MODE_NAK_OUT);
 825              		.loc 1 460 0
 826 007a 12E0     		b	.L55
 827              	.L53:
 828 007c FA79     		ldrb	r2, [r7, #7]	@ zero_extendqisi2
 829 007e 46F20E03 		movw	r3, #:lower16:1073766414
 830 0082 C4F20003 		movt	r3, #:upper16:1073766414
 831 0086 1344     		add	r3, r2, r3
 832 0088 4FF00802 		mov	r2, #8
 833 008c 1A70     		strb	r2, [r3, #0]
 834 008e 08E0     		b	.L55
 835              	.L52:
 461:.\Generated_Source\PSoC5/USB_std.c ****                 /* Prepare EP type mask for automatic memory allocation */
 462:.\Generated_Source\PSoC5/USB_std.c ****                 #if(USB_EP_MM == USB__EP_DMAAUTO)
 463:.\Generated_Source\PSoC5/USB_std.c ****                     ep_type |= 0x01u << (ep - USB_EP1);
 464:.\Generated_Source\PSoC5/USB_std.c ****                 #endif /* End USB_EP_MM == USB__EP_DMAAUTO */
 465:.\Generated_Source\PSoC5/USB_std.c ****             }
 466:.\Generated_Source\PSoC5/USB_std.c ****         }
 467:.\Generated_Source\PSoC5/USB_std.c ****         else
 468:.\Generated_Source\PSoC5/USB_std.c ****         {
 469:.\Generated_Source\PSoC5/USB_std.c ****             CY_SET_REG8(&USB_SIE_EP1_CR0_PTR[i], USB_MODE_STALL_DATA_EP);
 836              		.loc 1 469 0
 837 0090 FA79     		ldrb	r2, [r7, #7]	@ zero_extendqisi2
 838 0092 46F20E03 		movw	r3, #:lower16:1073766414
ARM GAS  C:\Users\Craig\AppData\Local\Temp\cc9NnIsK.s 			page 24


 839 0096 C4F20003 		movt	r3, #:upper16:1073766414
 840 009a 1344     		add	r3, r2, r3
 841 009c 6FF07F02 		mvn	r2, #127
 842 00a0 1A70     		strb	r2, [r3, #0]
 843              	.L55:
 470:.\Generated_Source\PSoC5/USB_std.c ****         }
 471:.\Generated_Source\PSoC5/USB_std.c **** 
 472:.\Generated_Source\PSoC5/USB_std.c ****         #if(USB_EP_MM != USB__EP_DMAAUTO)
 473:.\Generated_Source\PSoC5/USB_std.c ****             CY_SET_REG8(&USB_SIE_EP1_CNT0_PTR[i],   USB_EP[ep].bufferSize >> 8u);
 844              		.loc 1 473 0
 845 00a2 FA79     		ldrb	r2, [r7, #7]	@ zero_extendqisi2
 846 00a4 46F20C03 		movw	r3, #:lower16:1073766412
 847 00a8 C4F20003 		movt	r3, #:upper16:1073766412
 848 00ac 1344     		add	r3, r2, r3
 849 00ae B879     		ldrb	r0, [r7, #6]	@ zero_extendqisi2
 850 00b0 40F20001 		movw	r1, #:lower16:USB_EP
 851 00b4 C0F20001 		movt	r1, #:upper16:USB_EP
 852 00b8 0246     		mov	r2, r0
 853 00ba 4FEA4202 		lsl	r2, r2, #1
 854 00be 0244     		add	r2, r2, r0
 855 00c0 4FEA8202 		lsl	r2, r2, #2
 856 00c4 0A44     		add	r2, r2, r1
 857 00c6 02F10802 		add	r2, r2, #8
 858 00ca 1288     		ldrh	r2, [r2, #0]	@ movhi
 859 00cc 92B2     		uxth	r2, r2
 860 00ce 4FEA1222 		lsr	r2, r2, #8
 861 00d2 92B2     		uxth	r2, r2
 862 00d4 D2B2     		uxtb	r2, r2
 863 00d6 1A70     		strb	r2, [r3, #0]
 474:.\Generated_Source\PSoC5/USB_std.c ****             CY_SET_REG8(&USB_SIE_EP1_CNT1_PTR[i],   USB_EP[ep].bufferSize & 0xFFu);
 864              		.loc 1 474 0
 865 00d8 FA79     		ldrb	r2, [r7, #7]	@ zero_extendqisi2
 866 00da 46F20D03 		movw	r3, #:lower16:1073766413
 867 00de C4F20003 		movt	r3, #:upper16:1073766413
 868 00e2 1344     		add	r3, r2, r3
 869 00e4 B879     		ldrb	r0, [r7, #6]	@ zero_extendqisi2
 870 00e6 40F20001 		movw	r1, #:lower16:USB_EP
 871 00ea C0F20001 		movt	r1, #:upper16:USB_EP
 872 00ee 0246     		mov	r2, r0
 873 00f0 4FEA4202 		lsl	r2, r2, #1
 874 00f4 0244     		add	r2, r2, r0
 875 00f6 4FEA8202 		lsl	r2, r2, #2
 876 00fa 0A44     		add	r2, r2, r1
 877 00fc 02F10802 		add	r2, r2, #8
 878 0100 1288     		ldrh	r2, [r2, #0]	@ movhi
 879 0102 92B2     		uxth	r2, r2
 880 0104 D2B2     		uxtb	r2, r2
 881 0106 1A70     		strb	r2, [r3, #0]
 475:.\Generated_Source\PSoC5/USB_std.c **** 
 476:.\Generated_Source\PSoC5/USB_std.c ****             CY_SET_REG8(&USB_ARB_RW1_RA_PTR[i],     USB_EP[ep].buffOffset & 0xFFu);
 882              		.loc 1 476 0
 883 0108 FA79     		ldrb	r2, [r7, #7]	@ zero_extendqisi2
 884 010a 46F28603 		movw	r3, #:lower16:1073766534
 885 010e C4F20003 		movt	r3, #:upper16:1073766534
 886 0112 1344     		add	r3, r2, r3
 887 0114 B879     		ldrb	r0, [r7, #6]	@ zero_extendqisi2
 888 0116 40F20001 		movw	r1, #:lower16:USB_EP
ARM GAS  C:\Users\Craig\AppData\Local\Temp\cc9NnIsK.s 			page 25


 889 011a C0F20001 		movt	r1, #:upper16:USB_EP
 890 011e 0246     		mov	r2, r0
 891 0120 4FEA4202 		lsl	r2, r2, #1
 892 0124 0244     		add	r2, r2, r0
 893 0126 4FEA8202 		lsl	r2, r2, #2
 894 012a 0A44     		add	r2, r2, r1
 895 012c 02F10602 		add	r2, r2, #6
 896 0130 1288     		ldrh	r2, [r2, #0]	@ movhi
 897 0132 92B2     		uxth	r2, r2
 898 0134 D2B2     		uxtb	r2, r2
 899 0136 1A70     		strb	r2, [r3, #0]
 477:.\Generated_Source\PSoC5/USB_std.c ****             CY_SET_REG8(&USB_ARB_RW1_RA_MSB_PTR[i], USB_EP[ep].buffOffset >> 8u);
 900              		.loc 1 477 0
 901 0138 FA79     		ldrb	r2, [r7, #7]	@ zero_extendqisi2
 902 013a 46F28703 		movw	r3, #:lower16:1073766535
 903 013e C4F20003 		movt	r3, #:upper16:1073766535
 904 0142 1344     		add	r3, r2, r3
 905 0144 B879     		ldrb	r0, [r7, #6]	@ zero_extendqisi2
 906 0146 40F20001 		movw	r1, #:lower16:USB_EP
 907 014a C0F20001 		movt	r1, #:upper16:USB_EP
 908 014e 0246     		mov	r2, r0
 909 0150 4FEA4202 		lsl	r2, r2, #1
 910 0154 0244     		add	r2, r2, r0
 911 0156 4FEA8202 		lsl	r2, r2, #2
 912 015a 0A44     		add	r2, r2, r1
 913 015c 02F10602 		add	r2, r2, #6
 914 0160 1288     		ldrh	r2, [r2, #0]	@ movhi
 915 0162 92B2     		uxth	r2, r2
 916 0164 4FEA1222 		lsr	r2, r2, #8
 917 0168 92B2     		uxth	r2, r2
 918 016a D2B2     		uxtb	r2, r2
 919 016c 1A70     		strb	r2, [r3, #0]
 478:.\Generated_Source\PSoC5/USB_std.c ****             CY_SET_REG8(&USB_ARB_RW1_WA_PTR[i],     USB_EP[ep].buffOffset & 0xFFu);
 920              		.loc 1 478 0
 921 016e FA79     		ldrb	r2, [r7, #7]	@ zero_extendqisi2
 922 0170 46F28403 		movw	r3, #:lower16:1073766532
 923 0174 C4F20003 		movt	r3, #:upper16:1073766532
 924 0178 1344     		add	r3, r2, r3
 925 017a B879     		ldrb	r0, [r7, #6]	@ zero_extendqisi2
 926 017c 40F20001 		movw	r1, #:lower16:USB_EP
 927 0180 C0F20001 		movt	r1, #:upper16:USB_EP
 928 0184 0246     		mov	r2, r0
 929 0186 4FEA4202 		lsl	r2, r2, #1
 930 018a 0244     		add	r2, r2, r0
 931 018c 4FEA8202 		lsl	r2, r2, #2
 932 0190 0A44     		add	r2, r2, r1
 933 0192 02F10602 		add	r2, r2, #6
 934 0196 1288     		ldrh	r2, [r2, #0]	@ movhi
 935 0198 92B2     		uxth	r2, r2
 936 019a D2B2     		uxtb	r2, r2
 937 019c 1A70     		strb	r2, [r3, #0]
 479:.\Generated_Source\PSoC5/USB_std.c ****             CY_SET_REG8(&USB_ARB_RW1_WA_MSB_PTR[i], USB_EP[ep].buffOffset >> 8u);
 938              		.loc 1 479 0
 939 019e FA79     		ldrb	r2, [r7, #7]	@ zero_extendqisi2
 940 01a0 46F28503 		movw	r3, #:lower16:1073766533
 941 01a4 C4F20003 		movt	r3, #:upper16:1073766533
 942 01a8 1344     		add	r3, r2, r3
ARM GAS  C:\Users\Craig\AppData\Local\Temp\cc9NnIsK.s 			page 26


 943 01aa B879     		ldrb	r0, [r7, #6]	@ zero_extendqisi2
 944 01ac 40F20001 		movw	r1, #:lower16:USB_EP
 945 01b0 C0F20001 		movt	r1, #:upper16:USB_EP
 946 01b4 0246     		mov	r2, r0
 947 01b6 4FEA4202 		lsl	r2, r2, #1
 948 01ba 0244     		add	r2, r2, r0
 949 01bc 4FEA8202 		lsl	r2, r2, #2
 950 01c0 0A44     		add	r2, r2, r1
 951 01c2 02F10602 		add	r2, r2, #6
 952 01c6 1288     		ldrh	r2, [r2, #0]	@ movhi
 953 01c8 92B2     		uxth	r2, r2
 954 01ca 4FEA1222 		lsr	r2, r2, #8
 955 01ce 92B2     		uxth	r2, r2
 956 01d0 D2B2     		uxtb	r2, r2
 957 01d2 1A70     		strb	r2, [r3, #0]
 480:.\Generated_Source\PSoC5/USB_std.c ****         #endif /* End USB_EP_MM != USB__EP_DMAAUTO */
 481:.\Generated_Source\PSoC5/USB_std.c **** 
 482:.\Generated_Source\PSoC5/USB_std.c ****         ep++;
 958              		.loc 1 482 0
 959 01d4 BB79     		ldrb	r3, [r7, #6]
 960 01d6 03F10103 		add	r3, r3, #1
 961 01da BB71     		strb	r3, [r7, #6]
 962              		.loc 1 442 0
 963 01dc FB79     		ldrb	r3, [r7, #7]
 964 01de 03F11003 		add	r3, r3, #16
 965 01e2 FB71     		strb	r3, [r7, #7]
 966              	.L51:
 967 01e4 FB79     		ldrb	r3, [r7, #7]	@ zero_extendqisi2
 968 01e6 5BB2     		sxtb	r3, r3
 969 01e8 002B     		cmp	r3, #0
 970 01ea BFF613AF 		bge	.L56
 483:.\Generated_Source\PSoC5/USB_std.c ****     }
 484:.\Generated_Source\PSoC5/USB_std.c **** 
 485:.\Generated_Source\PSoC5/USB_std.c ****     #if(USB_EP_MM == USB__EP_DMAAUTO)
 486:.\Generated_Source\PSoC5/USB_std.c ****          /* BUF_SIZE depend on DMA_THRESS value: 55-32 bytes  44-16 bytes 33-8 bytes 22-4 bytes 11-
 487:.\Generated_Source\PSoC5/USB_std.c ****         USB_BUF_SIZE_REG = USB_DMA_BUF_SIZE;
 488:.\Generated_Source\PSoC5/USB_std.c ****         USB_DMA_THRES_REG = USB_DMA_BYTES_PER_BURST;   /* DMA burst threshold */
 489:.\Generated_Source\PSoC5/USB_std.c ****         USB_DMA_THRES_MSB_REG = 0u;
 490:.\Generated_Source\PSoC5/USB_std.c ****         USB_EP_ACTIVE_REG = USB_ARB_INT_MASK;
 491:.\Generated_Source\PSoC5/USB_std.c ****         USB_EP_TYPE_REG = ep_type;
 492:.\Generated_Source\PSoC5/USB_std.c ****         /* Cfg_cmp bit set to 1 once configuration is complete. */
 493:.\Generated_Source\PSoC5/USB_std.c ****         USB_ARB_CFG_REG = USB_ARB_CFG_AUTO_DMA | USB_ARB_CFG_AUTO_MEM |
 494:.\Generated_Source\PSoC5/USB_std.c ****                                        USB_ARB_CFG_CFG_CPM;
 495:.\Generated_Source\PSoC5/USB_std.c ****         /* Cfg_cmp bit set to 0 during configuration of PFSUSB Registers. */
 496:.\Generated_Source\PSoC5/USB_std.c ****         USB_ARB_CFG_REG = USB_ARB_CFG_AUTO_DMA | USB_ARB_CFG_AUTO_MEM;
 497:.\Generated_Source\PSoC5/USB_std.c ****     #endif /* End USB_EP_MM == USB__EP_DMAAUTO */
 498:.\Generated_Source\PSoC5/USB_std.c **** 
 499:.\Generated_Source\PSoC5/USB_std.c ****     CY_SET_REG8(USB_SIE_EP_INT_EN_PTR, 0xFFu);
 971              		.loc 1 499 0
 972 01ee 46F20A03 		movw	r3, #:lower16:1073766410
 973 01f2 C4F20003 		movt	r3, #:upper16:1073766410
 974 01f6 4FF0FF32 		mov	r2, #-1
 975 01fa 1A70     		strb	r2, [r3, #0]
 500:.\Generated_Source\PSoC5/USB_std.c **** }
 976              		.loc 1 500 0
 977 01fc 07F10C07 		add	r7, r7, #12
 978 0200 BD46     		mov	sp, r7
ARM GAS  C:\Users\Craig\AppData\Local\Temp\cc9NnIsK.s 			page 27


 979 0202 80BC     		pop	{r7}
 980 0204 7047     		bx	lr
 981              		.cfi_endproc
 982              	.LFE2:
 983              		.size	USB_ConfigReg, .-USB_ConfigReg
 984 0206 00BF     		.section	.text.USB_Config,"ax",%progbits
 985              		.align	2
 986              		.global	USB_Config
 987              		.thumb
 988              		.thumb_func
 989              		.type	USB_Config, %function
 990              	USB_Config:
 991              	.LFB3:
 501:.\Generated_Source\PSoC5/USB_std.c **** 
 502:.\Generated_Source\PSoC5/USB_std.c **** 
 503:.\Generated_Source\PSoC5/USB_std.c **** /*******************************************************************************
 504:.\Generated_Source\PSoC5/USB_std.c **** * Function Name: USB_Config
 505:.\Generated_Source\PSoC5/USB_std.c **** ********************************************************************************
 506:.\Generated_Source\PSoC5/USB_std.c **** *
 507:.\Generated_Source\PSoC5/USB_std.c **** * Summary:
 508:.\Generated_Source\PSoC5/USB_std.c **** *  This routine configures endpoints for the entire configuration by scanning
 509:.\Generated_Source\PSoC5/USB_std.c **** *  the configuration descriptor.
 510:.\Generated_Source\PSoC5/USB_std.c **** *
 511:.\Generated_Source\PSoC5/USB_std.c **** * Parameters:
 512:.\Generated_Source\PSoC5/USB_std.c **** *  clearAltSetting: It configures the bAlternateSetting 0 for each interface.
 513:.\Generated_Source\PSoC5/USB_std.c **** *
 514:.\Generated_Source\PSoC5/USB_std.c **** * Return:
 515:.\Generated_Source\PSoC5/USB_std.c **** *  None.
 516:.\Generated_Source\PSoC5/USB_std.c **** *
 517:.\Generated_Source\PSoC5/USB_std.c **** * USB_interfaceClass - Initialized class array for each interface.
 518:.\Generated_Source\PSoC5/USB_std.c **** *   It is used for hangling Class specific requests depend on interface class.
 519:.\Generated_Source\PSoC5/USB_std.c **** *   Different classes in multiple Alternate settings does not supported.
 520:.\Generated_Source\PSoC5/USB_std.c **** *
 521:.\Generated_Source\PSoC5/USB_std.c **** * Reentrant:
 522:.\Generated_Source\PSoC5/USB_std.c **** *  No.
 523:.\Generated_Source\PSoC5/USB_std.c **** *
 524:.\Generated_Source\PSoC5/USB_std.c **** *******************************************************************************/
 525:.\Generated_Source\PSoC5/USB_std.c **** void USB_Config(uint8 clearAltSetting) 
 526:.\Generated_Source\PSoC5/USB_std.c **** {
 992              		.loc 1 526 0
 993              		.cfi_startproc
 994              		@ args = 0, pretend = 0, frame = 32
 995              		@ frame_needed = 1, uses_anonymous_args = 0
 996 0000 80B5     		push	{r7, lr}
 997              	.LCFI9:
 998              		.cfi_def_cfa_offset 8
 999 0002 88B0     		sub	sp, sp, #32
 1000              	.LCFI10:
 1001              		.cfi_def_cfa_offset 40
 1002 0004 00AF     		add	r7, sp, #0
 1003              		.cfi_offset 14, -4
 1004              		.cfi_offset 7, -8
 1005              	.LCFI11:
 1006              		.cfi_def_cfa_register 7
 1007 0006 0346     		mov	r3, r0
 1008 0008 FB71     		strb	r3, [r7, #7]
 527:.\Generated_Source\PSoC5/USB_std.c ****     uint8 ep;
ARM GAS  C:\Users\Craig\AppData\Local\Temp\cc9NnIsK.s 			page 28


 528:.\Generated_Source\PSoC5/USB_std.c ****     uint8 cur_ep;
 529:.\Generated_Source\PSoC5/USB_std.c ****     uint8 i;
 530:.\Generated_Source\PSoC5/USB_std.c ****     uint8 iso;
 531:.\Generated_Source\PSoC5/USB_std.c ****     uint8 *pDescr;
 532:.\Generated_Source\PSoC5/USB_std.c ****     #if(USB_EP_MM != USB__EP_DMAAUTO)
 533:.\Generated_Source\PSoC5/USB_std.c ****         uint16 count = 0u;
 1009              		.loc 1 533 0
 1010 000a 4FF00003 		mov	r3, #0
 1011 000e FB82     		strh	r3, [r7, #22]	@ movhi
 534:.\Generated_Source\PSoC5/USB_std.c ****     #endif /* End USB_EP_MM != USB__EP_DMAAUTO */
 535:.\Generated_Source\PSoC5/USB_std.c ****     
 536:.\Generated_Source\PSoC5/USB_std.c ****     T_USB_LUT *pTmp;
 537:.\Generated_Source\PSoC5/USB_std.c ****     T_USB_EP_SETTINGS_BLOCK *pEP;
 538:.\Generated_Source\PSoC5/USB_std.c **** 
 539:.\Generated_Source\PSoC5/USB_std.c ****     /* Clear all of the endpoints */
 540:.\Generated_Source\PSoC5/USB_std.c ****     for (ep = 0u; ep < USB_MAX_EP; ep++)
 1012              		.loc 1 540 0
 1013 0010 4FF00003 		mov	r3, #0
 1014 0014 3B73     		strb	r3, [r7, #12]
 1015 0016 70E0     		b	.L59
 1016              	.L60:
 541:.\Generated_Source\PSoC5/USB_std.c ****     {
 542:.\Generated_Source\PSoC5/USB_std.c ****         USB_EP[ep].attrib = 0u;
 1017              		.loc 1 542 0
 1018 0018 397B     		ldrb	r1, [r7, #12]	@ zero_extendqisi2
 1019 001a 40F20002 		movw	r2, #:lower16:USB_EP
 1020 001e C0F20002 		movt	r2, #:upper16:USB_EP
 1021 0022 0B46     		mov	r3, r1
 1022 0024 4FEA4303 		lsl	r3, r3, #1
 1023 0028 0B44     		add	r3, r3, r1
 1024 002a 4FEA8303 		lsl	r3, r3, #2
 1025 002e 1344     		add	r3, r3, r2
 1026 0030 4FF00002 		mov	r2, #0
 1027 0034 1A70     		strb	r2, [r3, #0]
 543:.\Generated_Source\PSoC5/USB_std.c ****         USB_EP[ep].hwEpState = 0u;
 1028              		.loc 1 543 0
 1029 0036 397B     		ldrb	r1, [r7, #12]	@ zero_extendqisi2
 1030 0038 40F20002 		movw	r2, #:lower16:USB_EP
 1031 003c C0F20002 		movt	r2, #:upper16:USB_EP
 1032 0040 0B46     		mov	r3, r1
 1033 0042 4FEA4303 		lsl	r3, r3, #1
 1034 0046 0B44     		add	r3, r3, r1
 1035 0048 4FEA8303 		lsl	r3, r3, #2
 1036 004c 1344     		add	r3, r3, r2
 1037 004e 4FF00002 		mov	r2, #0
 1038 0052 9A70     		strb	r2, [r3, #2]
 544:.\Generated_Source\PSoC5/USB_std.c ****         USB_EP[ep].apiEpState = USB_NO_EVENT_PENDING;
 1039              		.loc 1 544 0
 1040 0054 397B     		ldrb	r1, [r7, #12]	@ zero_extendqisi2
 1041 0056 40F20002 		movw	r2, #:lower16:USB_EP
 1042 005a C0F20002 		movt	r2, #:upper16:USB_EP
 1043 005e 0B46     		mov	r3, r1
 1044 0060 4FEA4303 		lsl	r3, r3, #1
 1045 0064 0B44     		add	r3, r3, r1
 1046 0066 4FEA8303 		lsl	r3, r3, #2
 1047 006a 1344     		add	r3, r3, r2
 1048 006c 4FF00002 		mov	r2, #0
ARM GAS  C:\Users\Craig\AppData\Local\Temp\cc9NnIsK.s 			page 29


 1049 0070 5A70     		strb	r2, [r3, #1]
 545:.\Generated_Source\PSoC5/USB_std.c ****         USB_EP[ep].epToggle = 0u;
 1050              		.loc 1 545 0
 1051 0072 397B     		ldrb	r1, [r7, #12]	@ zero_extendqisi2
 1052 0074 40F20002 		movw	r2, #:lower16:USB_EP
 1053 0078 C0F20002 		movt	r2, #:upper16:USB_EP
 1054 007c 0B46     		mov	r3, r1
 1055 007e 4FEA4303 		lsl	r3, r3, #1
 1056 0082 0B44     		add	r3, r3, r1
 1057 0084 4FEA8303 		lsl	r3, r3, #2
 1058 0088 1344     		add	r3, r3, r2
 1059 008a 4FF00002 		mov	r2, #0
 1060 008e DA70     		strb	r2, [r3, #3]
 546:.\Generated_Source\PSoC5/USB_std.c ****         USB_EP[ep].epMode = USB_MODE_DISABLE;
 1061              		.loc 1 546 0
 1062 0090 397B     		ldrb	r1, [r7, #12]	@ zero_extendqisi2
 1063 0092 40F20002 		movw	r2, #:lower16:USB_EP
 1064 0096 C0F20002 		movt	r2, #:upper16:USB_EP
 1065 009a 0B46     		mov	r3, r1
 1066 009c 4FEA4303 		lsl	r3, r3, #1
 1067 00a0 0B44     		add	r3, r3, r1
 1068 00a2 4FEA8303 		lsl	r3, r3, #2
 1069 00a6 1344     		add	r3, r3, r2
 1070 00a8 4FF00002 		mov	r2, #0
 1071 00ac 5A71     		strb	r2, [r3, #5]
 547:.\Generated_Source\PSoC5/USB_std.c ****         USB_EP[ep].bufferSize = 0u;
 1072              		.loc 1 547 0
 1073 00ae 397B     		ldrb	r1, [r7, #12]	@ zero_extendqisi2
 1074 00b0 40F20002 		movw	r2, #:lower16:USB_EP
 1075 00b4 C0F20002 		movt	r2, #:upper16:USB_EP
 1076 00b8 0B46     		mov	r3, r1
 1077 00ba 4FEA4303 		lsl	r3, r3, #1
 1078 00be 0B44     		add	r3, r3, r1
 1079 00c0 4FEA8303 		lsl	r3, r3, #2
 1080 00c4 1344     		add	r3, r3, r2
 1081 00c6 03F10803 		add	r3, r3, #8
 1082 00ca 4FF00002 		mov	r2, #0
 1083 00ce 1A80     		strh	r2, [r3, #0]	@ movhi
 548:.\Generated_Source\PSoC5/USB_std.c ****         USB_EP[ep].interface = 0u;
 1084              		.loc 1 548 0
 1085 00d0 397B     		ldrb	r1, [r7, #12]	@ zero_extendqisi2
 1086 00d2 40F20002 		movw	r2, #:lower16:USB_EP
 1087 00d6 C0F20002 		movt	r2, #:upper16:USB_EP
 1088 00da 0B46     		mov	r3, r1
 1089 00dc 4FEA4303 		lsl	r3, r3, #1
 1090 00e0 0B44     		add	r3, r3, r1
 1091 00e2 4FEA8303 		lsl	r3, r3, #2
 1092 00e6 1344     		add	r3, r3, r2
 1093 00e8 03F10803 		add	r3, r3, #8
 1094 00ec 4FF00002 		mov	r2, #0
 1095 00f0 9A70     		strb	r2, [r3, #2]
 1096              		.loc 1 540 0
 1097 00f2 3B7B     		ldrb	r3, [r7, #12]
 1098 00f4 03F10103 		add	r3, r3, #1
 1099 00f8 3B73     		strb	r3, [r7, #12]
 1100              	.L59:
 1101 00fa 3B7B     		ldrb	r3, [r7, #12]	@ zero_extendqisi2
ARM GAS  C:\Users\Craig\AppData\Local\Temp\cc9NnIsK.s 			page 30


 1102 00fc 082B     		cmp	r3, #8
 1103 00fe 8BD9     		bls	.L60
 549:.\Generated_Source\PSoC5/USB_std.c **** 
 550:.\Generated_Source\PSoC5/USB_std.c ****     }
 551:.\Generated_Source\PSoC5/USB_std.c **** 
 552:.\Generated_Source\PSoC5/USB_std.c ****     /* Clear Alternate settings for all interfaces */
 553:.\Generated_Source\PSoC5/USB_std.c ****     if(clearAltSetting != 0u)
 1104              		.loc 1 553 0
 1105 0100 FB79     		ldrb	r3, [r7, #7]	@ zero_extendqisi2
 1106 0102 002B     		cmp	r3, #0
 1107 0104 1AD0     		beq	.L61
 554:.\Generated_Source\PSoC5/USB_std.c ****     {
 555:.\Generated_Source\PSoC5/USB_std.c ****         for (i = 0u; i < USB_MAX_INTERFACES_NUMBER; i++)
 1108              		.loc 1 555 0
 1109 0106 4FF00003 		mov	r3, #0
 1110 010a BB73     		strb	r3, [r7, #14]
 1111 010c 13E0     		b	.L62
 1112              	.L63:
 556:.\Generated_Source\PSoC5/USB_std.c ****         {
 557:.\Generated_Source\PSoC5/USB_std.c ****             USB_interfaceSetting[i] = 0x00u;
 1113              		.loc 1 557 0
 1114 010e BA7B     		ldrb	r2, [r7, #14]	@ zero_extendqisi2
 1115 0110 40F20003 		movw	r3, #:lower16:USB_interfaceSetting
 1116 0114 C0F20003 		movt	r3, #:upper16:USB_interfaceSetting
 1117 0118 4FF00001 		mov	r1, #0
 1118 011c 9954     		strb	r1, [r3, r2]
 558:.\Generated_Source\PSoC5/USB_std.c ****             USB_interfaceSetting_last[i] = 0x00u;
 1119              		.loc 1 558 0
 1120 011e BA7B     		ldrb	r2, [r7, #14]	@ zero_extendqisi2
 1121 0120 40F20003 		movw	r3, #:lower16:USB_interfaceSetting_last
 1122 0124 C0F20003 		movt	r3, #:upper16:USB_interfaceSetting_last
 1123 0128 4FF00001 		mov	r1, #0
 1124 012c 9954     		strb	r1, [r3, r2]
 1125              		.loc 1 555 0
 1126 012e BB7B     		ldrb	r3, [r7, #14]
 1127 0130 03F10103 		add	r3, r3, #1
 1128 0134 BB73     		strb	r3, [r7, #14]
 1129              	.L62:
 1130 0136 BB7B     		ldrb	r3, [r7, #14]	@ zero_extendqisi2
 1131 0138 002B     		cmp	r3, #0
 1132 013a E8D0     		beq	.L63
 1133              	.L61:
 559:.\Generated_Source\PSoC5/USB_std.c ****         }
 560:.\Generated_Source\PSoC5/USB_std.c ****     }
 561:.\Generated_Source\PSoC5/USB_std.c **** 
 562:.\Generated_Source\PSoC5/USB_std.c ****     /* Init Endpoints and Device Status if configured */
 563:.\Generated_Source\PSoC5/USB_std.c ****     if(USB_configuration > 0u)
 1134              		.loc 1 563 0
 1135 013c 40F20003 		movw	r3, #:lower16:USB_configuration
 1136 0140 C0F20003 		movt	r3, #:upper16:USB_configuration
 1137 0144 1B78     		ldrb	r3, [r3, #0]
 1138 0146 DBB2     		uxtb	r3, r3
 1139 0148 002B     		cmp	r3, #0
 1140 014a 00F07181 		beq	.L83
 564:.\Generated_Source\PSoC5/USB_std.c ****     {
 565:.\Generated_Source\PSoC5/USB_std.c ****         pTmp = USB_GetConfigTablePtr(USB_configuration - 1u);
 1141              		.loc 1 565 0
ARM GAS  C:\Users\Craig\AppData\Local\Temp\cc9NnIsK.s 			page 31


 1142 014e 40F20003 		movw	r3, #:lower16:USB_configuration
 1143 0152 C0F20003 		movt	r3, #:upper16:USB_configuration
 1144 0156 1B78     		ldrb	r3, [r3, #0]
 1145 0158 DBB2     		uxtb	r3, r3
 1146 015a 03F1FF33 		add	r3, r3, #-1
 1147 015e DBB2     		uxtb	r3, r3
 1148 0160 1846     		mov	r0, r3
 1149 0162 FFF7FEFF 		bl	USB_GetConfigTablePtr
 1150 0166 0346     		mov	r3, r0
 1151 0168 BB61     		str	r3, [r7, #24]
 566:.\Generated_Source\PSoC5/USB_std.c ****         /* Set Power status for current configuration */
 567:.\Generated_Source\PSoC5/USB_std.c ****         pDescr = (uint8 *)pTmp->p_list;
 1152              		.loc 1 567 0
 1153 016a BB69     		ldr	r3, [r7, #24]
 1154 016c 5B68     		ldr	r3, [r3, #4]
 1155 016e 3B61     		str	r3, [r7, #16]
 568:.\Generated_Source\PSoC5/USB_std.c ****         if((pDescr[USB_CONFIG_DESCR_ATTRIB] & USB_CONFIG_DESCR_ATTRIB_SELF_POWERED) != 0u)
 1156              		.loc 1 568 0
 1157 0170 3B69     		ldr	r3, [r7, #16]
 1158 0172 03F10703 		add	r3, r3, #7
 1159 0176 1B78     		ldrb	r3, [r3, #0]	@ zero_extendqisi2
 1160 0178 03F04003 		and	r3, r3, #64
 1161 017c 002B     		cmp	r3, #0
 1162 017e 0ED0     		beq	.L65
 569:.\Generated_Source\PSoC5/USB_std.c ****         {
 570:.\Generated_Source\PSoC5/USB_std.c ****             USB_deviceStatus |=  USB_DEVICE_STATUS_SELF_POWERED;
 1163              		.loc 1 570 0
 1164 0180 40F20003 		movw	r3, #:lower16:USB_deviceStatus
 1165 0184 C0F20003 		movt	r3, #:upper16:USB_deviceStatus
 1166 0188 1B78     		ldrb	r3, [r3, #0]
 1167 018a DBB2     		uxtb	r3, r3
 1168 018c 43F00103 		orr	r3, r3, #1
 1169 0190 DAB2     		uxtb	r2, r3
 1170 0192 40F20003 		movw	r3, #:lower16:USB_deviceStatus
 1171 0196 C0F20003 		movt	r3, #:upper16:USB_deviceStatus
 1172 019a 1A70     		strb	r2, [r3, #0]
 1173 019c 0DE0     		b	.L66
 1174              	.L65:
 571:.\Generated_Source\PSoC5/USB_std.c ****         }
 572:.\Generated_Source\PSoC5/USB_std.c ****         else
 573:.\Generated_Source\PSoC5/USB_std.c ****         {
 574:.\Generated_Source\PSoC5/USB_std.c ****             USB_deviceStatus &=  ~USB_DEVICE_STATUS_SELF_POWERED;
 1175              		.loc 1 574 0
 1176 019e 40F20003 		movw	r3, #:lower16:USB_deviceStatus
 1177 01a2 C0F20003 		movt	r3, #:upper16:USB_deviceStatus
 1178 01a6 1B78     		ldrb	r3, [r3, #0]
 1179 01a8 DBB2     		uxtb	r3, r3
 1180 01aa 1A46     		mov	r2, r3
 1181 01ac 02F0FE02 		and	r2, r2, #254
 1182 01b0 40F20003 		movw	r3, #:lower16:USB_deviceStatus
 1183 01b4 C0F20003 		movt	r3, #:upper16:USB_deviceStatus
 1184 01b8 1A70     		strb	r2, [r3, #0]
 1185              	.L66:
 575:.\Generated_Source\PSoC5/USB_std.c ****         }
 576:.\Generated_Source\PSoC5/USB_std.c ****         pTmp++;
 1186              		.loc 1 576 0
 1187 01ba BB69     		ldr	r3, [r7, #24]
ARM GAS  C:\Users\Craig\AppData\Local\Temp\cc9NnIsK.s 			page 32


 1188 01bc 03F10803 		add	r3, r3, #8
 1189 01c0 BB61     		str	r3, [r7, #24]
 577:.\Generated_Source\PSoC5/USB_std.c ****         ep = pTmp->c;  /* For this table, c is the number of endpoints configurations  */
 1190              		.loc 1 577 0
 1191 01c2 BB69     		ldr	r3, [r7, #24]
 1192 01c4 1B78     		ldrb	r3, [r3, #0]
 1193 01c6 3B73     		strb	r3, [r7, #12]
 578:.\Generated_Source\PSoC5/USB_std.c **** 
 579:.\Generated_Source\PSoC5/USB_std.c ****         #if ((USB_EP_MA == USB__MA_DYNAMIC) && \
 580:.\Generated_Source\PSoC5/USB_std.c ****              (USB_EP_MM == USB__EP_MANUAL) )
 581:.\Generated_Source\PSoC5/USB_std.c ****             /* Config for dynamic EP memory allocation */
 582:.\Generated_Source\PSoC5/USB_std.c ****             /* p_list points the endpoint setting table. */
 583:.\Generated_Source\PSoC5/USB_std.c ****             pEP = (T_USB_EP_SETTINGS_BLOCK *) pTmp->p_list;
 584:.\Generated_Source\PSoC5/USB_std.c ****             for (i = 0u; i < ep; i++, pEP++)
 585:.\Generated_Source\PSoC5/USB_std.c ****             {
 586:.\Generated_Source\PSoC5/USB_std.c ****                 /* compate current Alternate setting with EP Alt*/
 587:.\Generated_Source\PSoC5/USB_std.c ****                 if(USB_interfaceSetting[pEP->interface] == pEP->altSetting)
 588:.\Generated_Source\PSoC5/USB_std.c ****                 {
 589:.\Generated_Source\PSoC5/USB_std.c ****                     cur_ep = pEP->addr & USB_DIR_UNUSED;
 590:.\Generated_Source\PSoC5/USB_std.c ****                     iso  = ((pEP->attributes & USB_EP_TYPE_MASK) == USB_EP_TYPE_ISOC);
 591:.\Generated_Source\PSoC5/USB_std.c ****                     if (pEP->addr & USB_DIR_IN)
 592:.\Generated_Source\PSoC5/USB_std.c ****                     {
 593:.\Generated_Source\PSoC5/USB_std.c ****                         /* IN Endpoint */
 594:.\Generated_Source\PSoC5/USB_std.c ****                         USB_EP[cur_ep].apiEpState = USB_EVENT_PENDING;
 595:.\Generated_Source\PSoC5/USB_std.c ****                         USB_EP[cur_ep].epMode = \
 596:.\Generated_Source\PSoC5/USB_std.c ****                                                 (iso ? USB_MODE_ISO_IN : USB_MODE_ACK_IN);
 597:.\Generated_Source\PSoC5/USB_std.c ****                         #if defined(USB_ENABLE_CDC_CLASS)
 598:.\Generated_Source\PSoC5/USB_std.c ****                             if(((pEP->bMisc == USB_CLASS_CDC_DATA) ||
 599:.\Generated_Source\PSoC5/USB_std.c ****                                 (pEP->bMisc == USB_CLASS_CDC)) &&
 600:.\Generated_Source\PSoC5/USB_std.c ****                                 ((pEP->attributes & USB_EP_TYPE_MASK) != USB_EP_TYPE_INT))
 601:.\Generated_Source\PSoC5/USB_std.c ****                             {
 602:.\Generated_Source\PSoC5/USB_std.c ****                                 USB_cdc_data_in_ep = cur_ep;
 603:.\Generated_Source\PSoC5/USB_std.c ****                             }
 604:.\Generated_Source\PSoC5/USB_std.c ****                         #endif  /* End USB_ENABLE_CDC_CLASS*/
 605:.\Generated_Source\PSoC5/USB_std.c ****                         #if defined(USB_ENABLE_MIDI_STREAMING)
 606:.\Generated_Source\PSoC5/USB_std.c ****                             if((pEP->bMisc == USB_CLASS_AUDIO) &&
 607:.\Generated_Source\PSoC5/USB_std.c ****                                ((pEP->attributes & USB_EP_TYPE_MASK) == USB_EP_TYPE_BULK))
 608:.\Generated_Source\PSoC5/USB_std.c ****                             {
 609:.\Generated_Source\PSoC5/USB_std.c ****                                 USB_midi_in_ep = cur_ep;
 610:.\Generated_Source\PSoC5/USB_std.c ****                             }
 611:.\Generated_Source\PSoC5/USB_std.c ****                         #endif  /* End USB_ENABLE_MIDI_STREAMING*/
 612:.\Generated_Source\PSoC5/USB_std.c ****                     }
 613:.\Generated_Source\PSoC5/USB_std.c ****                     else
 614:.\Generated_Source\PSoC5/USB_std.c ****                     {
 615:.\Generated_Source\PSoC5/USB_std.c ****                         /* OUT Endpoint */
 616:.\Generated_Source\PSoC5/USB_std.c ****                         USB_EP[cur_ep].apiEpState = USB_NO_EVENT_PENDING;
 617:.\Generated_Source\PSoC5/USB_std.c ****                         USB_EP[cur_ep].epMode = \
 618:.\Generated_Source\PSoC5/USB_std.c ****                                                 (iso ? USB_MODE_ISO_OUT : USB_MODE_ACK_OUT);
 619:.\Generated_Source\PSoC5/USB_std.c ****                         #if defined(USB_ENABLE_CDC_CLASS)
 620:.\Generated_Source\PSoC5/USB_std.c ****                             if(((pEP->bMisc == USB_CLASS_CDC_DATA) ||
 621:.\Generated_Source\PSoC5/USB_std.c ****                                 (pEP->bMisc == USB_CLASS_CDC)) &&
 622:.\Generated_Source\PSoC5/USB_std.c ****                                 ((pEP->attributes & USB_EP_TYPE_MASK) != USB_EP_TYPE_INT))
 623:.\Generated_Source\PSoC5/USB_std.c ****                             {
 624:.\Generated_Source\PSoC5/USB_std.c ****                                 USB_cdc_data_out_ep = cur_ep;
 625:.\Generated_Source\PSoC5/USB_std.c ****                             }
 626:.\Generated_Source\PSoC5/USB_std.c ****                         #endif  /* End USB_ENABLE_CDC_CLASS*/
 627:.\Generated_Source\PSoC5/USB_std.c ****                         #if defined(USB_ENABLE_MIDI_STREAMING)
ARM GAS  C:\Users\Craig\AppData\Local\Temp\cc9NnIsK.s 			page 33


 628:.\Generated_Source\PSoC5/USB_std.c ****                             if((pEP->bMisc == USB_CLASS_AUDIO) &&
 629:.\Generated_Source\PSoC5/USB_std.c ****                                ((pEP->attributes & USB_EP_TYPE_MASK) == USB_EP_TYPE_BULK))
 630:.\Generated_Source\PSoC5/USB_std.c ****                             {
 631:.\Generated_Source\PSoC5/USB_std.c ****                                 USB_midi_out_ep = cur_ep;
 632:.\Generated_Source\PSoC5/USB_std.c ****                             }
 633:.\Generated_Source\PSoC5/USB_std.c ****                         #endif  /* End USB_ENABLE_MIDI_STREAMING*/
 634:.\Generated_Source\PSoC5/USB_std.c ****                     }
 635:.\Generated_Source\PSoC5/USB_std.c ****                     USB_EP[cur_ep].bufferSize = pEP->bufferSize;
 636:.\Generated_Source\PSoC5/USB_std.c ****                     USB_EP[cur_ep].addr = pEP->addr;
 637:.\Generated_Source\PSoC5/USB_std.c ****                     USB_EP[cur_ep].attrib = pEP->attributes;
 638:.\Generated_Source\PSoC5/USB_std.c ****                 }
 639:.\Generated_Source\PSoC5/USB_std.c ****             }
 640:.\Generated_Source\PSoC5/USB_std.c ****         #else /* Config for static EP memory allocation  */
 641:.\Generated_Source\PSoC5/USB_std.c ****             for (i = USB_EP1; i < USB_MAX_EP; i++)
 1194              		.loc 1 641 0
 1195 01c8 4FF00103 		mov	r3, #1
 1196 01cc BB73     		strb	r3, [r7, #14]
 1197 01ce CBE0     		b	.L67
 1198              	.L78:
 642:.\Generated_Source\PSoC5/USB_std.c ****             {
 643:.\Generated_Source\PSoC5/USB_std.c ****                 /* and p_list points the endpoint setting table. */
 644:.\Generated_Source\PSoC5/USB_std.c ****                 pEP = (T_USB_EP_SETTINGS_BLOCK *) pTmp->p_list;
 1199              		.loc 1 644 0
 1200 01d0 BB69     		ldr	r3, [r7, #24]
 1201 01d2 5B68     		ldr	r3, [r3, #4]
 1202 01d4 FB61     		str	r3, [r7, #28]
 645:.\Generated_Source\PSoC5/USB_std.c ****                 /* find max length for each EP and select it (length could be different in differen
 646:.\Generated_Source\PSoC5/USB_std.c ****                 /* but other settings should be correct with regards to Interface alt Setting */
 647:.\Generated_Source\PSoC5/USB_std.c ****                 for (cur_ep = 0u; cur_ep < ep; cur_ep++, pEP++)
 1203              		.loc 1 647 0
 1204 01d6 4FF00003 		mov	r3, #0
 1205 01da 7B73     		strb	r3, [r7, #13]
 1206 01dc BBE0     		b	.L68
 1207              	.L77:
 648:.\Generated_Source\PSoC5/USB_std.c ****                 {
 649:.\Generated_Source\PSoC5/USB_std.c ****                     /* EP count is equal to EP # in table and we found larger EP length than have b
 650:.\Generated_Source\PSoC5/USB_std.c ****                     if(i == (pEP->addr & USB_DIR_UNUSED))
 1208              		.loc 1 650 0
 1209 01de BA7B     		ldrb	r2, [r7, #14]	@ zero_extendqisi2
 1210 01e0 FB69     		ldr	r3, [r7, #28]
 1211 01e2 9B78     		ldrb	r3, [r3, #2]	@ zero_extendqisi2
 1212 01e4 03F07F03 		and	r3, r3, #127
 1213 01e8 9A42     		cmp	r2, r3
 1214 01ea 40F0AC80 		bne	.L69
 651:.\Generated_Source\PSoC5/USB_std.c ****                     {
 652:.\Generated_Source\PSoC5/USB_std.c ****                         if(USB_EP[i].bufferSize < pEP->bufferSize)
 1215              		.loc 1 652 0
 1216 01ee B97B     		ldrb	r1, [r7, #14]	@ zero_extendqisi2
 1217 01f0 40F20002 		movw	r2, #:lower16:USB_EP
 1218 01f4 C0F20002 		movt	r2, #:upper16:USB_EP
 1219 01f8 0B46     		mov	r3, r1
 1220 01fa 4FEA4303 		lsl	r3, r3, #1
 1221 01fe 0B44     		add	r3, r3, r1
 1222 0200 4FEA8303 		lsl	r3, r3, #2
 1223 0204 1344     		add	r3, r3, r2
 1224 0206 03F10803 		add	r3, r3, #8
 1225 020a 1B88     		ldrh	r3, [r3, #0]	@ movhi
ARM GAS  C:\Users\Craig\AppData\Local\Temp\cc9NnIsK.s 			page 34


 1226 020c 9AB2     		uxth	r2, r3
 1227 020e FB69     		ldr	r3, [r7, #28]
 1228 0210 9B88     		ldrh	r3, [r3, #4]
 1229 0212 9A42     		cmp	r2, r3
 1230 0214 11D2     		bcs	.L70
 653:.\Generated_Source\PSoC5/USB_std.c ****                         {
 654:.\Generated_Source\PSoC5/USB_std.c ****                             USB_EP[i].bufferSize = pEP->bufferSize;
 1231              		.loc 1 654 0
 1232 0216 B97B     		ldrb	r1, [r7, #14]	@ zero_extendqisi2
 1233 0218 FB69     		ldr	r3, [r7, #28]
 1234 021a 9888     		ldrh	r0, [r3, #4]
 1235 021c 40F20002 		movw	r2, #:lower16:USB_EP
 1236 0220 C0F20002 		movt	r2, #:upper16:USB_EP
 1237 0224 0B46     		mov	r3, r1
 1238 0226 4FEA4303 		lsl	r3, r3, #1
 1239 022a 0B44     		add	r3, r3, r1
 1240 022c 4FEA8303 		lsl	r3, r3, #2
 1241 0230 1344     		add	r3, r3, r2
 1242 0232 03F10803 		add	r3, r3, #8
 1243 0236 0246     		mov	r2, r0	@ movhi
 1244 0238 1A80     		strh	r2, [r3, #0]	@ movhi
 1245              	.L70:
 655:.\Generated_Source\PSoC5/USB_std.c ****                         }
 656:.\Generated_Source\PSoC5/USB_std.c ****                         /* compate current Alternate setting with EP Alt*/
 657:.\Generated_Source\PSoC5/USB_std.c ****                         if(USB_interfaceSetting[pEP->interface] == pEP->altSetting)
 1246              		.loc 1 657 0
 1247 023a FB69     		ldr	r3, [r7, #28]
 1248 023c 1B78     		ldrb	r3, [r3, #0]	@ zero_extendqisi2
 1249 023e 1A46     		mov	r2, r3
 1250 0240 40F20003 		movw	r3, #:lower16:USB_interfaceSetting
 1251 0244 C0F20003 		movt	r3, #:upper16:USB_interfaceSetting
 1252 0248 9B5C     		ldrb	r3, [r3, r2]
 1253 024a DAB2     		uxtb	r2, r3
 1254 024c FB69     		ldr	r3, [r7, #28]
 1255 024e 5B78     		ldrb	r3, [r3, #1]	@ zero_extendqisi2
 1256 0250 9A42     		cmp	r2, r3
 1257 0252 78D1     		bne	.L69
 658:.\Generated_Source\PSoC5/USB_std.c ****                         {
 659:.\Generated_Source\PSoC5/USB_std.c ****                             iso  = ((pEP->attributes & USB_EP_TYPE_MASK) == USB_EP_TYPE_ISOC);
 1258              		.loc 1 659 0
 1259 0254 FB69     		ldr	r3, [r7, #28]
 1260 0256 DB78     		ldrb	r3, [r3, #3]	@ zero_extendqisi2
 1261 0258 03F00303 		and	r3, r3, #3
 1262 025c 012B     		cmp	r3, #1
 1263 025e 14BF     		ite	ne
 1264 0260 0023     		movne	r3, #0
 1265 0262 0123     		moveq	r3, #1
 1266 0264 FB73     		strb	r3, [r7, #15]
 660:.\Generated_Source\PSoC5/USB_std.c ****                             if (pEP->addr & USB_DIR_IN)
 1267              		.loc 1 660 0
 1268 0266 FB69     		ldr	r3, [r7, #28]
 1269 0268 9B78     		ldrb	r3, [r3, #2]	@ zero_extendqisi2
 1270 026a 5BB2     		sxtb	r3, r3
 1271 026c 002B     		cmp	r3, #0
 1272 026e 25DA     		bge	.L71
 661:.\Generated_Source\PSoC5/USB_std.c ****                             {
 662:.\Generated_Source\PSoC5/USB_std.c ****                                 /* IN Endpoint */
ARM GAS  C:\Users\Craig\AppData\Local\Temp\cc9NnIsK.s 			page 35


 663:.\Generated_Source\PSoC5/USB_std.c ****                                 USB_EP[i].apiEpState = USB_EVENT_PENDING;
 1273              		.loc 1 663 0
 1274 0270 B97B     		ldrb	r1, [r7, #14]	@ zero_extendqisi2
 1275 0272 40F20002 		movw	r2, #:lower16:USB_EP
 1276 0276 C0F20002 		movt	r2, #:upper16:USB_EP
 1277 027a 0B46     		mov	r3, r1
 1278 027c 4FEA4303 		lsl	r3, r3, #1
 1279 0280 0B44     		add	r3, r3, r1
 1280 0282 4FEA8303 		lsl	r3, r3, #2
 1281 0286 1344     		add	r3, r3, r2
 1282 0288 4FF00102 		mov	r2, #1
 1283 028c 5A70     		strb	r2, [r3, #1]
 664:.\Generated_Source\PSoC5/USB_std.c ****                                 USB_EP[i].epMode =
 1284              		.loc 1 664 0
 1285 028e B87B     		ldrb	r0, [r7, #14]	@ zero_extendqisi2
 1286 0290 FB7B     		ldrb	r3, [r7, #15]	@ zero_extendqisi2
 1287 0292 002B     		cmp	r3, #0
 1288 0294 02D0     		beq	.L72
 1289 0296 4FF00701 		mov	r1, #7
 1290 029a 01E0     		b	.L73
 1291              	.L72:
 1292 029c 4FF00D01 		mov	r1, #13
 1293              	.L73:
 1294 02a0 40F20002 		movw	r2, #:lower16:USB_EP
 1295 02a4 C0F20002 		movt	r2, #:upper16:USB_EP
 1296 02a8 0346     		mov	r3, r0
 1297 02aa 4FEA4303 		lsl	r3, r3, #1
 1298 02ae 0344     		add	r3, r3, r0
 1299 02b0 4FEA8303 		lsl	r3, r3, #2
 1300 02b4 1344     		add	r3, r3, r2
 1301 02b6 0A46     		mov	r2, r1
 1302 02b8 5A71     		strb	r2, [r3, #5]
 1303 02ba 24E0     		b	.L74
 1304              	.L71:
 665:.\Generated_Source\PSoC5/USB_std.c ****                                                     (iso ? USB_MODE_ISO_IN : USB_MODE_ACK_IN);
 666:.\Generated_Source\PSoC5/USB_std.c ****                                 /* Find and init CDC IN endpoint number */
 667:.\Generated_Source\PSoC5/USB_std.c ****                                 #if defined(USB_ENABLE_CDC_CLASS)
 668:.\Generated_Source\PSoC5/USB_std.c ****                                     if(((pEP->bMisc == USB_CLASS_CDC_DATA) ||
 669:.\Generated_Source\PSoC5/USB_std.c ****                                         (pEP->bMisc == USB_CLASS_CDC)) &&
 670:.\Generated_Source\PSoC5/USB_std.c ****                                         ((pEP->attributes & USB_EP_TYPE_MASK) !=
 671:.\Generated_Source\PSoC5/USB_std.c ****                                                                                         USB_EP_TYPE
 672:.\Generated_Source\PSoC5/USB_std.c ****                                     {
 673:.\Generated_Source\PSoC5/USB_std.c ****                                         USB_cdc_data_in_ep = i;
 674:.\Generated_Source\PSoC5/USB_std.c ****                                     }
 675:.\Generated_Source\PSoC5/USB_std.c ****                                 #endif  /* End USB_ENABLE_CDC_CLASS*/
 676:.\Generated_Source\PSoC5/USB_std.c ****                                 #if defined(USB_ENABLE_MIDI_STREAMING)
 677:.\Generated_Source\PSoC5/USB_std.c ****                                     if((pEP->bMisc == USB_CLASS_AUDIO) &&
 678:.\Generated_Source\PSoC5/USB_std.c ****                                        ((pEP->attributes & USB_EP_TYPE_MASK) ==
 679:.\Generated_Source\PSoC5/USB_std.c ****                                                                                         USB_EP_TYPE
 680:.\Generated_Source\PSoC5/USB_std.c ****                                     {
 681:.\Generated_Source\PSoC5/USB_std.c ****                                         USB_midi_in_ep = i;
 682:.\Generated_Source\PSoC5/USB_std.c ****                                     }
 683:.\Generated_Source\PSoC5/USB_std.c ****                                 #endif  /* End USB_ENABLE_MIDI_STREAMING*/
 684:.\Generated_Source\PSoC5/USB_std.c ****                             }
 685:.\Generated_Source\PSoC5/USB_std.c ****                             else
 686:.\Generated_Source\PSoC5/USB_std.c ****                             {
 687:.\Generated_Source\PSoC5/USB_std.c ****                                 /* OUT Endpoint */
ARM GAS  C:\Users\Craig\AppData\Local\Temp\cc9NnIsK.s 			page 36


 688:.\Generated_Source\PSoC5/USB_std.c ****                                 USB_EP[i].apiEpState = USB_NO_EVENT_PENDING;
 1305              		.loc 1 688 0
 1306 02bc B97B     		ldrb	r1, [r7, #14]	@ zero_extendqisi2
 1307 02be 40F20002 		movw	r2, #:lower16:USB_EP
 1308 02c2 C0F20002 		movt	r2, #:upper16:USB_EP
 1309 02c6 0B46     		mov	r3, r1
 1310 02c8 4FEA4303 		lsl	r3, r3, #1
 1311 02cc 0B44     		add	r3, r3, r1
 1312 02ce 4FEA8303 		lsl	r3, r3, #2
 1313 02d2 1344     		add	r3, r3, r2
 1314 02d4 4FF00002 		mov	r2, #0
 1315 02d8 5A70     		strb	r2, [r3, #1]
 689:.\Generated_Source\PSoC5/USB_std.c ****                                 USB_EP[i].epMode =
 1316              		.loc 1 689 0
 1317 02da B87B     		ldrb	r0, [r7, #14]	@ zero_extendqisi2
 1318 02dc FB7B     		ldrb	r3, [r7, #15]	@ zero_extendqisi2
 1319 02de 002B     		cmp	r3, #0
 1320 02e0 02D0     		beq	.L75
 1321 02e2 4FF00501 		mov	r1, #5
 1322 02e6 01E0     		b	.L76
 1323              	.L75:
 1324 02e8 4FF00901 		mov	r1, #9
 1325              	.L76:
 1326 02ec 40F20002 		movw	r2, #:lower16:USB_EP
 1327 02f0 C0F20002 		movt	r2, #:upper16:USB_EP
 1328 02f4 0346     		mov	r3, r0
 1329 02f6 4FEA4303 		lsl	r3, r3, #1
 1330 02fa 0344     		add	r3, r3, r0
 1331 02fc 4FEA8303 		lsl	r3, r3, #2
 1332 0300 1344     		add	r3, r3, r2
 1333 0302 0A46     		mov	r2, r1
 1334 0304 5A71     		strb	r2, [r3, #5]
 1335              	.L74:
 690:.\Generated_Source\PSoC5/USB_std.c ****                                                 (iso ? USB_MODE_ISO_OUT : USB_MODE_ACK_OUT);
 691:.\Generated_Source\PSoC5/USB_std.c ****                                 /* Find and init CDC IN endpoint number */
 692:.\Generated_Source\PSoC5/USB_std.c ****                                 #if defined(USB_ENABLE_CDC_CLASS)
 693:.\Generated_Source\PSoC5/USB_std.c ****                                     if(((pEP->bMisc == USB_CLASS_CDC_DATA) ||
 694:.\Generated_Source\PSoC5/USB_std.c ****                                         (pEP->bMisc == USB_CLASS_CDC)) &&
 695:.\Generated_Source\PSoC5/USB_std.c ****                                         ((pEP->attributes & USB_EP_TYPE_MASK) !=
 696:.\Generated_Source\PSoC5/USB_std.c ****                                                                                     USB_EP_TYPE_INT
 697:.\Generated_Source\PSoC5/USB_std.c ****                                     {
 698:.\Generated_Source\PSoC5/USB_std.c ****                                         USB_cdc_data_out_ep = i;
 699:.\Generated_Source\PSoC5/USB_std.c ****                                     }
 700:.\Generated_Source\PSoC5/USB_std.c ****                                 #endif  /* End USB_ENABLE_CDC_CLASS*/
 701:.\Generated_Source\PSoC5/USB_std.c ****                                 #if defined(USB_ENABLE_MIDI_STREAMING)
 702:.\Generated_Source\PSoC5/USB_std.c ****                                     if((pEP->bMisc == USB_CLASS_AUDIO) &&
 703:.\Generated_Source\PSoC5/USB_std.c ****                                        ((pEP->attributes & USB_EP_TYPE_MASK) ==
 704:.\Generated_Source\PSoC5/USB_std.c ****                                                                                         USB_EP_TYPE
 705:.\Generated_Source\PSoC5/USB_std.c ****                                     {
 706:.\Generated_Source\PSoC5/USB_std.c ****                                         USB_midi_out_ep = i;
 707:.\Generated_Source\PSoC5/USB_std.c ****                                     }
 708:.\Generated_Source\PSoC5/USB_std.c ****                                 #endif  /* End USB_ENABLE_MIDI_STREAMING*/
 709:.\Generated_Source\PSoC5/USB_std.c ****                             }
 710:.\Generated_Source\PSoC5/USB_std.c ****                             USB_EP[i].addr = pEP->addr;
 1336              		.loc 1 710 0
 1337 0306 B97B     		ldrb	r1, [r7, #14]	@ zero_extendqisi2
 1338 0308 FB69     		ldr	r3, [r7, #28]
ARM GAS  C:\Users\Craig\AppData\Local\Temp\cc9NnIsK.s 			page 37


 1339 030a 9878     		ldrb	r0, [r3, #2]	@ zero_extendqisi2
 1340 030c 40F20002 		movw	r2, #:lower16:USB_EP
 1341 0310 C0F20002 		movt	r2, #:upper16:USB_EP
 1342 0314 0B46     		mov	r3, r1
 1343 0316 4FEA4303 		lsl	r3, r3, #1
 1344 031a 0B44     		add	r3, r3, r1
 1345 031c 4FEA8303 		lsl	r3, r3, #2
 1346 0320 1344     		add	r3, r3, r2
 1347 0322 0246     		mov	r2, r0
 1348 0324 1A71     		strb	r2, [r3, #4]
 711:.\Generated_Source\PSoC5/USB_std.c ****                             USB_EP[i].attrib = pEP->attributes;
 1349              		.loc 1 711 0
 1350 0326 B97B     		ldrb	r1, [r7, #14]	@ zero_extendqisi2
 1351 0328 FB69     		ldr	r3, [r7, #28]
 1352 032a D878     		ldrb	r0, [r3, #3]	@ zero_extendqisi2
 1353 032c 40F20002 		movw	r2, #:lower16:USB_EP
 1354 0330 C0F20002 		movt	r2, #:upper16:USB_EP
 1355 0334 0B46     		mov	r3, r1
 1356 0336 4FEA4303 		lsl	r3, r3, #1
 1357 033a 0B44     		add	r3, r3, r1
 1358 033c 4FEA8303 		lsl	r3, r3, #2
 1359 0340 1344     		add	r3, r3, r2
 1360 0342 0246     		mov	r2, r0
 1361 0344 1A70     		strb	r2, [r3, #0]
 1362              	.L69:
 1363              		.loc 1 647 0
 1364 0346 7B7B     		ldrb	r3, [r7, #13]
 1365 0348 03F10103 		add	r3, r3, #1
 1366 034c 7B73     		strb	r3, [r7, #13]
 1367 034e FB69     		ldr	r3, [r7, #28]
 1368 0350 03F10803 		add	r3, r3, #8
 1369 0354 FB61     		str	r3, [r7, #28]
 1370              	.L68:
 1371 0356 7A7B     		ldrb	r2, [r7, #13]	@ zero_extendqisi2
 1372 0358 3B7B     		ldrb	r3, [r7, #12]	@ zero_extendqisi2
 1373 035a 9A42     		cmp	r2, r3
 1374 035c FFF43FAF 		bcc	.L77
 1375              		.loc 1 641 0
 1376 0360 BB7B     		ldrb	r3, [r7, #14]
 1377 0362 03F10103 		add	r3, r3, #1
 1378 0366 BB73     		strb	r3, [r7, #14]
 1379              	.L67:
 1380 0368 BB7B     		ldrb	r3, [r7, #14]	@ zero_extendqisi2
 1381 036a 082B     		cmp	r3, #8
 1382 036c 7FF630AF 		bls	.L78
 712:.\Generated_Source\PSoC5/USB_std.c **** 
 713:.\Generated_Source\PSoC5/USB_std.c ****                             #if(USB_EP_MM == USB__EP_DMAAUTO)
 714:.\Generated_Source\PSoC5/USB_std.c ****                                 break;      /* use first EP setting in Auto memory managment */
 715:.\Generated_Source\PSoC5/USB_std.c ****                             #endif /* End USB_EP_MM == USB__EP_DMAAUTO */
 716:.\Generated_Source\PSoC5/USB_std.c ****                         }
 717:.\Generated_Source\PSoC5/USB_std.c ****                     }
 718:.\Generated_Source\PSoC5/USB_std.c ****                 }
 719:.\Generated_Source\PSoC5/USB_std.c ****             }
 720:.\Generated_Source\PSoC5/USB_std.c ****         #endif /* End (USB_EP_MA == USB__MA_DYNAMIC) */
 721:.\Generated_Source\PSoC5/USB_std.c **** 
 722:.\Generated_Source\PSoC5/USB_std.c ****         /* Init class array for each interface and interface number for each EP.
 723:.\Generated_Source\PSoC5/USB_std.c ****         *  It is used for hangling Class specific requests directed to either an
ARM GAS  C:\Users\Craig\AppData\Local\Temp\cc9NnIsK.s 			page 38


 724:.\Generated_Source\PSoC5/USB_std.c ****         *  interface or the endpoint.
 725:.\Generated_Source\PSoC5/USB_std.c ****         */
 726:.\Generated_Source\PSoC5/USB_std.c ****         /* p_list points the endpoint setting table. */
 727:.\Generated_Source\PSoC5/USB_std.c ****         pEP = (T_USB_EP_SETTINGS_BLOCK *) pTmp->p_list;
 1383              		.loc 1 727 0
 1384 0370 BB69     		ldr	r3, [r7, #24]
 1385 0372 5B68     		ldr	r3, [r3, #4]
 1386 0374 FB61     		str	r3, [r7, #28]
 728:.\Generated_Source\PSoC5/USB_std.c ****         for (i = 0u; i < ep; i++, pEP++)
 1387              		.loc 1 728 0
 1388 0376 4FF00003 		mov	r3, #0
 1389 037a BB73     		strb	r3, [r7, #14]
 1390 037c 1CE0     		b	.L79
 1391              	.L80:
 729:.\Generated_Source\PSoC5/USB_std.c ****         {
 730:.\Generated_Source\PSoC5/USB_std.c ****             /* config interface number for each EP*/
 731:.\Generated_Source\PSoC5/USB_std.c ****             USB_EP[pEP->addr & USB_DIR_UNUSED].interface = pEP->interface;
 1392              		.loc 1 731 0
 1393 037e FB69     		ldr	r3, [r7, #28]
 1394 0380 9B78     		ldrb	r3, [r3, #2]	@ zero_extendqisi2
 1395 0382 03F07F01 		and	r1, r3, #127
 1396 0386 FB69     		ldr	r3, [r7, #28]
 1397 0388 1878     		ldrb	r0, [r3, #0]	@ zero_extendqisi2
 1398 038a 40F20002 		movw	r2, #:lower16:USB_EP
 1399 038e C0F20002 		movt	r2, #:upper16:USB_EP
 1400 0392 0B46     		mov	r3, r1
 1401 0394 4FEA4303 		lsl	r3, r3, #1
 1402 0398 0B44     		add	r3, r3, r1
 1403 039a 4FEA8303 		lsl	r3, r3, #2
 1404 039e 1344     		add	r3, r3, r2
 1405 03a0 03F10803 		add	r3, r3, #8
 1406 03a4 0246     		mov	r2, r0
 1407 03a6 9A70     		strb	r2, [r3, #2]
 1408              		.loc 1 728 0
 1409 03a8 BB7B     		ldrb	r3, [r7, #14]
 1410 03aa 03F10103 		add	r3, r3, #1
 1411 03ae BB73     		strb	r3, [r7, #14]
 1412 03b0 FB69     		ldr	r3, [r7, #28]
 1413 03b2 03F10803 		add	r3, r3, #8
 1414 03b6 FB61     		str	r3, [r7, #28]
 1415              	.L79:
 1416 03b8 BA7B     		ldrb	r2, [r7, #14]	@ zero_extendqisi2
 1417 03ba 3B7B     		ldrb	r3, [r7, #12]	@ zero_extendqisi2
 1418 03bc 9A42     		cmp	r2, r3
 1419 03be DED3     		bcc	.L80
 732:.\Generated_Source\PSoC5/USB_std.c ****         }
 733:.\Generated_Source\PSoC5/USB_std.c ****         /* init pointer on interface class table*/
 734:.\Generated_Source\PSoC5/USB_std.c ****         USB_interfaceClass = USB_GetInterfaceClassTablePtr();
 1420              		.loc 1 734 0
 1421 03c0 FFF7FEFF 		bl	USB_GetInterfaceClassTablePtr
 1422 03c4 0246     		mov	r2, r0
 1423 03c6 40F20003 		movw	r3, #:lower16:USB_interfaceClass
 1424 03ca C0F20003 		movt	r3, #:upper16:USB_interfaceClass
 1425 03ce 1A60     		str	r2, [r3, #0]
 735:.\Generated_Source\PSoC5/USB_std.c ****         /* Set the endpoint buffer addresses */
 736:.\Generated_Source\PSoC5/USB_std.c ****         
 737:.\Generated_Source\PSoC5/USB_std.c ****         #if(USB_EP_MM != USB__EP_DMAAUTO)
ARM GAS  C:\Users\Craig\AppData\Local\Temp\cc9NnIsK.s 			page 39


 738:.\Generated_Source\PSoC5/USB_std.c ****             for (ep = USB_EP1; ep < USB_MAX_EP; ep++)
 1426              		.loc 1 738 0
 1427 03d0 4FF00103 		mov	r3, #1
 1428 03d4 3B73     		strb	r3, [r7, #12]
 1429 03d6 26E0     		b	.L81
 1430              	.L82:
 739:.\Generated_Source\PSoC5/USB_std.c ****             {
 740:.\Generated_Source\PSoC5/USB_std.c ****                 USB_EP[ep].buffOffset = count;
 1431              		.loc 1 740 0
 1432 03d8 397B     		ldrb	r1, [r7, #12]	@ zero_extendqisi2
 1433 03da 40F20002 		movw	r2, #:lower16:USB_EP
 1434 03de C0F20002 		movt	r2, #:upper16:USB_EP
 1435 03e2 0B46     		mov	r3, r1
 1436 03e4 4FEA4303 		lsl	r3, r3, #1
 1437 03e8 0B44     		add	r3, r3, r1
 1438 03ea 4FEA8303 		lsl	r3, r3, #2
 1439 03ee 1344     		add	r3, r3, r2
 1440 03f0 03F10603 		add	r3, r3, #6
 1441 03f4 FA8A     		ldrh	r2, [r7, #22]	@ movhi
 1442 03f6 1A80     		strh	r2, [r3, #0]	@ movhi
 741:.\Generated_Source\PSoC5/USB_std.c ****                  count += USB_EP[ep].bufferSize;
 1443              		.loc 1 741 0
 1444 03f8 397B     		ldrb	r1, [r7, #12]	@ zero_extendqisi2
 1445 03fa 40F20002 		movw	r2, #:lower16:USB_EP
 1446 03fe C0F20002 		movt	r2, #:upper16:USB_EP
 1447 0402 0B46     		mov	r3, r1
 1448 0404 4FEA4303 		lsl	r3, r3, #1
 1449 0408 0B44     		add	r3, r3, r1
 1450 040a 4FEA8303 		lsl	r3, r3, #2
 1451 040e 1344     		add	r3, r3, r2
 1452 0410 03F10803 		add	r3, r3, #8
 1453 0414 1B88     		ldrh	r3, [r3, #0]	@ movhi
 1454 0416 9AB2     		uxth	r2, r3
 1455 0418 FB8A     		ldrh	r3, [r7, #22]	@ movhi
 1456 041a 1344     		add	r3, r2, r3
 1457 041c FB82     		strh	r3, [r7, #22]	@ movhi
 1458              		.loc 1 738 0
 1459 041e 3B7B     		ldrb	r3, [r7, #12]
 1460 0420 03F10103 		add	r3, r3, #1
 1461 0424 3B73     		strb	r3, [r7, #12]
 1462              	.L81:
 1463 0426 3B7B     		ldrb	r3, [r7, #12]	@ zero_extendqisi2
 1464 0428 082B     		cmp	r3, #8
 1465 042a D5D9     		bls	.L82
 742:.\Generated_Source\PSoC5/USB_std.c ****             }
 743:.\Generated_Source\PSoC5/USB_std.c ****         #endif /* End USB_EP_MM != USB__EP_DMAAUTO */
 744:.\Generated_Source\PSoC5/USB_std.c **** 
 745:.\Generated_Source\PSoC5/USB_std.c ****         /* Congigure hardware registers */
 746:.\Generated_Source\PSoC5/USB_std.c ****         USB_ConfigReg();
 1466              		.loc 1 746 0
 1467 042c FFF7FEFF 		bl	USB_ConfigReg
 1468              	.L83:
 747:.\Generated_Source\PSoC5/USB_std.c ****     } /* USB_configuration > 0 */
 748:.\Generated_Source\PSoC5/USB_std.c **** }
 1469              		.loc 1 748 0
 1470 0430 07F12007 		add	r7, r7, #32
 1471 0434 BD46     		mov	sp, r7
ARM GAS  C:\Users\Craig\AppData\Local\Temp\cc9NnIsK.s 			page 40


 1472 0436 80BD     		pop	{r7, pc}
 1473              		.cfi_endproc
 1474              	.LFE3:
 1475              		.size	USB_Config, .-USB_Config
 1476              		.section	.text.USB_ConfigAltChanged,"ax",%progbits
 1477              		.align	2
 1478              		.global	USB_ConfigAltChanged
 1479              		.thumb
 1480              		.thumb_func
 1481              		.type	USB_ConfigAltChanged, %function
 1482              	USB_ConfigAltChanged:
 1483              	.LFB4:
 749:.\Generated_Source\PSoC5/USB_std.c **** 
 750:.\Generated_Source\PSoC5/USB_std.c **** 
 751:.\Generated_Source\PSoC5/USB_std.c **** /*******************************************************************************
 752:.\Generated_Source\PSoC5/USB_std.c **** * Function Name: USB_ConfigAltChanged
 753:.\Generated_Source\PSoC5/USB_std.c **** ********************************************************************************
 754:.\Generated_Source\PSoC5/USB_std.c **** *
 755:.\Generated_Source\PSoC5/USB_std.c **** * Summary:
 756:.\Generated_Source\PSoC5/USB_std.c **** *  This routine undate configuration for the required endpoints only.
 757:.\Generated_Source\PSoC5/USB_std.c **** *  It is called after SET_INTERFACE request when Static memory allocation used.
 758:.\Generated_Source\PSoC5/USB_std.c **** *
 759:.\Generated_Source\PSoC5/USB_std.c **** * Parameters:
 760:.\Generated_Source\PSoC5/USB_std.c **** *  None.
 761:.\Generated_Source\PSoC5/USB_std.c **** *
 762:.\Generated_Source\PSoC5/USB_std.c **** * Return:
 763:.\Generated_Source\PSoC5/USB_std.c **** *  None.
 764:.\Generated_Source\PSoC5/USB_std.c **** *
 765:.\Generated_Source\PSoC5/USB_std.c **** * Reentrant:
 766:.\Generated_Source\PSoC5/USB_std.c **** *  No.
 767:.\Generated_Source\PSoC5/USB_std.c **** *
 768:.\Generated_Source\PSoC5/USB_std.c **** *******************************************************************************/
 769:.\Generated_Source\PSoC5/USB_std.c **** void USB_ConfigAltChanged() 
 770:.\Generated_Source\PSoC5/USB_std.c **** {
 1484              		.loc 1 770 0
 1485              		.cfi_startproc
 1486              		@ args = 0, pretend = 0, frame = 16
 1487              		@ frame_needed = 1, uses_anonymous_args = 0
 1488 0000 80B5     		push	{r7, lr}
 1489              	.LCFI12:
 1490              		.cfi_def_cfa_offset 8
 1491 0002 84B0     		sub	sp, sp, #16
 1492              	.LCFI13:
 1493              		.cfi_def_cfa_offset 24
 1494 0004 00AF     		add	r7, sp, #0
 1495              		.cfi_offset 14, -4
 1496              		.cfi_offset 7, -8
 1497              	.LCFI14:
 1498              		.cfi_def_cfa_register 7
 771:.\Generated_Source\PSoC5/USB_std.c ****     uint8 ep,cur_ep,i;
 772:.\Generated_Source\PSoC5/USB_std.c ****     uint8 iso;
 773:.\Generated_Source\PSoC5/USB_std.c ****     uint8 ri;
 774:.\Generated_Source\PSoC5/USB_std.c **** 
 775:.\Generated_Source\PSoC5/USB_std.c ****     T_USB_LUT *pTmp;
 776:.\Generated_Source\PSoC5/USB_std.c ****     T_USB_EP_SETTINGS_BLOCK *pEP;
 777:.\Generated_Source\PSoC5/USB_std.c **** 
 778:.\Generated_Source\PSoC5/USB_std.c **** 
ARM GAS  C:\Users\Craig\AppData\Local\Temp\cc9NnIsK.s 			page 41


 779:.\Generated_Source\PSoC5/USB_std.c ****     /* Init Endpoints and Device Status if configured */
 780:.\Generated_Source\PSoC5/USB_std.c ****     if(USB_configuration > 0u)
 1499              		.loc 1 780 0
 1500 0006 40F20003 		movw	r3, #:lower16:USB_configuration
 1501 000a C0F20003 		movt	r3, #:upper16:USB_configuration
 1502 000e 1B78     		ldrb	r3, [r3, #0]
 1503 0010 DBB2     		uxtb	r3, r3
 1504 0012 002B     		cmp	r3, #0
 1505 0014 00F09F81 		beq	.L95
 781:.\Generated_Source\PSoC5/USB_std.c ****     {
 782:.\Generated_Source\PSoC5/USB_std.c ****         pTmp = USB_GetConfigTablePtr(USB_configuration - 1u);
 1506              		.loc 1 782 0
 1507 0018 40F20003 		movw	r3, #:lower16:USB_configuration
 1508 001c C0F20003 		movt	r3, #:upper16:USB_configuration
 1509 0020 1B78     		ldrb	r3, [r3, #0]
 1510 0022 DBB2     		uxtb	r3, r3
 1511 0024 03F1FF33 		add	r3, r3, #-1
 1512 0028 DBB2     		uxtb	r3, r3
 1513 002a 1846     		mov	r0, r3
 1514 002c FFF7FEFF 		bl	USB_GetConfigTablePtr
 1515 0030 0346     		mov	r3, r0
 1516 0032 BB60     		str	r3, [r7, #8]
 783:.\Generated_Source\PSoC5/USB_std.c ****         pTmp++;
 1517              		.loc 1 783 0
 1518 0034 BB68     		ldr	r3, [r7, #8]
 1519 0036 03F10803 		add	r3, r3, #8
 1520 003a BB60     		str	r3, [r7, #8]
 784:.\Generated_Source\PSoC5/USB_std.c ****         ep = pTmp->c;  /* For this table, c is the number of endpoints configurations  */
 1521              		.loc 1 784 0
 1522 003c BB68     		ldr	r3, [r7, #8]
 1523 003e 1B78     		ldrb	r3, [r3, #0]
 1524 0040 FB70     		strb	r3, [r7, #3]
 785:.\Generated_Source\PSoC5/USB_std.c **** 
 786:.\Generated_Source\PSoC5/USB_std.c ****         /* Do not touch EP wich doesn't need reconfiguration */
 787:.\Generated_Source\PSoC5/USB_std.c ****         /* When Alt setting chaged, the only required endpoints need to be reconfigured */
 788:.\Generated_Source\PSoC5/USB_std.c ****         /* p_list points the endpoint setting table. */
 789:.\Generated_Source\PSoC5/USB_std.c ****         pEP = (T_USB_EP_SETTINGS_BLOCK *) pTmp->p_list;
 1525              		.loc 1 789 0
 1526 0042 BB68     		ldr	r3, [r7, #8]
 1527 0044 5B68     		ldr	r3, [r3, #4]
 1528 0046 FB60     		str	r3, [r7, #12]
 790:.\Generated_Source\PSoC5/USB_std.c ****         for (i = 0u; i < ep; i++, pEP++)
 1529              		.loc 1 790 0
 1530 0048 4FF00003 		mov	r3, #0
 1531 004c 7B71     		strb	r3, [r7, #5]
 1532 004e 7DE1     		b	.L86
 1533              	.L94:
 791:.\Generated_Source\PSoC5/USB_std.c ****         {
 792:.\Generated_Source\PSoC5/USB_std.c ****             /*If Alt setting changed and new is same with EP Alt */
 793:.\Generated_Source\PSoC5/USB_std.c ****             if((USB_interfaceSetting[pEP->interface] !=
 1534              		.loc 1 793 0
 1535 0050 FB68     		ldr	r3, [r7, #12]
 1536 0052 1B78     		ldrb	r3, [r3, #0]	@ zero_extendqisi2
 1537 0054 1A46     		mov	r2, r3
 1538 0056 40F20003 		movw	r3, #:lower16:USB_interfaceSetting
 1539 005a C0F20003 		movt	r3, #:upper16:USB_interfaceSetting
 1540 005e 9B5C     		ldrb	r3, [r3, r2]
ARM GAS  C:\Users\Craig\AppData\Local\Temp\cc9NnIsK.s 			page 42


 1541 0060 DAB2     		uxtb	r2, r3
 794:.\Generated_Source\PSoC5/USB_std.c ****                 USB_interfaceSetting_last[pEP->interface] ) &&
 1542              		.loc 1 794 0
 1543 0062 FB68     		ldr	r3, [r7, #12]
 1544 0064 1B78     		ldrb	r3, [r3, #0]	@ zero_extendqisi2
 1545              		.loc 1 793 0
 1546 0066 1946     		mov	r1, r3
 1547              		.loc 1 794 0
 1548 0068 40F20003 		movw	r3, #:lower16:USB_interfaceSetting_last
 1549 006c C0F20003 		movt	r3, #:upper16:USB_interfaceSetting_last
 1550 0070 5B5C     		ldrb	r3, [r3, r1]
 1551 0072 DBB2     		uxtb	r3, r3
 1552              		.loc 1 793 0
 1553 0074 9A42     		cmp	r2, r3
 1554 0076 00F06181 		beq	.L87
 795:.\Generated_Source\PSoC5/USB_std.c ****                (USB_interfaceSetting[pEP->interface] == pEP->altSetting) &&
 1555              		.loc 1 795 0
 1556 007a FB68     		ldr	r3, [r7, #12]
 1557 007c 1B78     		ldrb	r3, [r3, #0]	@ zero_extendqisi2
 1558 007e 1A46     		mov	r2, r3
 1559 0080 40F20003 		movw	r3, #:lower16:USB_interfaceSetting
 1560 0084 C0F20003 		movt	r3, #:upper16:USB_interfaceSetting
 1561 0088 9B5C     		ldrb	r3, [r3, r2]
 1562 008a DAB2     		uxtb	r2, r3
 1563 008c FB68     		ldr	r3, [r7, #12]
 1564 008e 5B78     		ldrb	r3, [r3, #1]	@ zero_extendqisi2
 1565              		.loc 1 793 0
 1566 0090 9A42     		cmp	r2, r3
 1567 0092 40F05381 		bne	.L87
 796:.\Generated_Source\PSoC5/USB_std.c ****                 pEP->interface == CY_GET_REG8(USB_wIndexLo))
 1568              		.loc 1 796 0
 1569 0096 FB68     		ldr	r3, [r7, #12]
 1570 0098 1A78     		ldrb	r2, [r3, #0]	@ zero_extendqisi2
 1571 009a 46F20403 		movw	r3, #:lower16:1073766404
 1572 009e C4F20003 		movt	r3, #:upper16:1073766404
 1573 00a2 1B78     		ldrb	r3, [r3, #0]
 1574 00a4 DBB2     		uxtb	r3, r3
 1575              		.loc 1 793 0
 1576 00a6 9A42     		cmp	r2, r3
 1577 00a8 40F04881 		bne	.L87
 797:.\Generated_Source\PSoC5/USB_std.c ****             {
 798:.\Generated_Source\PSoC5/USB_std.c ****                 cur_ep = pEP->addr & USB_DIR_UNUSED;
 1578              		.loc 1 798 0
 1579 00ac FB68     		ldr	r3, [r7, #12]
 1580 00ae 9B78     		ldrb	r3, [r3, #2]	@ zero_extendqisi2
 1581 00b0 03F07F03 		and	r3, r3, #127
 1582 00b4 3B71     		strb	r3, [r7, #4]
 799:.\Generated_Source\PSoC5/USB_std.c ****                 ri = ((cur_ep - USB_EP1) << USB_EPX_CNTX_ADDR_SHIFT);
 1583              		.loc 1 799 0
 1584 00b6 3B79     		ldrb	r3, [r7, #4]
 1585 00b8 03F1FF33 		add	r3, r3, #-1
 1586 00bc DBB2     		uxtb	r3, r3
 1587 00be 4FEA0313 		lsl	r3, r3, #4
 1588 00c2 FB71     		strb	r3, [r7, #7]
 800:.\Generated_Source\PSoC5/USB_std.c ****                 iso  = ((pEP->attributes & USB_EP_TYPE_MASK) == USB_EP_TYPE_ISOC);
 1589              		.loc 1 800 0
 1590 00c4 FB68     		ldr	r3, [r7, #12]
ARM GAS  C:\Users\Craig\AppData\Local\Temp\cc9NnIsK.s 			page 43


 1591 00c6 DB78     		ldrb	r3, [r3, #3]	@ zero_extendqisi2
 1592 00c8 03F00303 		and	r3, r3, #3
 1593 00cc 012B     		cmp	r3, #1
 1594 00ce 14BF     		ite	ne
 1595 00d0 0023     		movne	r3, #0
 1596 00d2 0123     		moveq	r3, #1
 1597 00d4 BB71     		strb	r3, [r7, #6]
 801:.\Generated_Source\PSoC5/USB_std.c ****                 if (pEP->addr & USB_DIR_IN)
 1598              		.loc 1 801 0
 1599 00d6 FB68     		ldr	r3, [r7, #12]
 1600 00d8 9B78     		ldrb	r3, [r3, #2]	@ zero_extendqisi2
 1601 00da 5BB2     		sxtb	r3, r3
 1602 00dc 002B     		cmp	r3, #0
 1603 00de 25DA     		bge	.L88
 802:.\Generated_Source\PSoC5/USB_std.c ****                 {
 803:.\Generated_Source\PSoC5/USB_std.c ****                     /* IN Endpoint */
 804:.\Generated_Source\PSoC5/USB_std.c ****                     USB_EP[cur_ep].apiEpState = USB_EVENT_PENDING;
 1604              		.loc 1 804 0
 1605 00e0 3979     		ldrb	r1, [r7, #4]	@ zero_extendqisi2
 1606 00e2 40F20002 		movw	r2, #:lower16:USB_EP
 1607 00e6 C0F20002 		movt	r2, #:upper16:USB_EP
 1608 00ea 0B46     		mov	r3, r1
 1609 00ec 4FEA4303 		lsl	r3, r3, #1
 1610 00f0 0B44     		add	r3, r3, r1
 1611 00f2 4FEA8303 		lsl	r3, r3, #2
 1612 00f6 1344     		add	r3, r3, r2
 1613 00f8 4FF00102 		mov	r2, #1
 1614 00fc 5A70     		strb	r2, [r3, #1]
 805:.\Generated_Source\PSoC5/USB_std.c ****                     USB_EP[cur_ep].epMode =
 1615              		.loc 1 805 0
 1616 00fe 3879     		ldrb	r0, [r7, #4]	@ zero_extendqisi2
 1617 0100 BB79     		ldrb	r3, [r7, #6]	@ zero_extendqisi2
 1618 0102 002B     		cmp	r3, #0
 1619 0104 02D0     		beq	.L89
 1620 0106 4FF00701 		mov	r1, #7
 1621 010a 01E0     		b	.L90
 1622              	.L89:
 1623 010c 4FF00D01 		mov	r1, #13
 1624              	.L90:
 1625 0110 40F20002 		movw	r2, #:lower16:USB_EP
 1626 0114 C0F20002 		movt	r2, #:upper16:USB_EP
 1627 0118 0346     		mov	r3, r0
 1628 011a 4FEA4303 		lsl	r3, r3, #1
 1629 011e 0344     		add	r3, r3, r0
 1630 0120 4FEA8303 		lsl	r3, r3, #2
 1631 0124 1344     		add	r3, r3, r2
 1632 0126 0A46     		mov	r2, r1
 1633 0128 5A71     		strb	r2, [r3, #5]
 1634 012a 24E0     		b	.L91
 1635              	.L88:
 806:.\Generated_Source\PSoC5/USB_std.c ****                                             (iso ? USB_MODE_ISO_IN : USB_MODE_ACK_IN);
 807:.\Generated_Source\PSoC5/USB_std.c ****                 }
 808:.\Generated_Source\PSoC5/USB_std.c ****                 else
 809:.\Generated_Source\PSoC5/USB_std.c ****                 {
 810:.\Generated_Source\PSoC5/USB_std.c ****                     /* OUT Endpoint */
 811:.\Generated_Source\PSoC5/USB_std.c ****                     USB_EP[cur_ep].apiEpState = USB_NO_EVENT_PENDING;
 1636              		.loc 1 811 0
ARM GAS  C:\Users\Craig\AppData\Local\Temp\cc9NnIsK.s 			page 44


 1637 012c 3979     		ldrb	r1, [r7, #4]	@ zero_extendqisi2
 1638 012e 40F20002 		movw	r2, #:lower16:USB_EP
 1639 0132 C0F20002 		movt	r2, #:upper16:USB_EP
 1640 0136 0B46     		mov	r3, r1
 1641 0138 4FEA4303 		lsl	r3, r3, #1
 1642 013c 0B44     		add	r3, r3, r1
 1643 013e 4FEA8303 		lsl	r3, r3, #2
 1644 0142 1344     		add	r3, r3, r2
 1645 0144 4FF00002 		mov	r2, #0
 1646 0148 5A70     		strb	r2, [r3, #1]
 812:.\Generated_Source\PSoC5/USB_std.c ****                     USB_EP[cur_ep].epMode =
 1647              		.loc 1 812 0
 1648 014a 3879     		ldrb	r0, [r7, #4]	@ zero_extendqisi2
 1649 014c BB79     		ldrb	r3, [r7, #6]	@ zero_extendqisi2
 1650 014e 002B     		cmp	r3, #0
 1651 0150 02D0     		beq	.L92
 1652 0152 4FF00501 		mov	r1, #5
 1653 0156 01E0     		b	.L93
 1654              	.L92:
 1655 0158 4FF00901 		mov	r1, #9
 1656              	.L93:
 1657 015c 40F20002 		movw	r2, #:lower16:USB_EP
 1658 0160 C0F20002 		movt	r2, #:upper16:USB_EP
 1659 0164 0346     		mov	r3, r0
 1660 0166 4FEA4303 		lsl	r3, r3, #1
 1661 016a 0344     		add	r3, r3, r0
 1662 016c 4FEA8303 		lsl	r3, r3, #2
 1663 0170 1344     		add	r3, r3, r2
 1664 0172 0A46     		mov	r2, r1
 1665 0174 5A71     		strb	r2, [r3, #5]
 1666              	.L91:
 813:.\Generated_Source\PSoC5/USB_std.c ****                                             (iso ? USB_MODE_ISO_OUT : USB_MODE_ACK_OUT);
 814:.\Generated_Source\PSoC5/USB_std.c ****                 }
 815:.\Generated_Source\PSoC5/USB_std.c ****                  /* Change the SIE mode for the selected EP to NAK ALL */
 816:.\Generated_Source\PSoC5/USB_std.c ****                  CY_SET_REG8(&USB_SIE_EP1_CR0_PTR[ri], USB_MODE_NAK_IN_OUT);
 1667              		.loc 1 816 0
 1668 0176 FA79     		ldrb	r2, [r7, #7]	@ zero_extendqisi2
 1669 0178 46F20E03 		movw	r3, #:lower16:1073766414
 1670 017c C4F20003 		movt	r3, #:upper16:1073766414
 1671 0180 1344     		add	r3, r2, r3
 1672 0182 4FF00102 		mov	r2, #1
 1673 0186 1A70     		strb	r2, [r3, #0]
 817:.\Generated_Source\PSoC5/USB_std.c ****                 USB_EP[cur_ep].bufferSize = pEP->bufferSize;
 1674              		.loc 1 817 0
 1675 0188 3979     		ldrb	r1, [r7, #4]	@ zero_extendqisi2
 1676 018a FB68     		ldr	r3, [r7, #12]
 1677 018c 9888     		ldrh	r0, [r3, #4]
 1678 018e 40F20002 		movw	r2, #:lower16:USB_EP
 1679 0192 C0F20002 		movt	r2, #:upper16:USB_EP
 1680 0196 0B46     		mov	r3, r1
 1681 0198 4FEA4303 		lsl	r3, r3, #1
 1682 019c 0B44     		add	r3, r3, r1
 1683 019e 4FEA8303 		lsl	r3, r3, #2
 1684 01a2 1344     		add	r3, r3, r2
 1685 01a4 03F10803 		add	r3, r3, #8
 1686 01a8 0246     		mov	r2, r0	@ movhi
 1687 01aa 1A80     		strh	r2, [r3, #0]	@ movhi
ARM GAS  C:\Users\Craig\AppData\Local\Temp\cc9NnIsK.s 			page 45


 818:.\Generated_Source\PSoC5/USB_std.c ****                 USB_EP[cur_ep].addr = pEP->addr;
 1688              		.loc 1 818 0
 1689 01ac 3979     		ldrb	r1, [r7, #4]	@ zero_extendqisi2
 1690 01ae FB68     		ldr	r3, [r7, #12]
 1691 01b0 9878     		ldrb	r0, [r3, #2]	@ zero_extendqisi2
 1692 01b2 40F20002 		movw	r2, #:lower16:USB_EP
 1693 01b6 C0F20002 		movt	r2, #:upper16:USB_EP
 1694 01ba 0B46     		mov	r3, r1
 1695 01bc 4FEA4303 		lsl	r3, r3, #1
 1696 01c0 0B44     		add	r3, r3, r1
 1697 01c2 4FEA8303 		lsl	r3, r3, #2
 1698 01c6 1344     		add	r3, r3, r2
 1699 01c8 0246     		mov	r2, r0
 1700 01ca 1A71     		strb	r2, [r3, #4]
 819:.\Generated_Source\PSoC5/USB_std.c ****                 USB_EP[cur_ep].attrib = pEP->attributes;
 1701              		.loc 1 819 0
 1702 01cc 3979     		ldrb	r1, [r7, #4]	@ zero_extendqisi2
 1703 01ce FB68     		ldr	r3, [r7, #12]
 1704 01d0 D878     		ldrb	r0, [r3, #3]	@ zero_extendqisi2
 1705 01d2 40F20002 		movw	r2, #:lower16:USB_EP
 1706 01d6 C0F20002 		movt	r2, #:upper16:USB_EP
 1707 01da 0B46     		mov	r3, r1
 1708 01dc 4FEA4303 		lsl	r3, r3, #1
 1709 01e0 0B44     		add	r3, r3, r1
 1710 01e2 4FEA8303 		lsl	r3, r3, #2
 1711 01e6 1344     		add	r3, r3, r2
 1712 01e8 0246     		mov	r2, r0
 1713 01ea 1A70     		strb	r2, [r3, #0]
 820:.\Generated_Source\PSoC5/USB_std.c **** 
 821:.\Generated_Source\PSoC5/USB_std.c ****                 /* Clear the data toggle */
 822:.\Generated_Source\PSoC5/USB_std.c ****                 USB_EP[cur_ep].epToggle = 0u;
 1714              		.loc 1 822 0
 1715 01ec 3979     		ldrb	r1, [r7, #4]	@ zero_extendqisi2
 1716 01ee 40F20002 		movw	r2, #:lower16:USB_EP
 1717 01f2 C0F20002 		movt	r2, #:upper16:USB_EP
 1718 01f6 0B46     		mov	r3, r1
 1719 01f8 4FEA4303 		lsl	r3, r3, #1
 1720 01fc 0B44     		add	r3, r3, r1
 1721 01fe 4FEA8303 		lsl	r3, r3, #2
 1722 0202 1344     		add	r3, r3, r2
 1723 0204 4FF00002 		mov	r2, #0
 1724 0208 DA70     		strb	r2, [r3, #3]
 823:.\Generated_Source\PSoC5/USB_std.c **** 
 824:.\Generated_Source\PSoC5/USB_std.c ****                 /* Dynamic reconfiguration for mode 3 transfer */
 825:.\Generated_Source\PSoC5/USB_std.c ****                 #if((USB_EP_MM == USB__EP_DMAAUTO) && (!CY_PSOC5A) )
 826:.\Generated_Source\PSoC5/USB_std.c ****                     /* In_data_rdy for selected EP should be set to 0 */
 827:.\Generated_Source\PSoC5/USB_std.c ****                     USB_ARB_EP1_CFG_PTR[ri] &= ~USB_ARB_EPX_CFG_IN_DATA_RDY;
 828:.\Generated_Source\PSoC5/USB_std.c **** 
 829:.\Generated_Source\PSoC5/USB_std.c ****                     /* write the EP number for which reconfiguration is required */
 830:.\Generated_Source\PSoC5/USB_std.c ****                     USB_DYN_RECONFIG_REG = (cur_ep - USB_EP1) << 
 831:.\Generated_Source\PSoC5/USB_std.c ****                                                         USB_DYN_RECONFIG_EP_SHIFT;
 832:.\Generated_Source\PSoC5/USB_std.c ****                     /* Set the dyn_config_en bit in dynamic reconfiguration register */
 833:.\Generated_Source\PSoC5/USB_std.c ****                     USB_DYN_RECONFIG_REG |= USB_DYN_RECONFIG_ENABLE;
 834:.\Generated_Source\PSoC5/USB_std.c ****                     /* wait for the dyn_config_rdy bit to set by the block,
 835:.\Generated_Source\PSoC5/USB_std.c ****                     *  this bit will be set to 1 when block is ready for reconfiguration.
 836:.\Generated_Source\PSoC5/USB_std.c ****                     */
 837:.\Generated_Source\PSoC5/USB_std.c ****                     while((USB_DYN_RECONFIG_REG & USB_DYN_RECONFIG_RDY_STS) == 0u);
ARM GAS  C:\Users\Craig\AppData\Local\Temp\cc9NnIsK.s 			page 46


 838:.\Generated_Source\PSoC5/USB_std.c ****                     /* Once dyn_config_rdy bit is set, FW can change the EP configuration. */
 839:.\Generated_Source\PSoC5/USB_std.c ****                     /* Change EP Type with new direction */
 840:.\Generated_Source\PSoC5/USB_std.c ****                     if((pEP->addr & USB_DIR_IN) == 0)
 841:.\Generated_Source\PSoC5/USB_std.c ****                     {
 842:.\Generated_Source\PSoC5/USB_std.c ****                         USB_EP_TYPE_REG |= 0x01u << (cur_ep - USB_EP1);
 843:.\Generated_Source\PSoC5/USB_std.c ****                     }
 844:.\Generated_Source\PSoC5/USB_std.c ****                     else
 845:.\Generated_Source\PSoC5/USB_std.c ****                     {
 846:.\Generated_Source\PSoC5/USB_std.c ****                         USB_EP_TYPE_REG &= ~(0x01u << (cur_ep - USB_EP1));
 847:.\Generated_Source\PSoC5/USB_std.c ****                     }
 848:.\Generated_Source\PSoC5/USB_std.c ****                     /* dynamic reconfiguration enable bit cleared, pointers and control/status
 849:.\Generated_Source\PSoC5/USB_std.c ****                     *  signals for the selected EP is cleared/re-initialized on negedge
 850:.\Generated_Source\PSoC5/USB_std.c ****                     *  of dynamic reconfiguration enable bit).
 851:.\Generated_Source\PSoC5/USB_std.c ****                     */
 852:.\Generated_Source\PSoC5/USB_std.c ****                     USB_DYN_RECONFIG_REG &= ~USB_DYN_RECONFIG_ENABLE;
 853:.\Generated_Source\PSoC5/USB_std.c ****                     /* The main loop has to reenable DMA and OUT endpoint*/
 854:.\Generated_Source\PSoC5/USB_std.c ****                 #else
 855:.\Generated_Source\PSoC5/USB_std.c ****                 CY_SET_REG8(&USB_SIE_EP1_CNT0_PTR[ri],   USB_EP[cur_ep].bufferSize >> 8u);
 1725              		.loc 1 855 0
 1726 020a FA79     		ldrb	r2, [r7, #7]	@ zero_extendqisi2
 1727 020c 46F20C03 		movw	r3, #:lower16:1073766412
 1728 0210 C4F20003 		movt	r3, #:upper16:1073766412
 1729 0214 1344     		add	r3, r2, r3
 1730 0216 3879     		ldrb	r0, [r7, #4]	@ zero_extendqisi2
 1731 0218 40F20001 		movw	r1, #:lower16:USB_EP
 1732 021c C0F20001 		movt	r1, #:upper16:USB_EP
 1733 0220 0246     		mov	r2, r0
 1734 0222 4FEA4202 		lsl	r2, r2, #1
 1735 0226 0244     		add	r2, r2, r0
 1736 0228 4FEA8202 		lsl	r2, r2, #2
 1737 022c 0A44     		add	r2, r2, r1
 1738 022e 02F10802 		add	r2, r2, #8
 1739 0232 1288     		ldrh	r2, [r2, #0]	@ movhi
 1740 0234 92B2     		uxth	r2, r2
 1741 0236 4FEA1222 		lsr	r2, r2, #8
 1742 023a 92B2     		uxth	r2, r2
 1743 023c D2B2     		uxtb	r2, r2
 1744 023e 1A70     		strb	r2, [r3, #0]
 856:.\Generated_Source\PSoC5/USB_std.c ****                 CY_SET_REG8(&USB_SIE_EP1_CNT1_PTR[ri],   USB_EP[cur_ep].bufferSize & 0xFFu);
 1745              		.loc 1 856 0
 1746 0240 FA79     		ldrb	r2, [r7, #7]	@ zero_extendqisi2
 1747 0242 46F20D03 		movw	r3, #:lower16:1073766413
 1748 0246 C4F20003 		movt	r3, #:upper16:1073766413
 1749 024a 1344     		add	r3, r2, r3
 1750 024c 3879     		ldrb	r0, [r7, #4]	@ zero_extendqisi2
 1751 024e 40F20001 		movw	r1, #:lower16:USB_EP
 1752 0252 C0F20001 		movt	r1, #:upper16:USB_EP
 1753 0256 0246     		mov	r2, r0
 1754 0258 4FEA4202 		lsl	r2, r2, #1
 1755 025c 0244     		add	r2, r2, r0
 1756 025e 4FEA8202 		lsl	r2, r2, #2
 1757 0262 0A44     		add	r2, r2, r1
 1758 0264 02F10802 		add	r2, r2, #8
 1759 0268 1288     		ldrh	r2, [r2, #0]	@ movhi
 1760 026a 92B2     		uxth	r2, r2
 1761 026c D2B2     		uxtb	r2, r2
 1762 026e 1A70     		strb	r2, [r3, #0]
ARM GAS  C:\Users\Craig\AppData\Local\Temp\cc9NnIsK.s 			page 47


 857:.\Generated_Source\PSoC5/USB_std.c **** 
 858:.\Generated_Source\PSoC5/USB_std.c ****                 CY_SET_REG8(&USB_ARB_RW1_RA_PTR[ri],     USB_EP[cur_ep].buffOffset & 0xFFu);
 1763              		.loc 1 858 0
 1764 0270 FA79     		ldrb	r2, [r7, #7]	@ zero_extendqisi2
 1765 0272 46F28603 		movw	r3, #:lower16:1073766534
 1766 0276 C4F20003 		movt	r3, #:upper16:1073766534
 1767 027a 1344     		add	r3, r2, r3
 1768 027c 3879     		ldrb	r0, [r7, #4]	@ zero_extendqisi2
 1769 027e 40F20001 		movw	r1, #:lower16:USB_EP
 1770 0282 C0F20001 		movt	r1, #:upper16:USB_EP
 1771 0286 0246     		mov	r2, r0
 1772 0288 4FEA4202 		lsl	r2, r2, #1
 1773 028c 0244     		add	r2, r2, r0
 1774 028e 4FEA8202 		lsl	r2, r2, #2
 1775 0292 0A44     		add	r2, r2, r1
 1776 0294 02F10602 		add	r2, r2, #6
 1777 0298 1288     		ldrh	r2, [r2, #0]	@ movhi
 1778 029a 92B2     		uxth	r2, r2
 1779 029c D2B2     		uxtb	r2, r2
 1780 029e 1A70     		strb	r2, [r3, #0]
 859:.\Generated_Source\PSoC5/USB_std.c ****                 CY_SET_REG8(&USB_ARB_RW1_RA_MSB_PTR[ri], USB_EP[cur_ep].buffOffset >> 8u);
 1781              		.loc 1 859 0
 1782 02a0 FA79     		ldrb	r2, [r7, #7]	@ zero_extendqisi2
 1783 02a2 46F28703 		movw	r3, #:lower16:1073766535
 1784 02a6 C4F20003 		movt	r3, #:upper16:1073766535
 1785 02aa 1344     		add	r3, r2, r3
 1786 02ac 3879     		ldrb	r0, [r7, #4]	@ zero_extendqisi2
 1787 02ae 40F20001 		movw	r1, #:lower16:USB_EP
 1788 02b2 C0F20001 		movt	r1, #:upper16:USB_EP
 1789 02b6 0246     		mov	r2, r0
 1790 02b8 4FEA4202 		lsl	r2, r2, #1
 1791 02bc 0244     		add	r2, r2, r0
 1792 02be 4FEA8202 		lsl	r2, r2, #2
 1793 02c2 0A44     		add	r2, r2, r1
 1794 02c4 02F10602 		add	r2, r2, #6
 1795 02c8 1288     		ldrh	r2, [r2, #0]	@ movhi
 1796 02ca 92B2     		uxth	r2, r2
 1797 02cc 4FEA1222 		lsr	r2, r2, #8
 1798 02d0 92B2     		uxth	r2, r2
 1799 02d2 D2B2     		uxtb	r2, r2
 1800 02d4 1A70     		strb	r2, [r3, #0]
 860:.\Generated_Source\PSoC5/USB_std.c ****                 CY_SET_REG8(&USB_ARB_RW1_WA_PTR[ri],     USB_EP[cur_ep].buffOffset & 0xFFu);
 1801              		.loc 1 860 0
 1802 02d6 FA79     		ldrb	r2, [r7, #7]	@ zero_extendqisi2
 1803 02d8 46F28403 		movw	r3, #:lower16:1073766532
 1804 02dc C4F20003 		movt	r3, #:upper16:1073766532
 1805 02e0 1344     		add	r3, r2, r3
 1806 02e2 3879     		ldrb	r0, [r7, #4]	@ zero_extendqisi2
 1807 02e4 40F20001 		movw	r1, #:lower16:USB_EP
 1808 02e8 C0F20001 		movt	r1, #:upper16:USB_EP
 1809 02ec 0246     		mov	r2, r0
 1810 02ee 4FEA4202 		lsl	r2, r2, #1
 1811 02f2 0244     		add	r2, r2, r0
 1812 02f4 4FEA8202 		lsl	r2, r2, #2
 1813 02f8 0A44     		add	r2, r2, r1
 1814 02fa 02F10602 		add	r2, r2, #6
 1815 02fe 1288     		ldrh	r2, [r2, #0]	@ movhi
ARM GAS  C:\Users\Craig\AppData\Local\Temp\cc9NnIsK.s 			page 48


 1816 0300 92B2     		uxth	r2, r2
 1817 0302 D2B2     		uxtb	r2, r2
 1818 0304 1A70     		strb	r2, [r3, #0]
 861:.\Generated_Source\PSoC5/USB_std.c ****                 CY_SET_REG8(&USB_ARB_RW1_WA_MSB_PTR[ri], USB_EP[cur_ep].buffOffset >> 8u);
 1819              		.loc 1 861 0
 1820 0306 FA79     		ldrb	r2, [r7, #7]	@ zero_extendqisi2
 1821 0308 46F28503 		movw	r3, #:lower16:1073766533
 1822 030c C4F20003 		movt	r3, #:upper16:1073766533
 1823 0310 1344     		add	r3, r2, r3
 1824 0312 3879     		ldrb	r0, [r7, #4]	@ zero_extendqisi2
 1825 0314 40F20001 		movw	r1, #:lower16:USB_EP
 1826 0318 C0F20001 		movt	r1, #:upper16:USB_EP
 1827 031c 0246     		mov	r2, r0
 1828 031e 4FEA4202 		lsl	r2, r2, #1
 1829 0322 0244     		add	r2, r2, r0
 1830 0324 4FEA8202 		lsl	r2, r2, #2
 1831 0328 0A44     		add	r2, r2, r1
 1832 032a 02F10602 		add	r2, r2, #6
 1833 032e 1288     		ldrh	r2, [r2, #0]	@ movhi
 1834 0330 92B2     		uxth	r2, r2
 1835 0332 4FEA1222 		lsr	r2, r2, #8
 1836 0336 92B2     		uxth	r2, r2
 1837 0338 D2B2     		uxtb	r2, r2
 1838 033a 1A70     		strb	r2, [r3, #0]
 1839              	.L87:
 1840              		.loc 1 790 0
 1841 033c 7B79     		ldrb	r3, [r7, #5]
 1842 033e 03F10103 		add	r3, r3, #1
 1843 0342 7B71     		strb	r3, [r7, #5]
 1844 0344 FB68     		ldr	r3, [r7, #12]
 1845 0346 03F10803 		add	r3, r3, #8
 1846 034a FB60     		str	r3, [r7, #12]
 1847              	.L86:
 1848 034c 7A79     		ldrb	r2, [r7, #5]	@ zero_extendqisi2
 1849 034e FB78     		ldrb	r3, [r7, #3]	@ zero_extendqisi2
 1850 0350 9A42     		cmp	r2, r3
 1851 0352 FFF47DAE 		bcc	.L94
 1852              	.L95:
 862:.\Generated_Source\PSoC5/USB_std.c ****                 #endif /* End USB_EP_MM == USB__EP_DMAAUTO */
 863:.\Generated_Source\PSoC5/USB_std.c ****             }
 864:.\Generated_Source\PSoC5/USB_std.c ****         }
 865:.\Generated_Source\PSoC5/USB_std.c ****     } /* USB_configuration > 0 */
 866:.\Generated_Source\PSoC5/USB_std.c **** }
 1853              		.loc 1 866 0
 1854 0356 07F11007 		add	r7, r7, #16
 1855 035a BD46     		mov	sp, r7
 1856 035c 80BD     		pop	{r7, pc}
 1857              		.cfi_endproc
 1858              	.LFE4:
 1859              		.size	USB_ConfigAltChanged, .-USB_ConfigAltChanged
 1860 035e 00BF     		.section	.text.USB_GetConfigTablePtr,"ax",%progbits
 1861              		.align	2
 1862              		.global	USB_GetConfigTablePtr
 1863              		.thumb
 1864              		.thumb_func
 1865              		.type	USB_GetConfigTablePtr, %function
 1866              	USB_GetConfigTablePtr:
ARM GAS  C:\Users\Craig\AppData\Local\Temp\cc9NnIsK.s 			page 49


 1867              	.LFB5:
 867:.\Generated_Source\PSoC5/USB_std.c **** 
 868:.\Generated_Source\PSoC5/USB_std.c **** 
 869:.\Generated_Source\PSoC5/USB_std.c **** /*******************************************************************************
 870:.\Generated_Source\PSoC5/USB_std.c **** * Function Name: USB_GetConfigTablePtr
 871:.\Generated_Source\PSoC5/USB_std.c **** ********************************************************************************
 872:.\Generated_Source\PSoC5/USB_std.c **** *
 873:.\Generated_Source\PSoC5/USB_std.c **** * Summary:
 874:.\Generated_Source\PSoC5/USB_std.c **** *  This routine returns a pointer a configuration table entry
 875:.\Generated_Source\PSoC5/USB_std.c **** *
 876:.\Generated_Source\PSoC5/USB_std.c **** * Parameters:
 877:.\Generated_Source\PSoC5/USB_std.c **** *  c:  Configuration Index
 878:.\Generated_Source\PSoC5/USB_std.c **** *
 879:.\Generated_Source\PSoC5/USB_std.c **** * Return:
 880:.\Generated_Source\PSoC5/USB_std.c **** *  Device Descriptor pointer.
 881:.\Generated_Source\PSoC5/USB_std.c **** *
 882:.\Generated_Source\PSoC5/USB_std.c **** *******************************************************************************/
 883:.\Generated_Source\PSoC5/USB_std.c **** T_USB_LUT *USB_GetConfigTablePtr(uint8 c) \
 884:.\Generated_Source\PSoC5/USB_std.c ****                                                         
 885:.\Generated_Source\PSoC5/USB_std.c **** {
 1868              		.loc 1 885 0
 1869              		.cfi_startproc
 1870              		@ args = 0, pretend = 0, frame = 16
 1871              		@ frame_needed = 1, uses_anonymous_args = 0
 1872 0000 80B5     		push	{r7, lr}
 1873              	.LCFI15:
 1874              		.cfi_def_cfa_offset 8
 1875 0002 84B0     		sub	sp, sp, #16
 1876              	.LCFI16:
 1877              		.cfi_def_cfa_offset 24
 1878 0004 00AF     		add	r7, sp, #0
 1879              		.cfi_offset 14, -4
 1880              		.cfi_offset 7, -8
 1881              	.LCFI17:
 1882              		.cfi_def_cfa_register 7
 1883 0006 0346     		mov	r3, r0
 1884 0008 FB71     		strb	r3, [r7, #7]
 886:.\Generated_Source\PSoC5/USB_std.c ****     /* Device Table */
 887:.\Generated_Source\PSoC5/USB_std.c ****     T_USB_LUT *pTmp;
 888:.\Generated_Source\PSoC5/USB_std.c **** 
 889:.\Generated_Source\PSoC5/USB_std.c ****     pTmp = USB_GetDeviceTablePtr();
 1885              		.loc 1 889 0
 1886 000a FFF7FEFF 		bl	USB_GetDeviceTablePtr
 1887 000e 0346     		mov	r3, r0
 1888 0010 FB60     		str	r3, [r7, #12]
 890:.\Generated_Source\PSoC5/USB_std.c **** 
 891:.\Generated_Source\PSoC5/USB_std.c ****     /* The first entry points to the Device Descriptor,
 892:.\Generated_Source\PSoC5/USB_std.c ****        the the configuration entries  */
 893:.\Generated_Source\PSoC5/USB_std.c ****     return(pTmp[c + 1u].p_list);
 1889              		.loc 1 893 0
 1890 0012 FB79     		ldrb	r3, [r7, #7]	@ zero_extendqisi2
 1891 0014 03F10103 		add	r3, r3, #1
 1892 0018 4FEAC302 		lsl	r2, r3, #3
 1893 001c FB68     		ldr	r3, [r7, #12]
 1894 001e 1344     		add	r3, r2, r3
 1895 0020 5B68     		ldr	r3, [r3, #4]
 894:.\Generated_Source\PSoC5/USB_std.c **** }
ARM GAS  C:\Users\Craig\AppData\Local\Temp\cc9NnIsK.s 			page 50


 1896              		.loc 1 894 0
 1897 0022 1846     		mov	r0, r3
 1898 0024 07F11007 		add	r7, r7, #16
 1899 0028 BD46     		mov	sp, r7
 1900 002a 80BD     		pop	{r7, pc}
 1901              		.cfi_endproc
 1902              	.LFE5:
 1903              		.size	USB_GetConfigTablePtr, .-USB_GetConfigTablePtr
 1904              		.section	.text.USB_GetDeviceTablePtr,"ax",%progbits
 1905              		.align	2
 1906              		.global	USB_GetDeviceTablePtr
 1907              		.thumb
 1908              		.thumb_func
 1909              		.type	USB_GetDeviceTablePtr, %function
 1910              	USB_GetDeviceTablePtr:
 1911              	.LFB6:
 895:.\Generated_Source\PSoC5/USB_std.c **** 
 896:.\Generated_Source\PSoC5/USB_std.c **** 
 897:.\Generated_Source\PSoC5/USB_std.c **** /*******************************************************************************
 898:.\Generated_Source\PSoC5/USB_std.c **** * Function Name: USB_GetDeviceTablePtr
 899:.\Generated_Source\PSoC5/USB_std.c **** ********************************************************************************
 900:.\Generated_Source\PSoC5/USB_std.c **** *
 901:.\Generated_Source\PSoC5/USB_std.c **** * Summary:
 902:.\Generated_Source\PSoC5/USB_std.c **** *  This routine returns a pointer to the Device table
 903:.\Generated_Source\PSoC5/USB_std.c **** *
 904:.\Generated_Source\PSoC5/USB_std.c **** * Parameters:
 905:.\Generated_Source\PSoC5/USB_std.c **** *  None.
 906:.\Generated_Source\PSoC5/USB_std.c **** *
 907:.\Generated_Source\PSoC5/USB_std.c **** * Return:
 908:.\Generated_Source\PSoC5/USB_std.c **** *  Device Table pointer
 909:.\Generated_Source\PSoC5/USB_std.c **** *
 910:.\Generated_Source\PSoC5/USB_std.c **** *******************************************************************************/
 911:.\Generated_Source\PSoC5/USB_std.c **** T_USB_LUT *USB_GetDeviceTablePtr(void) 
 912:.\Generated_Source\PSoC5/USB_std.c **** {
 1912              		.loc 1 912 0
 1913              		.cfi_startproc
 1914              		@ args = 0, pretend = 0, frame = 0
 1915              		@ frame_needed = 1, uses_anonymous_args = 0
 1916              		@ link register save eliminated.
 1917 0000 80B4     		push	{r7}
 1918              	.LCFI18:
 1919              		.cfi_def_cfa_offset 4
 1920 0002 00AF     		add	r7, sp, #0
 1921              		.cfi_offset 7, -4
 1922              	.LCFI19:
 1923              		.cfi_def_cfa_register 7
 913:.\Generated_Source\PSoC5/USB_std.c ****     /* Device Table */
 914:.\Generated_Source\PSoC5/USB_std.c ****     return(USB_TABLE[USB_device].p_list);
 1924              		.loc 1 914 0
 1925 0004 40F20003 		movw	r3, #:lower16:USB_device
 1926 0008 C0F20003 		movt	r3, #:upper16:USB_device
 1927 000c 1B78     		ldrb	r3, [r3, #0]
 1928 000e DBB2     		uxtb	r3, r3
 1929 0010 40F20002 		movw	r2, #:lower16:USB_TABLE
 1930 0014 C0F20002 		movt	r2, #:upper16:USB_TABLE
 1931 0018 4FEAC303 		lsl	r3, r3, #3
 1932 001c 1344     		add	r3, r3, r2
ARM GAS  C:\Users\Craig\AppData\Local\Temp\cc9NnIsK.s 			page 51


 1933 001e 5B68     		ldr	r3, [r3, #4]
 915:.\Generated_Source\PSoC5/USB_std.c **** }
 1934              		.loc 1 915 0
 1935 0020 1846     		mov	r0, r3
 1936 0022 BD46     		mov	sp, r7
 1937 0024 80BC     		pop	{r7}
 1938 0026 7047     		bx	lr
 1939              		.cfi_endproc
 1940              	.LFE6:
 1941              		.size	USB_GetDeviceTablePtr, .-USB_GetDeviceTablePtr
 1942              		.section	.text.USB_GetInterfaceClassTablePtr,"ax",%progbits
 1943              		.align	2
 1944              		.global	USB_GetInterfaceClassTablePtr
 1945              		.thumb
 1946              		.thumb_func
 1947              		.type	USB_GetInterfaceClassTablePtr, %function
 1948              	USB_GetInterfaceClassTablePtr:
 1949              	.LFB7:
 916:.\Generated_Source\PSoC5/USB_std.c **** 
 917:.\Generated_Source\PSoC5/USB_std.c **** 
 918:.\Generated_Source\PSoC5/USB_std.c **** /*******************************************************************************
 919:.\Generated_Source\PSoC5/USB_std.c **** * Function Name: USB_GetInterfaceClassTablePtr
 920:.\Generated_Source\PSoC5/USB_std.c **** ********************************************************************************
 921:.\Generated_Source\PSoC5/USB_std.c **** *
 922:.\Generated_Source\PSoC5/USB_std.c **** * Summary:
 923:.\Generated_Source\PSoC5/USB_std.c **** *  This routine returns Interface Class table pointer, which contains
 924:.\Generated_Source\PSoC5/USB_std.c **** *  the relation between interface number and interface class.
 925:.\Generated_Source\PSoC5/USB_std.c **** *
 926:.\Generated_Source\PSoC5/USB_std.c **** * Parameters:
 927:.\Generated_Source\PSoC5/USB_std.c **** *  None.
 928:.\Generated_Source\PSoC5/USB_std.c **** *
 929:.\Generated_Source\PSoC5/USB_std.c **** * Return:
 930:.\Generated_Source\PSoC5/USB_std.c **** *  Interface Class table pointer.
 931:.\Generated_Source\PSoC5/USB_std.c **** *
 932:.\Generated_Source\PSoC5/USB_std.c **** *******************************************************************************/
 933:.\Generated_Source\PSoC5/USB_std.c **** uint8 CYCODE *USB_GetInterfaceClassTablePtr(void)
 934:.\Generated_Source\PSoC5/USB_std.c ****                                                         
 935:.\Generated_Source\PSoC5/USB_std.c **** {
 1950              		.loc 1 935 0
 1951              		.cfi_startproc
 1952              		@ args = 0, pretend = 0, frame = 8
 1953              		@ frame_needed = 1, uses_anonymous_args = 0
 1954 0000 80B5     		push	{r7, lr}
 1955              	.LCFI20:
 1956              		.cfi_def_cfa_offset 8
 1957 0002 82B0     		sub	sp, sp, #8
 1958              	.LCFI21:
 1959              		.cfi_def_cfa_offset 16
 1960 0004 00AF     		add	r7, sp, #0
 1961              		.cfi_offset 14, -4
 1962              		.cfi_offset 7, -8
 1963              	.LCFI22:
 1964              		.cfi_def_cfa_register 7
 936:.\Generated_Source\PSoC5/USB_std.c ****     T_USB_LUT *pTmp;
 937:.\Generated_Source\PSoC5/USB_std.c ****     uint8 currentInterfacesNum;
 938:.\Generated_Source\PSoC5/USB_std.c **** 
 939:.\Generated_Source\PSoC5/USB_std.c ****     pTmp = USB_GetConfigTablePtr(USB_configuration - 1u);
ARM GAS  C:\Users\Craig\AppData\Local\Temp\cc9NnIsK.s 			page 52


 1965              		.loc 1 939 0
 1966 0006 40F20003 		movw	r3, #:lower16:USB_configuration
 1967 000a C0F20003 		movt	r3, #:upper16:USB_configuration
 1968 000e 1B78     		ldrb	r3, [r3, #0]
 1969 0010 DBB2     		uxtb	r3, r3
 1970 0012 03F1FF33 		add	r3, r3, #-1
 1971 0016 DBB2     		uxtb	r3, r3
 1972 0018 1846     		mov	r0, r3
 1973 001a FFF7FEFF 		bl	USB_GetConfigTablePtr
 1974 001e 0346     		mov	r3, r0
 1975 0020 3B60     		str	r3, [r7, #0]
 940:.\Generated_Source\PSoC5/USB_std.c ****     currentInterfacesNum  = ((uint8 *) pTmp->p_list)[USB_CONFIG_DESCR_NUM_INTERFACES];
 1976              		.loc 1 940 0
 1977 0022 3B68     		ldr	r3, [r7, #0]
 1978 0024 5B68     		ldr	r3, [r3, #4]
 1979 0026 03F10403 		add	r3, r3, #4
 1980 002a 1B78     		ldrb	r3, [r3, #0]
 1981 002c FB71     		strb	r3, [r7, #7]
 941:.\Generated_Source\PSoC5/USB_std.c ****     /* Third entry in the LUT starts the Interface Table pointers */
 942:.\Generated_Source\PSoC5/USB_std.c ****     pTmp += 2;
 1982              		.loc 1 942 0
 1983 002e 3B68     		ldr	r3, [r7, #0]
 1984 0030 03F11003 		add	r3, r3, #16
 1985 0034 3B60     		str	r3, [r7, #0]
 943:.\Generated_Source\PSoC5/USB_std.c ****     /* The INTERFACE_CLASS table is located after all interfaces*/
 944:.\Generated_Source\PSoC5/USB_std.c ****     pTmp += currentInterfacesNum;
 1986              		.loc 1 944 0
 1987 0036 FB79     		ldrb	r3, [r7, #7]	@ zero_extendqisi2
 1988 0038 4FEAC303 		lsl	r3, r3, #3
 1989 003c 3A68     		ldr	r2, [r7, #0]
 1990 003e 1344     		add	r3, r2, r3
 1991 0040 3B60     		str	r3, [r7, #0]
 945:.\Generated_Source\PSoC5/USB_std.c ****     return(pTmp->p_list);
 1992              		.loc 1 945 0
 1993 0042 3B68     		ldr	r3, [r7, #0]
 1994 0044 5B68     		ldr	r3, [r3, #4]
 946:.\Generated_Source\PSoC5/USB_std.c **** }
 1995              		.loc 1 946 0
 1996 0046 1846     		mov	r0, r3
 1997 0048 07F10807 		add	r7, r7, #8
 1998 004c BD46     		mov	sp, r7
 1999 004e 80BD     		pop	{r7, pc}
 2000              		.cfi_endproc
 2001              	.LFE7:
 2002              		.size	USB_GetInterfaceClassTablePtr, .-USB_GetInterfaceClassTablePtr
 2003              		.section	.text.USB_TerminateEP,"ax",%progbits
 2004              		.align	2
 2005              		.global	USB_TerminateEP
 2006              		.thumb
 2007              		.thumb_func
 2008              		.type	USB_TerminateEP, %function
 2009              	USB_TerminateEP:
 2010              	.LFB8:
 947:.\Generated_Source\PSoC5/USB_std.c **** 
 948:.\Generated_Source\PSoC5/USB_std.c **** 
 949:.\Generated_Source\PSoC5/USB_std.c **** /*******************************************************************************
 950:.\Generated_Source\PSoC5/USB_std.c **** * Function Name: USB_TerminateEP
ARM GAS  C:\Users\Craig\AppData\Local\Temp\cc9NnIsK.s 			page 53


 951:.\Generated_Source\PSoC5/USB_std.c **** ********************************************************************************
 952:.\Generated_Source\PSoC5/USB_std.c **** *
 953:.\Generated_Source\PSoC5/USB_std.c **** * Summary:
 954:.\Generated_Source\PSoC5/USB_std.c **** *  This function terminates the specified USBFS endpoint. 
 955:.\Generated_Source\PSoC5/USB_std.c **** *  This function should be used before endpoint reconfiguration.
 956:.\Generated_Source\PSoC5/USB_std.c **** *
 957:.\Generated_Source\PSoC5/USB_std.c **** * Parameters:
 958:.\Generated_Source\PSoC5/USB_std.c **** *  Endpoint number.
 959:.\Generated_Source\PSoC5/USB_std.c **** *
 960:.\Generated_Source\PSoC5/USB_std.c **** * Return:
 961:.\Generated_Source\PSoC5/USB_std.c **** *  None.
 962:.\Generated_Source\PSoC5/USB_std.c **** *
 963:.\Generated_Source\PSoC5/USB_std.c **** * Reentrant:
 964:.\Generated_Source\PSoC5/USB_std.c **** *  No.
 965:.\Generated_Source\PSoC5/USB_std.c **** *
 966:.\Generated_Source\PSoC5/USB_std.c **** *******************************************************************************/
 967:.\Generated_Source\PSoC5/USB_std.c **** void USB_TerminateEP(uint8 ep) 
 968:.\Generated_Source\PSoC5/USB_std.c **** {
 2011              		.loc 1 968 0
 2012              		.cfi_startproc
 2013              		@ args = 0, pretend = 0, frame = 16
 2014              		@ frame_needed = 1, uses_anonymous_args = 0
 2015              		@ link register save eliminated.
 2016 0000 80B4     		push	{r7}
 2017              	.LCFI23:
 2018              		.cfi_def_cfa_offset 4
 2019 0002 85B0     		sub	sp, sp, #20
 2020              	.LCFI24:
 2021              		.cfi_def_cfa_offset 24
 2022 0004 00AF     		add	r7, sp, #0
 2023              		.cfi_offset 7, -4
 2024              	.LCFI25:
 2025              		.cfi_def_cfa_register 7
 2026 0006 0346     		mov	r3, r0
 2027 0008 FB71     		strb	r3, [r7, #7]
 969:.\Generated_Source\PSoC5/USB_std.c ****     uint8 ri;
 970:.\Generated_Source\PSoC5/USB_std.c **** 
 971:.\Generated_Source\PSoC5/USB_std.c ****     ep &= USB_DIR_UNUSED;
 2028              		.loc 1 971 0
 2029 000a FB79     		ldrb	r3, [r7, #7]
 2030 000c 03F07F03 		and	r3, r3, #127
 2031 0010 FB71     		strb	r3, [r7, #7]
 972:.\Generated_Source\PSoC5/USB_std.c ****     ri = ((ep - USB_EP1) << USB_EPX_CNTX_ADDR_SHIFT);
 2032              		.loc 1 972 0
 2033 0012 FB79     		ldrb	r3, [r7, #7]
 2034 0014 03F1FF33 		add	r3, r3, #-1
 2035 0018 DBB2     		uxtb	r3, r3
 2036 001a 4FEA0313 		lsl	r3, r3, #4
 2037 001e FB73     		strb	r3, [r7, #15]
 973:.\Generated_Source\PSoC5/USB_std.c **** 
 974:.\Generated_Source\PSoC5/USB_std.c ****     if ((ep > USB_EP0) && (ep < USB_MAX_EP))
 2038              		.loc 1 974 0
 2039 0020 FB79     		ldrb	r3, [r7, #7]	@ zero_extendqisi2
 2040 0022 002B     		cmp	r3, #0
 2041 0024 63D0     		beq	.L105
 2042 0026 FB79     		ldrb	r3, [r7, #7]	@ zero_extendqisi2
 2043 0028 082B     		cmp	r3, #8
ARM GAS  C:\Users\Craig\AppData\Local\Temp\cc9NnIsK.s 			page 54


 2044 002a 60D8     		bhi	.L105
 975:.\Generated_Source\PSoC5/USB_std.c ****     {
 976:.\Generated_Source\PSoC5/USB_std.c ****         /* Set the endpoint Halt */
 977:.\Generated_Source\PSoC5/USB_std.c ****         USB_EP[ep].hwEpState |= (USB_ENDPOINT_STATUS_HALT);
 2045              		.loc 1 977 0
 2046 002c F979     		ldrb	r1, [r7, #7]	@ zero_extendqisi2
 2047 002e F879     		ldrb	r0, [r7, #7]	@ zero_extendqisi2
 2048 0030 40F20002 		movw	r2, #:lower16:USB_EP
 2049 0034 C0F20002 		movt	r2, #:upper16:USB_EP
 2050 0038 0346     		mov	r3, r0
 2051 003a 4FEA4303 		lsl	r3, r3, #1
 2052 003e 0344     		add	r3, r3, r0
 2053 0040 4FEA8303 		lsl	r3, r3, #2
 2054 0044 1344     		add	r3, r3, r2
 2055 0046 9B78     		ldrb	r3, [r3, #2]
 2056 0048 DBB2     		uxtb	r3, r3
 2057 004a 43F00103 		orr	r3, r3, #1
 2058 004e D8B2     		uxtb	r0, r3
 2059 0050 40F20002 		movw	r2, #:lower16:USB_EP
 2060 0054 C0F20002 		movt	r2, #:upper16:USB_EP
 2061 0058 0B46     		mov	r3, r1
 2062 005a 4FEA4303 		lsl	r3, r3, #1
 2063 005e 0B44     		add	r3, r3, r1
 2064 0060 4FEA8303 		lsl	r3, r3, #2
 2065 0064 1344     		add	r3, r3, r2
 2066 0066 0246     		mov	r2, r0
 2067 0068 9A70     		strb	r2, [r3, #2]
 978:.\Generated_Source\PSoC5/USB_std.c **** 
 979:.\Generated_Source\PSoC5/USB_std.c ****         /* Clear the data toggle */
 980:.\Generated_Source\PSoC5/USB_std.c ****         USB_EP[ep].epToggle = 0u;
 2068              		.loc 1 980 0
 2069 006a F979     		ldrb	r1, [r7, #7]	@ zero_extendqisi2
 2070 006c 40F20002 		movw	r2, #:lower16:USB_EP
 2071 0070 C0F20002 		movt	r2, #:upper16:USB_EP
 2072 0074 0B46     		mov	r3, r1
 2073 0076 4FEA4303 		lsl	r3, r3, #1
 2074 007a 0B44     		add	r3, r3, r1
 2075 007c 4FEA8303 		lsl	r3, r3, #2
 2076 0080 1344     		add	r3, r3, r2
 2077 0082 4FF00002 		mov	r2, #0
 2078 0086 DA70     		strb	r2, [r3, #3]
 981:.\Generated_Source\PSoC5/USB_std.c ****         USB_EP[ep].apiEpState = USB_NO_EVENT_ALLOWED;
 2079              		.loc 1 981 0
 2080 0088 F979     		ldrb	r1, [r7, #7]	@ zero_extendqisi2
 2081 008a 40F20002 		movw	r2, #:lower16:USB_EP
 2082 008e C0F20002 		movt	r2, #:upper16:USB_EP
 2083 0092 0B46     		mov	r3, r1
 2084 0094 4FEA4303 		lsl	r3, r3, #1
 2085 0098 0B44     		add	r3, r3, r1
 2086 009a 4FEA8303 		lsl	r3, r3, #2
 2087 009e 1344     		add	r3, r3, r2
 2088 00a0 4FF00202 		mov	r2, #2
 2089 00a4 5A70     		strb	r2, [r3, #1]
 982:.\Generated_Source\PSoC5/USB_std.c **** 
 983:.\Generated_Source\PSoC5/USB_std.c ****         if (USB_EP[ep].addr & USB_DIR_IN)
 2090              		.loc 1 983 0
 2091 00a6 F979     		ldrb	r1, [r7, #7]	@ zero_extendqisi2
ARM GAS  C:\Users\Craig\AppData\Local\Temp\cc9NnIsK.s 			page 55


 2092 00a8 40F20002 		movw	r2, #:lower16:USB_EP
 2093 00ac C0F20002 		movt	r2, #:upper16:USB_EP
 2094 00b0 0B46     		mov	r3, r1
 2095 00b2 4FEA4303 		lsl	r3, r3, #1
 2096 00b6 0B44     		add	r3, r3, r1
 2097 00b8 4FEA8303 		lsl	r3, r3, #2
 2098 00bc 1344     		add	r3, r3, r2
 2099 00be 1B79     		ldrb	r3, [r3, #4]
 2100 00c0 DBB2     		uxtb	r3, r3
 2101 00c2 5BB2     		sxtb	r3, r3
 2102 00c4 002B     		cmp	r3, #0
 2103 00c6 09DA     		bge	.L104
 984:.\Generated_Source\PSoC5/USB_std.c ****         {
 985:.\Generated_Source\PSoC5/USB_std.c ****             /* IN Endpoint */
 986:.\Generated_Source\PSoC5/USB_std.c ****             CY_SET_REG8(&USB_SIE_EP1_CR0_PTR[ri], USB_MODE_NAK_IN);
 2104              		.loc 1 986 0
 2105 00c8 FA7B     		ldrb	r2, [r7, #15]	@ zero_extendqisi2
 2106 00ca 46F20E03 		movw	r3, #:lower16:1073766414
 2107 00ce C4F20003 		movt	r3, #:upper16:1073766414
 2108 00d2 1344     		add	r3, r2, r3
 2109 00d4 4FF00C02 		mov	r2, #12
 2110 00d8 1A70     		strb	r2, [r3, #0]
 2111 00da 08E0     		b	.L105
 2112              	.L104:
 987:.\Generated_Source\PSoC5/USB_std.c ****         }
 988:.\Generated_Source\PSoC5/USB_std.c ****         else
 989:.\Generated_Source\PSoC5/USB_std.c ****         {
 990:.\Generated_Source\PSoC5/USB_std.c ****             /* OUT Endpoint */
 991:.\Generated_Source\PSoC5/USB_std.c ****             CY_SET_REG8(&USB_SIE_EP1_CR0_PTR[ri], USB_MODE_NAK_OUT);
 2113              		.loc 1 991 0
 2114 00dc FA7B     		ldrb	r2, [r7, #15]	@ zero_extendqisi2
 2115 00de 46F20E03 		movw	r3, #:lower16:1073766414
 2116 00e2 C4F20003 		movt	r3, #:upper16:1073766414
 2117 00e6 1344     		add	r3, r2, r3
 2118 00e8 4FF00802 		mov	r2, #8
 2119 00ec 1A70     		strb	r2, [r3, #0]
 2120              	.L105:
 992:.\Generated_Source\PSoC5/USB_std.c ****         }
 993:.\Generated_Source\PSoC5/USB_std.c ****     }
 994:.\Generated_Source\PSoC5/USB_std.c **** }
 2121              		.loc 1 994 0
 2122 00ee 07F11407 		add	r7, r7, #20
 2123 00f2 BD46     		mov	sp, r7
 2124 00f4 80BC     		pop	{r7}
 2125 00f6 7047     		bx	lr
 2126              		.cfi_endproc
 2127              	.LFE8:
 2128              		.size	USB_TerminateEP, .-USB_TerminateEP
 2129              		.section	.text.USB_SetEndpointHalt,"ax",%progbits
 2130              		.align	2
 2131              		.global	USB_SetEndpointHalt
 2132              		.thumb
 2133              		.thumb_func
 2134              		.type	USB_SetEndpointHalt, %function
 2135              	USB_SetEndpointHalt:
 2136              	.LFB9:
 995:.\Generated_Source\PSoC5/USB_std.c **** 
ARM GAS  C:\Users\Craig\AppData\Local\Temp\cc9NnIsK.s 			page 56


 996:.\Generated_Source\PSoC5/USB_std.c **** 
 997:.\Generated_Source\PSoC5/USB_std.c **** /*******************************************************************************
 998:.\Generated_Source\PSoC5/USB_std.c **** * Function Name: USB_SetEndpointHalt
 999:.\Generated_Source\PSoC5/USB_std.c **** ********************************************************************************
1000:.\Generated_Source\PSoC5/USB_std.c **** *
1001:.\Generated_Source\PSoC5/USB_std.c **** * Summary:
1002:.\Generated_Source\PSoC5/USB_std.c **** *  This routine handles set endpoint halt.
1003:.\Generated_Source\PSoC5/USB_std.c **** *
1004:.\Generated_Source\PSoC5/USB_std.c **** * Parameters:
1005:.\Generated_Source\PSoC5/USB_std.c **** *  None.
1006:.\Generated_Source\PSoC5/USB_std.c **** *
1007:.\Generated_Source\PSoC5/USB_std.c **** * Return:
1008:.\Generated_Source\PSoC5/USB_std.c **** *  requestHandled.
1009:.\Generated_Source\PSoC5/USB_std.c **** *
1010:.\Generated_Source\PSoC5/USB_std.c **** * Reentrant:
1011:.\Generated_Source\PSoC5/USB_std.c **** *  No.
1012:.\Generated_Source\PSoC5/USB_std.c **** *
1013:.\Generated_Source\PSoC5/USB_std.c **** *******************************************************************************/
1014:.\Generated_Source\PSoC5/USB_std.c **** uint8 USB_SetEndpointHalt(void) 
1015:.\Generated_Source\PSoC5/USB_std.c **** {
 2137              		.loc 1 1015 0
 2138              		.cfi_startproc
 2139              		@ args = 0, pretend = 0, frame = 8
 2140              		@ frame_needed = 1, uses_anonymous_args = 0
 2141 0000 80B5     		push	{r7, lr}
 2142              	.LCFI26:
 2143              		.cfi_def_cfa_offset 8
 2144 0002 82B0     		sub	sp, sp, #8
 2145              	.LCFI27:
 2146              		.cfi_def_cfa_offset 16
 2147 0004 00AF     		add	r7, sp, #0
 2148              		.cfi_offset 14, -4
 2149              		.cfi_offset 7, -8
 2150              	.LCFI28:
 2151              		.cfi_def_cfa_register 7
1016:.\Generated_Source\PSoC5/USB_std.c ****     uint8 ep, ri;
1017:.\Generated_Source\PSoC5/USB_std.c ****     uint8 requestHandled = USB_FALSE;
 2152              		.loc 1 1017 0
 2153 0006 4FF00003 		mov	r3, #0
 2154 000a FB71     		strb	r3, [r7, #7]
1018:.\Generated_Source\PSoC5/USB_std.c **** 
1019:.\Generated_Source\PSoC5/USB_std.c ****     /* Set endpoint halt */
1020:.\Generated_Source\PSoC5/USB_std.c ****     ep = CY_GET_REG8(USB_wIndexLo) & USB_DIR_UNUSED;
 2155              		.loc 1 1020 0
 2156 000c 46F20403 		movw	r3, #:lower16:1073766404
 2157 0010 C4F20003 		movt	r3, #:upper16:1073766404
 2158 0014 1B78     		ldrb	r3, [r3, #0]
 2159 0016 DBB2     		uxtb	r3, r3
 2160 0018 03F07F03 		and	r3, r3, #127
 2161 001c 7B71     		strb	r3, [r7, #5]
1021:.\Generated_Source\PSoC5/USB_std.c ****     ri = ((ep - USB_EP1) << USB_EPX_CNTX_ADDR_SHIFT);
 2162              		.loc 1 1021 0
 2163 001e 7B79     		ldrb	r3, [r7, #5]
 2164 0020 03F1FF33 		add	r3, r3, #-1
 2165 0024 DBB2     		uxtb	r3, r3
 2166 0026 4FEA0313 		lsl	r3, r3, #4
 2167 002a BB71     		strb	r3, [r7, #6]
ARM GAS  C:\Users\Craig\AppData\Local\Temp\cc9NnIsK.s 			page 57


1022:.\Generated_Source\PSoC5/USB_std.c **** 
1023:.\Generated_Source\PSoC5/USB_std.c ****     if ((ep > USB_EP0) && (ep < USB_MAX_EP))
 2168              		.loc 1 1023 0
 2169 002c 7B79     		ldrb	r3, [r7, #5]	@ zero_extendqisi2
 2170 002e 002B     		cmp	r3, #0
 2171 0030 77D0     		beq	.L107
 2172 0032 7B79     		ldrb	r3, [r7, #5]	@ zero_extendqisi2
 2173 0034 082B     		cmp	r3, #8
 2174 0036 74D8     		bhi	.L107
1024:.\Generated_Source\PSoC5/USB_std.c ****     {
1025:.\Generated_Source\PSoC5/USB_std.c ****         /* Set the endpoint Halt */
1026:.\Generated_Source\PSoC5/USB_std.c ****         USB_EP[ep].hwEpState |= (USB_ENDPOINT_STATUS_HALT);
 2175              		.loc 1 1026 0
 2176 0038 7979     		ldrb	r1, [r7, #5]	@ zero_extendqisi2
 2177 003a 7879     		ldrb	r0, [r7, #5]	@ zero_extendqisi2
 2178 003c 40F20002 		movw	r2, #:lower16:USB_EP
 2179 0040 C0F20002 		movt	r2, #:upper16:USB_EP
 2180 0044 0346     		mov	r3, r0
 2181 0046 4FEA4303 		lsl	r3, r3, #1
 2182 004a 0344     		add	r3, r3, r0
 2183 004c 4FEA8303 		lsl	r3, r3, #2
 2184 0050 1344     		add	r3, r3, r2
 2185 0052 9B78     		ldrb	r3, [r3, #2]
 2186 0054 DBB2     		uxtb	r3, r3
 2187 0056 43F00103 		orr	r3, r3, #1
 2188 005a D8B2     		uxtb	r0, r3
 2189 005c 40F20002 		movw	r2, #:lower16:USB_EP
 2190 0060 C0F20002 		movt	r2, #:upper16:USB_EP
 2191 0064 0B46     		mov	r3, r1
 2192 0066 4FEA4303 		lsl	r3, r3, #1
 2193 006a 0B44     		add	r3, r3, r1
 2194 006c 4FEA8303 		lsl	r3, r3, #2
 2195 0070 1344     		add	r3, r3, r2
 2196 0072 0246     		mov	r2, r0
 2197 0074 9A70     		strb	r2, [r3, #2]
1027:.\Generated_Source\PSoC5/USB_std.c **** 
1028:.\Generated_Source\PSoC5/USB_std.c ****         /* Clear the data toggle */
1029:.\Generated_Source\PSoC5/USB_std.c ****         USB_EP[ep].epToggle = 0u;
 2198              		.loc 1 1029 0
 2199 0076 7979     		ldrb	r1, [r7, #5]	@ zero_extendqisi2
 2200 0078 40F20002 		movw	r2, #:lower16:USB_EP
 2201 007c C0F20002 		movt	r2, #:upper16:USB_EP
 2202 0080 0B46     		mov	r3, r1
 2203 0082 4FEA4303 		lsl	r3, r3, #1
 2204 0086 0B44     		add	r3, r3, r1
 2205 0088 4FEA8303 		lsl	r3, r3, #2
 2206 008c 1344     		add	r3, r3, r2
 2207 008e 4FF00002 		mov	r2, #0
 2208 0092 DA70     		strb	r2, [r3, #3]
1030:.\Generated_Source\PSoC5/USB_std.c ****         USB_EP[ep].apiEpState |= USB_NO_EVENT_ALLOWED;
 2209              		.loc 1 1030 0
 2210 0094 7979     		ldrb	r1, [r7, #5]	@ zero_extendqisi2
 2211 0096 7879     		ldrb	r0, [r7, #5]	@ zero_extendqisi2
 2212 0098 40F20002 		movw	r2, #:lower16:USB_EP
 2213 009c C0F20002 		movt	r2, #:upper16:USB_EP
 2214 00a0 0346     		mov	r3, r0
 2215 00a2 4FEA4303 		lsl	r3, r3, #1
ARM GAS  C:\Users\Craig\AppData\Local\Temp\cc9NnIsK.s 			page 58


 2216 00a6 0344     		add	r3, r3, r0
 2217 00a8 4FEA8303 		lsl	r3, r3, #2
 2218 00ac 1344     		add	r3, r3, r2
 2219 00ae 5B78     		ldrb	r3, [r3, #1]
 2220 00b0 DBB2     		uxtb	r3, r3
 2221 00b2 43F00203 		orr	r3, r3, #2
 2222 00b6 D8B2     		uxtb	r0, r3
 2223 00b8 40F20002 		movw	r2, #:lower16:USB_EP
 2224 00bc C0F20002 		movt	r2, #:upper16:USB_EP
 2225 00c0 0B46     		mov	r3, r1
 2226 00c2 4FEA4303 		lsl	r3, r3, #1
 2227 00c6 0B44     		add	r3, r3, r1
 2228 00c8 4FEA8303 		lsl	r3, r3, #2
 2229 00cc 1344     		add	r3, r3, r2
 2230 00ce 0246     		mov	r2, r0
 2231 00d0 5A70     		strb	r2, [r3, #1]
1031:.\Generated_Source\PSoC5/USB_std.c **** 
1032:.\Generated_Source\PSoC5/USB_std.c ****         if (USB_EP[ep].addr & USB_DIR_IN)
 2232              		.loc 1 1032 0
 2233 00d2 7979     		ldrb	r1, [r7, #5]	@ zero_extendqisi2
 2234 00d4 40F20002 		movw	r2, #:lower16:USB_EP
 2235 00d8 C0F20002 		movt	r2, #:upper16:USB_EP
 2236 00dc 0B46     		mov	r3, r1
 2237 00de 4FEA4303 		lsl	r3, r3, #1
 2238 00e2 0B44     		add	r3, r3, r1
 2239 00e4 4FEA8303 		lsl	r3, r3, #2
 2240 00e8 1344     		add	r3, r3, r2
 2241 00ea 1B79     		ldrb	r3, [r3, #4]
 2242 00ec DBB2     		uxtb	r3, r3
 2243 00ee 5BB2     		sxtb	r3, r3
 2244 00f0 002B     		cmp	r3, #0
 2245 00f2 09DA     		bge	.L108
1033:.\Generated_Source\PSoC5/USB_std.c ****         {
1034:.\Generated_Source\PSoC5/USB_std.c ****             /* IN Endpoint */
1035:.\Generated_Source\PSoC5/USB_std.c ****             CY_SET_REG8(&USB_SIE_EP1_CR0_PTR[ri], USB_MODE_STALL_DATA_EP |
 2246              		.loc 1 1035 0
 2247 00f4 BA79     		ldrb	r2, [r7, #6]	@ zero_extendqisi2
 2248 00f6 46F20E03 		movw	r3, #:lower16:1073766414
 2249 00fa C4F20003 		movt	r3, #:upper16:1073766414
 2250 00fe 1344     		add	r3, r2, r3
 2251 0100 6FF07202 		mvn	r2, #114
 2252 0104 1A70     		strb	r2, [r3, #0]
 2253 0106 08E0     		b	.L109
 2254              	.L108:
1036:.\Generated_Source\PSoC5/USB_std.c ****                                                                USB_MODE_ACK_IN);
1037:.\Generated_Source\PSoC5/USB_std.c ****         }
1038:.\Generated_Source\PSoC5/USB_std.c ****         else
1039:.\Generated_Source\PSoC5/USB_std.c ****         {
1040:.\Generated_Source\PSoC5/USB_std.c ****             /* OUT Endpoint */
1041:.\Generated_Source\PSoC5/USB_std.c ****             CY_SET_REG8(&USB_SIE_EP1_CR0_PTR[ri], USB_MODE_STALL_DATA_EP |
 2255              		.loc 1 1041 0
 2256 0108 BA79     		ldrb	r2, [r7, #6]	@ zero_extendqisi2
 2257 010a 46F20E03 		movw	r3, #:lower16:1073766414
 2258 010e C4F20003 		movt	r3, #:upper16:1073766414
 2259 0112 1344     		add	r3, r2, r3
 2260 0114 6FF07602 		mvn	r2, #118
 2261 0118 1A70     		strb	r2, [r3, #0]
ARM GAS  C:\Users\Craig\AppData\Local\Temp\cc9NnIsK.s 			page 59


 2262              	.L109:
1042:.\Generated_Source\PSoC5/USB_std.c ****                                                                USB_MODE_ACK_OUT);
1043:.\Generated_Source\PSoC5/USB_std.c ****         }
1044:.\Generated_Source\PSoC5/USB_std.c ****         requestHandled = USB_InitNoDataControlTransfer();
 2263              		.loc 1 1044 0
 2264 011a FFF7FEFF 		bl	USB_InitNoDataControlTransfer
 2265 011e 0346     		mov	r3, r0
 2266 0120 FB71     		strb	r3, [r7, #7]
 2267              	.L107:
1045:.\Generated_Source\PSoC5/USB_std.c ****     }
1046:.\Generated_Source\PSoC5/USB_std.c **** 
1047:.\Generated_Source\PSoC5/USB_std.c ****     return(requestHandled);
 2268              		.loc 1 1047 0
 2269 0122 FB79     		ldrb	r3, [r7, #7]	@ zero_extendqisi2
1048:.\Generated_Source\PSoC5/USB_std.c **** }
 2270              		.loc 1 1048 0
 2271 0124 1846     		mov	r0, r3
 2272 0126 07F10807 		add	r7, r7, #8
 2273 012a BD46     		mov	sp, r7
 2274 012c 80BD     		pop	{r7, pc}
 2275              		.cfi_endproc
 2276              	.LFE9:
 2277              		.size	USB_SetEndpointHalt, .-USB_SetEndpointHalt
 2278 012e 00BF     		.section	.text.USB_ClearEndpointHalt,"ax",%progbits
 2279              		.align	2
 2280              		.global	USB_ClearEndpointHalt
 2281              		.thumb
 2282              		.thumb_func
 2283              		.type	USB_ClearEndpointHalt, %function
 2284              	USB_ClearEndpointHalt:
 2285              	.LFB10:
1049:.\Generated_Source\PSoC5/USB_std.c **** 
1050:.\Generated_Source\PSoC5/USB_std.c **** 
1051:.\Generated_Source\PSoC5/USB_std.c **** /*******************************************************************************
1052:.\Generated_Source\PSoC5/USB_std.c **** * Function Name: USB_ClearEndpointHalt
1053:.\Generated_Source\PSoC5/USB_std.c **** ********************************************************************************
1054:.\Generated_Source\PSoC5/USB_std.c **** *
1055:.\Generated_Source\PSoC5/USB_std.c **** * Summary:
1056:.\Generated_Source\PSoC5/USB_std.c **** *  This routine handles clear endpoint halt.
1057:.\Generated_Source\PSoC5/USB_std.c **** *
1058:.\Generated_Source\PSoC5/USB_std.c **** * Parameters:
1059:.\Generated_Source\PSoC5/USB_std.c **** *  None.
1060:.\Generated_Source\PSoC5/USB_std.c **** *
1061:.\Generated_Source\PSoC5/USB_std.c **** * Return:
1062:.\Generated_Source\PSoC5/USB_std.c **** *  requestHandled.
1063:.\Generated_Source\PSoC5/USB_std.c **** *
1064:.\Generated_Source\PSoC5/USB_std.c **** * Reentrant:
1065:.\Generated_Source\PSoC5/USB_std.c **** *  No.
1066:.\Generated_Source\PSoC5/USB_std.c **** *
1067:.\Generated_Source\PSoC5/USB_std.c **** *******************************************************************************/
1068:.\Generated_Source\PSoC5/USB_std.c **** uint8 USB_ClearEndpointHalt(void) 
1069:.\Generated_Source\PSoC5/USB_std.c **** {
 2286              		.loc 1 1069 0
 2287              		.cfi_startproc
 2288              		@ args = 0, pretend = 0, frame = 8
 2289              		@ frame_needed = 1, uses_anonymous_args = 0
 2290 0000 80B5     		push	{r7, lr}
ARM GAS  C:\Users\Craig\AppData\Local\Temp\cc9NnIsK.s 			page 60


 2291              	.LCFI29:
 2292              		.cfi_def_cfa_offset 8
 2293 0002 82B0     		sub	sp, sp, #8
 2294              	.LCFI30:
 2295              		.cfi_def_cfa_offset 16
 2296 0004 00AF     		add	r7, sp, #0
 2297              		.cfi_offset 14, -4
 2298              		.cfi_offset 7, -8
 2299              	.LCFI31:
 2300              		.cfi_def_cfa_register 7
1070:.\Generated_Source\PSoC5/USB_std.c ****     uint8 ep, ri;
1071:.\Generated_Source\PSoC5/USB_std.c ****     uint8 requestHandled = USB_FALSE;
 2301              		.loc 1 1071 0
 2302 0006 4FF00003 		mov	r3, #0
 2303 000a FB71     		strb	r3, [r7, #7]
1072:.\Generated_Source\PSoC5/USB_std.c **** 
1073:.\Generated_Source\PSoC5/USB_std.c ****     /* Clear endpoint halt */
1074:.\Generated_Source\PSoC5/USB_std.c ****     ep = CY_GET_REG8(USB_wIndexLo) & USB_DIR_UNUSED;
 2304              		.loc 1 1074 0
 2305 000c 46F20403 		movw	r3, #:lower16:1073766404
 2306 0010 C4F20003 		movt	r3, #:upper16:1073766404
 2307 0014 1B78     		ldrb	r3, [r3, #0]
 2308 0016 DBB2     		uxtb	r3, r3
 2309 0018 03F07F03 		and	r3, r3, #127
 2310 001c 7B71     		strb	r3, [r7, #5]
1075:.\Generated_Source\PSoC5/USB_std.c ****     ri = ((ep - USB_EP1) << USB_EPX_CNTX_ADDR_SHIFT);
 2311              		.loc 1 1075 0
 2312 001e 7B79     		ldrb	r3, [r7, #5]
 2313 0020 03F1FF33 		add	r3, r3, #-1
 2314 0024 DBB2     		uxtb	r3, r3
 2315 0026 4FEA0313 		lsl	r3, r3, #4
 2316 002a BB71     		strb	r3, [r7, #6]
1076:.\Generated_Source\PSoC5/USB_std.c **** 
1077:.\Generated_Source\PSoC5/USB_std.c ****     if ((ep > USB_EP0) && (ep < USB_MAX_EP))
 2317              		.loc 1 1077 0
 2318 002c 7B79     		ldrb	r3, [r7, #5]	@ zero_extendqisi2
 2319 002e 002B     		cmp	r3, #0
 2320 0030 00F0BC80 		beq	.L112
 2321 0034 7B79     		ldrb	r3, [r7, #5]	@ zero_extendqisi2
 2322 0036 082B     		cmp	r3, #8
 2323 0038 00F2B880 		bhi	.L112
1078:.\Generated_Source\PSoC5/USB_std.c ****     {
1079:.\Generated_Source\PSoC5/USB_std.c ****         /* Clear the endpoint Halt */
1080:.\Generated_Source\PSoC5/USB_std.c ****         USB_EP[ep].hwEpState &= ~(USB_ENDPOINT_STATUS_HALT);
 2324              		.loc 1 1080 0
 2325 003c 7879     		ldrb	r0, [r7, #5]	@ zero_extendqisi2
 2326 003e 7979     		ldrb	r1, [r7, #5]	@ zero_extendqisi2
 2327 0040 40F20002 		movw	r2, #:lower16:USB_EP
 2328 0044 C0F20002 		movt	r2, #:upper16:USB_EP
 2329 0048 0B46     		mov	r3, r1
 2330 004a 4FEA4303 		lsl	r3, r3, #1
 2331 004e 0B44     		add	r3, r3, r1
 2332 0050 4FEA8303 		lsl	r3, r3, #2
 2333 0054 1344     		add	r3, r3, r2
 2334 0056 9B78     		ldrb	r3, [r3, #2]
 2335 0058 DBB2     		uxtb	r3, r3
 2336 005a 1A46     		mov	r2, r3
ARM GAS  C:\Users\Craig\AppData\Local\Temp\cc9NnIsK.s 			page 61


 2337 005c 02F0FE02 		and	r2, r2, #254
 2338 0060 40F20001 		movw	r1, #:lower16:USB_EP
 2339 0064 C0F20001 		movt	r1, #:upper16:USB_EP
 2340 0068 0346     		mov	r3, r0
 2341 006a 4FEA4303 		lsl	r3, r3, #1
 2342 006e 0344     		add	r3, r3, r0
 2343 0070 4FEA8303 		lsl	r3, r3, #2
 2344 0074 0B44     		add	r3, r3, r1
 2345 0076 9A70     		strb	r2, [r3, #2]
1081:.\Generated_Source\PSoC5/USB_std.c **** 
1082:.\Generated_Source\PSoC5/USB_std.c ****         /* Clear the data toggle */
1083:.\Generated_Source\PSoC5/USB_std.c ****         USB_EP[ep].epToggle = 0u;
 2346              		.loc 1 1083 0
 2347 0078 7979     		ldrb	r1, [r7, #5]	@ zero_extendqisi2
 2348 007a 40F20002 		movw	r2, #:lower16:USB_EP
 2349 007e C0F20002 		movt	r2, #:upper16:USB_EP
 2350 0082 0B46     		mov	r3, r1
 2351 0084 4FEA4303 		lsl	r3, r3, #1
 2352 0088 0B44     		add	r3, r3, r1
 2353 008a 4FEA8303 		lsl	r3, r3, #2
 2354 008e 1344     		add	r3, r3, r2
 2355 0090 4FF00002 		mov	r2, #0
 2356 0094 DA70     		strb	r2, [r3, #3]
1084:.\Generated_Source\PSoC5/USB_std.c ****         /* Clear toggle bit for already armed packet */
1085:.\Generated_Source\PSoC5/USB_std.c ****         CY_SET_REG8(&USB_SIE_EP1_CNT0_PTR[ri], 
 2357              		.loc 1 1085 0
 2358 0096 BA79     		ldrb	r2, [r7, #6]	@ zero_extendqisi2
 2359 0098 46F20C03 		movw	r3, #:lower16:1073766412
 2360 009c C4F20003 		movt	r3, #:upper16:1073766412
 2361 00a0 1344     		add	r3, r2, r3
 2362 00a2 B979     		ldrb	r1, [r7, #6]	@ zero_extendqisi2
 2363 00a4 46F20C02 		movw	r2, #:lower16:1073766412
 2364 00a8 C4F20002 		movt	r2, #:upper16:1073766412
 2365 00ac 0A44     		add	r2, r1, r2
 2366 00ae 1278     		ldrb	r2, [r2, #0]
 2367 00b0 D2B2     		uxtb	r2, r2
 2368 00b2 02F07F02 		and	r2, r2, #127
 2369 00b6 1A70     		strb	r2, [r3, #0]
1086:.\Generated_Source\PSoC5/USB_std.c ****                     CY_GET_REG8(&USB_SIE_EP1_CNT0_PTR[ri]) & ~USB_EPX_CNT_DATA_TOGGLE);
1087:.\Generated_Source\PSoC5/USB_std.c ****         /* Return api State as it was defined before */
1088:.\Generated_Source\PSoC5/USB_std.c ****         USB_EP[ep].apiEpState &= ~USB_NO_EVENT_ALLOWED;
 2370              		.loc 1 1088 0
 2371 00b8 7879     		ldrb	r0, [r7, #5]	@ zero_extendqisi2
 2372 00ba 7979     		ldrb	r1, [r7, #5]	@ zero_extendqisi2
 2373 00bc 40F20002 		movw	r2, #:lower16:USB_EP
 2374 00c0 C0F20002 		movt	r2, #:upper16:USB_EP
 2375 00c4 0B46     		mov	r3, r1
 2376 00c6 4FEA4303 		lsl	r3, r3, #1
 2377 00ca 0B44     		add	r3, r3, r1
 2378 00cc 4FEA8303 		lsl	r3, r3, #2
 2379 00d0 1344     		add	r3, r3, r2
 2380 00d2 5B78     		ldrb	r3, [r3, #1]
 2381 00d4 DBB2     		uxtb	r3, r3
 2382 00d6 1A46     		mov	r2, r3
 2383 00d8 02F0FD02 		and	r2, r2, #253
 2384 00dc 40F20001 		movw	r1, #:lower16:USB_EP
 2385 00e0 C0F20001 		movt	r1, #:upper16:USB_EP
ARM GAS  C:\Users\Craig\AppData\Local\Temp\cc9NnIsK.s 			page 62


 2386 00e4 0346     		mov	r3, r0
 2387 00e6 4FEA4303 		lsl	r3, r3, #1
 2388 00ea 0344     		add	r3, r3, r0
 2389 00ec 4FEA8303 		lsl	r3, r3, #2
 2390 00f0 0B44     		add	r3, r3, r1
 2391 00f2 5A70     		strb	r2, [r3, #1]
1089:.\Generated_Source\PSoC5/USB_std.c **** 
1090:.\Generated_Source\PSoC5/USB_std.c ****         if (USB_EP[ep].addr & USB_DIR_IN)
 2392              		.loc 1 1090 0
 2393 00f4 7979     		ldrb	r1, [r7, #5]	@ zero_extendqisi2
 2394 00f6 40F20002 		movw	r2, #:lower16:USB_EP
 2395 00fa C0F20002 		movt	r2, #:upper16:USB_EP
 2396 00fe 0B46     		mov	r3, r1
 2397 0100 4FEA4303 		lsl	r3, r3, #1
 2398 0104 0B44     		add	r3, r3, r1
 2399 0106 4FEA8303 		lsl	r3, r3, #2
 2400 010a 1344     		add	r3, r3, r2
 2401 010c 1B79     		ldrb	r3, [r3, #4]
 2402 010e DBB2     		uxtb	r3, r3
 2403 0110 5BB2     		sxtb	r3, r3
 2404 0112 002B     		cmp	r3, #0
 2405 0114 23DA     		bge	.L113
1091:.\Generated_Source\PSoC5/USB_std.c ****         {
1092:.\Generated_Source\PSoC5/USB_std.c ****             /* IN Endpoint */
1093:.\Generated_Source\PSoC5/USB_std.c ****             if(USB_EP[ep].apiEpState == USB_IN_BUFFER_EMPTY)
 2406              		.loc 1 1093 0
 2407 0116 7979     		ldrb	r1, [r7, #5]	@ zero_extendqisi2
 2408 0118 40F20002 		movw	r2, #:lower16:USB_EP
 2409 011c C0F20002 		movt	r2, #:upper16:USB_EP
 2410 0120 0B46     		mov	r3, r1
 2411 0122 4FEA4303 		lsl	r3, r3, #1
 2412 0126 0B44     		add	r3, r3, r1
 2413 0128 4FEA8303 		lsl	r3, r3, #2
 2414 012c 1344     		add	r3, r3, r2
 2415 012e 5B78     		ldrb	r3, [r3, #1]
 2416 0130 DBB2     		uxtb	r3, r3
 2417 0132 012B     		cmp	r3, #1
 2418 0134 09D1     		bne	.L114
1094:.\Generated_Source\PSoC5/USB_std.c ****             {       /* Wait for next packet from application */
1095:.\Generated_Source\PSoC5/USB_std.c ****                 CY_SET_REG8(&USB_SIE_EP1_CR0_PTR[ri], USB_MODE_NAK_IN);
 2419              		.loc 1 1095 0
 2420 0136 BA79     		ldrb	r2, [r7, #6]	@ zero_extendqisi2
 2421 0138 46F20E03 		movw	r3, #:lower16:1073766414
 2422 013c C4F20003 		movt	r3, #:upper16:1073766414
 2423 0140 1344     		add	r3, r2, r3
 2424 0142 4FF00C02 		mov	r2, #12
 2425 0146 1A70     		strb	r2, [r3, #0]
1096:.\Generated_Source\PSoC5/USB_std.c ****             }
1097:.\Generated_Source\PSoC5/USB_std.c ****             else    /* Continue armed transfer */
1098:.\Generated_Source\PSoC5/USB_std.c ****             {
1099:.\Generated_Source\PSoC5/USB_std.c ****                 CY_SET_REG8(&USB_SIE_EP1_CR0_PTR[ri], USB_MODE_ACK_IN);
 2426              		.loc 1 1099 0
 2427 0148 2CE0     		b	.L116
 2428              	.L114:
 2429 014a BA79     		ldrb	r2, [r7, #6]	@ zero_extendqisi2
 2430 014c 46F20E03 		movw	r3, #:lower16:1073766414
 2431 0150 C4F20003 		movt	r3, #:upper16:1073766414
ARM GAS  C:\Users\Craig\AppData\Local\Temp\cc9NnIsK.s 			page 63


 2432 0154 1344     		add	r3, r2, r3
 2433 0156 4FF00D02 		mov	r2, #13
 2434 015a 1A70     		strb	r2, [r3, #0]
 2435 015c 22E0     		b	.L116
 2436              	.L113:
1100:.\Generated_Source\PSoC5/USB_std.c ****             }
1101:.\Generated_Source\PSoC5/USB_std.c ****         }
1102:.\Generated_Source\PSoC5/USB_std.c ****         else
1103:.\Generated_Source\PSoC5/USB_std.c ****         {
1104:.\Generated_Source\PSoC5/USB_std.c ****             /* OUT Endpoint */
1105:.\Generated_Source\PSoC5/USB_std.c ****             if(USB_EP[ep].apiEpState == USB_OUT_BUFFER_FULL)
 2437              		.loc 1 1105 0
 2438 015e 7979     		ldrb	r1, [r7, #5]	@ zero_extendqisi2
 2439 0160 40F20002 		movw	r2, #:lower16:USB_EP
 2440 0164 C0F20002 		movt	r2, #:upper16:USB_EP
 2441 0168 0B46     		mov	r3, r1
 2442 016a 4FEA4303 		lsl	r3, r3, #1
 2443 016e 0B44     		add	r3, r3, r1
 2444 0170 4FEA8303 		lsl	r3, r3, #2
 2445 0174 1344     		add	r3, r3, r2
 2446 0176 5B78     		ldrb	r3, [r3, #1]
 2447 0178 DBB2     		uxtb	r3, r3
 2448 017a 012B     		cmp	r3, #1
 2449 017c 09D1     		bne	.L117
1106:.\Generated_Source\PSoC5/USB_std.c ****             {       /* Allow application to read full buffer */
1107:.\Generated_Source\PSoC5/USB_std.c ****                 CY_SET_REG8(&USB_SIE_EP1_CR0_PTR[ri], USB_MODE_NAK_OUT);
 2450              		.loc 1 1107 0
 2451 017e BA79     		ldrb	r2, [r7, #6]	@ zero_extendqisi2
 2452 0180 46F20E03 		movw	r3, #:lower16:1073766414
 2453 0184 C4F20003 		movt	r3, #:upper16:1073766414
 2454 0188 1344     		add	r3, r2, r3
 2455 018a 4FF00802 		mov	r2, #8
 2456 018e 1A70     		strb	r2, [r3, #0]
 2457 0190 08E0     		b	.L116
 2458              	.L117:
1108:.\Generated_Source\PSoC5/USB_std.c ****             }
1109:.\Generated_Source\PSoC5/USB_std.c ****             else    /* Mark endpoint as empty, so it will be reloaded */
1110:.\Generated_Source\PSoC5/USB_std.c ****             {
1111:.\Generated_Source\PSoC5/USB_std.c ****                 CY_SET_REG8(&USB_SIE_EP1_CR0_PTR[ri], USB_MODE_ACK_OUT);
 2459              		.loc 1 1111 0
 2460 0192 BA79     		ldrb	r2, [r7, #6]	@ zero_extendqisi2
 2461 0194 46F20E03 		movw	r3, #:lower16:1073766414
 2462 0198 C4F20003 		movt	r3, #:upper16:1073766414
 2463 019c 1344     		add	r3, r2, r3
 2464 019e 4FF00902 		mov	r2, #9
 2465 01a2 1A70     		strb	r2, [r3, #0]
 2466              	.L116:
1112:.\Generated_Source\PSoC5/USB_std.c ****             }
1113:.\Generated_Source\PSoC5/USB_std.c ****         }
1114:.\Generated_Source\PSoC5/USB_std.c ****         requestHandled = USB_InitNoDataControlTransfer();
 2467              		.loc 1 1114 0
 2468 01a4 FFF7FEFF 		bl	USB_InitNoDataControlTransfer
 2469 01a8 0346     		mov	r3, r0
 2470 01aa FB71     		strb	r3, [r7, #7]
 2471              	.L112:
1115:.\Generated_Source\PSoC5/USB_std.c ****     }
1116:.\Generated_Source\PSoC5/USB_std.c **** 
ARM GAS  C:\Users\Craig\AppData\Local\Temp\cc9NnIsK.s 			page 64


1117:.\Generated_Source\PSoC5/USB_std.c ****     return(requestHandled);
 2472              		.loc 1 1117 0
 2473 01ac FB79     		ldrb	r3, [r7, #7]	@ zero_extendqisi2
1118:.\Generated_Source\PSoC5/USB_std.c **** }
 2474              		.loc 1 1118 0
 2475 01ae 1846     		mov	r0, r3
 2476 01b0 07F10807 		add	r7, r7, #8
 2477 01b4 BD46     		mov	sp, r7
 2478 01b6 80BD     		pop	{r7, pc}
 2479              		.cfi_endproc
 2480              	.LFE10:
 2481              		.size	USB_ClearEndpointHalt, .-USB_ClearEndpointHalt
 2482              		.section	.text.USB_ValidateAlternateSetting,"ax",%progbits
 2483              		.align	2
 2484              		.global	USB_ValidateAlternateSetting
 2485              		.thumb
 2486              		.thumb_func
 2487              		.type	USB_ValidateAlternateSetting, %function
 2488              	USB_ValidateAlternateSetting:
 2489              	.LFB11:
1119:.\Generated_Source\PSoC5/USB_std.c **** 
1120:.\Generated_Source\PSoC5/USB_std.c **** 
1121:.\Generated_Source\PSoC5/USB_std.c **** /*******************************************************************************
1122:.\Generated_Source\PSoC5/USB_std.c **** * Function Name: USB_ValidateAlternateSetting
1123:.\Generated_Source\PSoC5/USB_std.c **** ********************************************************************************
1124:.\Generated_Source\PSoC5/USB_std.c **** *
1125:.\Generated_Source\PSoC5/USB_std.c **** * Summary:
1126:.\Generated_Source\PSoC5/USB_std.c **** *  Validates (and records) a SET INTERFACE request.
1127:.\Generated_Source\PSoC5/USB_std.c **** *
1128:.\Generated_Source\PSoC5/USB_std.c **** * Parameters:
1129:.\Generated_Source\PSoC5/USB_std.c **** *  None.
1130:.\Generated_Source\PSoC5/USB_std.c **** *
1131:.\Generated_Source\PSoC5/USB_std.c **** * Return:
1132:.\Generated_Source\PSoC5/USB_std.c **** *  requestHandled.
1133:.\Generated_Source\PSoC5/USB_std.c **** *
1134:.\Generated_Source\PSoC5/USB_std.c **** * Reentrant:
1135:.\Generated_Source\PSoC5/USB_std.c **** *  No.
1136:.\Generated_Source\PSoC5/USB_std.c **** *
1137:.\Generated_Source\PSoC5/USB_std.c **** *******************************************************************************/
1138:.\Generated_Source\PSoC5/USB_std.c **** uint8 USB_ValidateAlternateSetting(void) 
1139:.\Generated_Source\PSoC5/USB_std.c **** {
 2490              		.loc 1 1139 0
 2491              		.cfi_startproc
 2492              		@ args = 0, pretend = 0, frame = 16
 2493              		@ frame_needed = 1, uses_anonymous_args = 0
 2494 0000 80B5     		push	{r7, lr}
 2495              	.LCFI32:
 2496              		.cfi_def_cfa_offset 8
 2497 0002 84B0     		sub	sp, sp, #16
 2498              	.LCFI33:
 2499              		.cfi_def_cfa_offset 24
 2500 0004 00AF     		add	r7, sp, #0
 2501              		.cfi_offset 14, -4
 2502              		.cfi_offset 7, -8
 2503              	.LCFI34:
 2504              		.cfi_def_cfa_register 7
1140:.\Generated_Source\PSoC5/USB_std.c ****     uint8 requestHandled = USB_TRUE;
ARM GAS  C:\Users\Craig\AppData\Local\Temp\cc9NnIsK.s 			page 65


 2505              		.loc 1 1140 0
 2506 0006 4FF00103 		mov	r3, #1
 2507 000a BB71     		strb	r3, [r7, #6]
1141:.\Generated_Source\PSoC5/USB_std.c ****     uint8 interfaceNum;
1142:.\Generated_Source\PSoC5/USB_std.c ****     T_USB_LUT *pTmp;
1143:.\Generated_Source\PSoC5/USB_std.c ****     uint8 currentInterfacesNum;
1144:.\Generated_Source\PSoC5/USB_std.c **** 
1145:.\Generated_Source\PSoC5/USB_std.c ****     interfaceNum = CY_GET_REG8(USB_wIndexLo);
 2508              		.loc 1 1145 0
 2509 000c 46F20403 		movw	r3, #:lower16:1073766404
 2510 0010 C4F20003 		movt	r3, #:upper16:1073766404
 2511 0014 1B78     		ldrb	r3, [r3, #0]
 2512 0016 FB71     		strb	r3, [r7, #7]
1146:.\Generated_Source\PSoC5/USB_std.c ****     /* Validate interface setting, stall if invalid. */
1147:.\Generated_Source\PSoC5/USB_std.c ****     pTmp = USB_GetConfigTablePtr(USB_configuration - 1u);
 2513              		.loc 1 1147 0
 2514 0018 40F20003 		movw	r3, #:lower16:USB_configuration
 2515 001c C0F20003 		movt	r3, #:upper16:USB_configuration
 2516 0020 1B78     		ldrb	r3, [r3, #0]
 2517 0022 DBB2     		uxtb	r3, r3
 2518 0024 03F1FF33 		add	r3, r3, #-1
 2519 0028 DBB2     		uxtb	r3, r3
 2520 002a 1846     		mov	r0, r3
 2521 002c FFF7FEFF 		bl	USB_GetConfigTablePtr
 2522 0030 0346     		mov	r3, r0
 2523 0032 BB60     		str	r3, [r7, #8]
1148:.\Generated_Source\PSoC5/USB_std.c ****     currentInterfacesNum  = ((uint8 *) pTmp->p_list)[USB_CONFIG_DESCR_NUM_INTERFACES];
 2524              		.loc 1 1148 0
 2525 0034 BB68     		ldr	r3, [r7, #8]
 2526 0036 5B68     		ldr	r3, [r3, #4]
 2527 0038 03F10403 		add	r3, r3, #4
 2528 003c 1B78     		ldrb	r3, [r3, #0]
 2529 003e FB73     		strb	r3, [r7, #15]
1149:.\Generated_Source\PSoC5/USB_std.c **** 
1150:.\Generated_Source\PSoC5/USB_std.c ****     if((interfaceNum >= currentInterfacesNum) || (interfaceNum >= USB_MAX_INTERFACES_NUMBER))
 2530              		.loc 1 1150 0
 2531 0040 FA79     		ldrb	r2, [r7, #7]	@ zero_extendqisi2
 2532 0042 FB7B     		ldrb	r3, [r7, #15]	@ zero_extendqisi2
 2533 0044 9A42     		cmp	r2, r3
 2534 0046 02D2     		bcs	.L120
 2535 0048 FB79     		ldrb	r3, [r7, #7]	@ zero_extendqisi2
 2536 004a 002B     		cmp	r3, #0
 2537 004c 03D0     		beq	.L121
 2538              	.L120:
1151:.\Generated_Source\PSoC5/USB_std.c ****     {   /* wrong interface number */
1152:.\Generated_Source\PSoC5/USB_std.c ****         requestHandled = USB_FALSE;
 2539              		.loc 1 1152 0
 2540 004e 4FF00003 		mov	r3, #0
 2541 0052 BB71     		strb	r3, [r7, #6]
 2542              		.loc 1 1150 0
 2543 0054 18E0     		b	.L122
 2544              	.L121:
1153:.\Generated_Source\PSoC5/USB_std.c ****     }
1154:.\Generated_Source\PSoC5/USB_std.c ****     else
1155:.\Generated_Source\PSoC5/USB_std.c ****     {
1156:.\Generated_Source\PSoC5/USB_std.c ****         /* save current Alt setting to find out the difference in Config() function */
1157:.\Generated_Source\PSoC5/USB_std.c ****         USB_interfaceSetting_last[interfaceNum] = USB_interfaceSetting[interfaceNum];
ARM GAS  C:\Users\Craig\AppData\Local\Temp\cc9NnIsK.s 			page 66


 2545              		.loc 1 1157 0
 2546 0056 FA79     		ldrb	r2, [r7, #7]	@ zero_extendqisi2
 2547 0058 F979     		ldrb	r1, [r7, #7]	@ zero_extendqisi2
 2548 005a 40F20003 		movw	r3, #:lower16:USB_interfaceSetting
 2549 005e C0F20003 		movt	r3, #:upper16:USB_interfaceSetting
 2550 0062 5B5C     		ldrb	r3, [r3, r1]
 2551 0064 D9B2     		uxtb	r1, r3
 2552 0066 40F20003 		movw	r3, #:lower16:USB_interfaceSetting_last
 2553 006a C0F20003 		movt	r3, #:upper16:USB_interfaceSetting_last
 2554 006e 9954     		strb	r1, [r3, r2]
1158:.\Generated_Source\PSoC5/USB_std.c ****         USB_interfaceSetting[interfaceNum] = CY_GET_REG8(USB_wValueLo);
 2555              		.loc 1 1158 0
 2556 0070 FA79     		ldrb	r2, [r7, #7]	@ zero_extendqisi2
 2557 0072 46F20203 		movw	r3, #:lower16:1073766402
 2558 0076 C4F20003 		movt	r3, #:upper16:1073766402
 2559 007a 1B78     		ldrb	r3, [r3, #0]
 2560 007c D9B2     		uxtb	r1, r3
 2561 007e 40F20003 		movw	r3, #:lower16:USB_interfaceSetting
 2562 0082 C0F20003 		movt	r3, #:upper16:USB_interfaceSetting
 2563 0086 9954     		strb	r1, [r3, r2]
 2564              	.L122:
1159:.\Generated_Source\PSoC5/USB_std.c ****     }
1160:.\Generated_Source\PSoC5/USB_std.c **** 
1161:.\Generated_Source\PSoC5/USB_std.c ****     return (requestHandled);
 2565              		.loc 1 1161 0
 2566 0088 BB79     		ldrb	r3, [r7, #6]	@ zero_extendqisi2
1162:.\Generated_Source\PSoC5/USB_std.c **** }
 2567              		.loc 1 1162 0
 2568 008a 1846     		mov	r0, r3
 2569 008c 07F11007 		add	r7, r7, #16
 2570 0090 BD46     		mov	sp, r7
 2571 0092 80BD     		pop	{r7, pc}
 2572              		.cfi_endproc
 2573              	.LFE11:
 2574              		.size	USB_ValidateAlternateSetting, .-USB_ValidateAlternateSetting
 2575              		.text
 2576              	.Letext0: