ARM GAS  C:\Users\Craig\AppData\Local\Temp\cc6RUHCj.s 			page 1


   1              		.syntax unified
   2              		.cpu cortex-m3
   3              		.fpu softvfp
   4              		.eabi_attribute 20, 1
   5              		.eabi_attribute 21, 1
   6              		.eabi_attribute 23, 3
   7              		.eabi_attribute 24, 1
   8              		.eabi_attribute 25, 1
   9              		.eabi_attribute 26, 1
  10              		.eabi_attribute 30, 6
  11              		.eabi_attribute 18, 4
  12              		.thumb
  13              		.file	"main.c"
  20 0000 8A000000 		.text
  20      02005300 
  20      00000201 
  20      FB0E0D00 
  20      01010101 
  21              	.Ltext0:
  22              		.cfi_sections	.debug_frame
  23              		.comm	buffer,320,4
  24              		.comm	length,1,1
  25              		.comm	count,1,1
  26              		.section	.text.init,"ax",%progbits
  27              		.align	2
  28              		.global	init
  29              		.thumb
  30              		.thumb_func
  31              		.type	init, %function
  32              	init:
  33              	.LFB29:
  34              		.file 1 ".\\main.c"
   1:.\main.c      **** /* ========================================
   2:.\main.c      ****  *
   3:.\main.c      ****  * Copyright YOUR COMPANY, THE YEAR
   4:.\main.c      ****  * All Rights Reserved
   5:.\main.c      ****  * UNPUBLISHED, LICENSED SOFTWARE.
   6:.\main.c      ****  *
   7:.\main.c      ****  * CONFIDENTIAL AND PROPRIETARY INFORMATION
   8:.\main.c      ****  * WHICH IS THE PROPERTY OF your company.
   9:.\main.c      ****  *
  10:.\main.c      ****  * ========================================
  11:.\main.c      **** */
  12:.\main.c      **** #include <device.h>
  13:.\main.c      **** 
  14:.\main.c      **** uint8 buffer[320], length;
  15:.\main.c      **** uint8 count;
  16:.\main.c      **** 
  17:.\main.c      **** 
  18:.\main.c      **** void init()
  19:.\main.c      **** {
ARM GAS  C:\Users\Craig\AppData\Local\Temp\cc6RUHCj.s 			page 2


  35              		.loc 1 19 0
  36              		.cfi_startproc
  37              		@ args = 0, pretend = 0, frame = 0
  38              		@ frame_needed = 1, uses_anonymous_args = 0
  39 0000 80B5     		push	{r7, lr}
  40              	.LCFI0:
  41              		.cfi_def_cfa_offset 8
  42 0002 00AF     		add	r7, sp, #0
  43              		.cfi_offset 14, -4
  44              		.cfi_offset 7, -8
  45              	.LCFI1:
  46              		.cfi_def_cfa_register 7
  20:.\main.c      ****     // LCD Init
  21:.\main.c      ****     LCD_Start();
  47              		.loc 1 21 0
  48 0004 FFF7FEFF 		bl	LCD_Start
  22:.\main.c      ****     LCD_DisplayOn();
  49              		.loc 1 22 0
  50 0008 4FF00C00 		mov	r0, #12
  51 000c FFF7FEFF 		bl	LCD_WriteControl
  23:.\main.c      ****     //LCD_PrintNumber(1);
  24:.\main.c      ****     
  25:.\main.c      ****     
  26:.\main.c      ****     ADC_Start();
  52              		.loc 1 26 0
  53 0010 FFF7FEFF 		bl	ADC_Start
  27:.\main.c      ****     
  28:.\main.c      **** 
  29:.\main.c      **** }
  54              		.loc 1 29 0
  55 0014 80BD     		pop	{r7, pc}
  56              		.cfi_endproc
  57              	.LFE29:
  58              		.size	init, .-init
  59 0016 00BF     		.section	.text.main,"ax",%progbits
  60              		.align	2
  61              		.global	main
  62              		.thumb
  63              		.thumb_func
  64              		.type	main, %function
  65              	main:
  66              	.LFB30:
  30:.\main.c      **** 
  31:.\main.c      **** void main()
  32:.\main.c      **** {
  67              		.loc 1 32 0
  68              		.cfi_startproc
  69              		@ args = 0, pretend = 0, frame = 0
  70              		@ frame_needed = 1, uses_anonymous_args = 0
  71 0000 80B5     		push	{r7, lr}
  72              	.LCFI2:
  73              		.cfi_def_cfa_offset 8
  74 0002 00AF     		add	r7, sp, #0
  75              		.cfi_offset 14, -4
  76              		.cfi_offset 7, -8
  77              	.LCFI3:
  78              		.cfi_def_cfa_register 7
ARM GAS  C:\Users\Craig\AppData\Local\Temp\cc6RUHCj.s 			page 3


  33:.\main.c      **** 
  34:.\main.c      ****    
  35:.\main.c      ****     /* Place your initialization/startup code here (e.g. MyInst_Start()) */
  36:.\main.c      **** 
  37:.\main.c      ****     CyGlobalIntEnable;  /* Uncomment this line to enable global interrupts. */
  79              		.loc 1 37 0
  80              	@ 37 ".\main.c" 1
  81 0004 62B6     		CPSIE   i
  82              	@ 0 "" 2
  38:.\main.c      ****     init();
  83              		.loc 1 38 0
  84              		.thumb
  85 0006 FFF7FEFF 		bl	init
  39:.\main.c      ****     // Start usb operation with 3V
  40:.\main.c      ****     
  41:.\main.c      ****     
  42:.\main.c      ****     //Wait for device to enumerate
  43:.\main.c      ****     USB_Start(0u,USB_3V_OPERATION);
  86              		.loc 1 43 0
  87 000a 4FF00000 		mov	r0, #0
  88 000e 4FF00001 		mov	r1, #0
  89 0012 FFF7FEFF 		bl	USB_Start
  90              	.L4:
  44:.\main.c      ****     while(!USB_bGetConfiguration());
  91              		.loc 1 44 0
  92 0016 FFF7FEFF 		bl	USB_GetConfiguration
  93 001a 0346     		mov	r3, r0
  94 001c 002B     		cmp	r3, #0
  95 001e FAD0     		beq	.L4
  45:.\main.c      ****     
  46:.\main.c      ****     //Enumeration i done, enable out endpoint for recieve data from host
  47:.\main.c      ****     USB_EnableOutEP(2);
  96              		.loc 1 47 0
  97 0020 4FF00200 		mov	r0, #2
  98 0024 FFF7FEFF 		bl	USB_EnableOutEP
  48:.\main.c      ****     
  49:.\main.c      ****     ADC_StartConvert();
  99              		.loc 1 49 0
 100 0028 FFF7FEFF 		bl	ADC_StartConvert
 101              	.L5:
  50:.\main.c      ****     
  51:.\main.c      ****     
  52:.\main.c      ****       while(1)
  53:.\main.c      ****     {
  54:.\main.c      ****         //wait for data
  55:.\main.c      ****         while(USB_bGetEPState(2) !=USB_OUT_BUFFER_FULL);
 102              		.loc 1 55 0
 103 002c 4FF00200 		mov	r0, #2
 104 0030 FFF7FEFF 		bl	USB_GetEPState
 105 0034 0346     		mov	r3, r0
 106 0036 012B     		cmp	r3, #1
 107 0038 F8D1     		bne	.L5
  56:.\main.c      ****         
  57:.\main.c      ****         //read received bytes count
  58:.\main.c      ****         length = USB_wGetEPCount(2);
 108              		.loc 1 58 0
 109 003a 4FF00200 		mov	r0, #2
ARM GAS  C:\Users\Craig\AppData\Local\Temp\cc6RUHCj.s 			page 4


 110 003e FFF7FEFF 		bl	USB_GetEPCount
 111 0042 0346     		mov	r3, r0
 112 0044 DAB2     		uxtb	r2, r3
 113 0046 40F20003 		movw	r3, #:lower16:length
 114 004a C0F20003 		movt	r3, #:upper16:length
 115 004e 1A70     		strb	r2, [r3, #0]
  59:.\main.c      ****         //turn on LED
  60:.\main.c      ****         LED_Write(~LED_Read());
 116              		.loc 1 60 0
 117 0050 FFF7FEFF 		bl	LED_Read
 118 0054 0346     		mov	r3, r0
 119 0056 6FEA0303 		mvn	r3, r3
 120 005a DBB2     		uxtb	r3, r3
 121 005c 1846     		mov	r0, r3
 122 005e FFF7FEFF 		bl	LED_Write
  61:.\main.c      ****         
  62:.\main.c      ****         //unload the out buffer
  63:.\main.c      ****         USB_ReadOutEP(2, &buffer[0], length);
 123              		.loc 1 63 0
 124 0062 40F20003 		movw	r3, #:lower16:length
 125 0066 C0F20003 		movt	r3, #:upper16:length
 126 006a 1B78     		ldrb	r3, [r3, #0]	@ zero_extendqisi2
 127 006c 4FF00200 		mov	r0, #2
 128 0070 40F20001 		movw	r1, #:lower16:buffer
 129 0074 C0F20001 		movt	r1, #:upper16:buffer
 130 0078 1A46     		mov	r2, r3
 131 007a FFF7FEFF 		bl	USB_ReadOutEP
 132              	.L6:
  64:.\main.c      ****         
  65:.\main.c      ****        // check for in buffer is empty
  66:.\main.c      ****        while(USB_bGetEPState(1) != USB_IN_BUFFER_EMPTY);
 133              		.loc 1 66 0
 134 007e 4FF00100 		mov	r0, #1
 135 0082 FFF7FEFF 		bl	USB_GetEPState
 136 0086 0346     		mov	r3, r0
 137 0088 012B     		cmp	r3, #1
 138 008a F8D1     		bne	.L6
  67:.\main.c      ****        // Turn off LED
  68:.\main.c      ****        
  69:.\main.c      ****        
  70:.\main.c      ****        // load the in buffer
  71:.\main.c      ****        USB_LoadInEP(1, &buffer[0], length);
 139              		.loc 1 71 0
 140 008c 40F20003 		movw	r3, #:lower16:length
 141 0090 C0F20003 		movt	r3, #:upper16:length
 142 0094 1B78     		ldrb	r3, [r3, #0]	@ zero_extendqisi2
 143 0096 4FF00100 		mov	r0, #1
 144 009a 40F20001 		movw	r1, #:lower16:buffer
 145 009e C0F20001 		movt	r1, #:upper16:buffer
 146 00a2 1A46     		mov	r2, r3
 147 00a4 FFF7FEFF 		bl	USB_LoadInEP
 148              	.L7:
  72:.\main.c      ****        while(USB_bGetEPState(1) != USB_IN_BUFFER_EMPTY);
 149              		.loc 1 72 0
 150 00a8 4FF00100 		mov	r0, #1
 151 00ac FFF7FEFF 		bl	USB_GetEPState
 152 00b0 0346     		mov	r3, r0
ARM GAS  C:\Users\Craig\AppData\Local\Temp\cc6RUHCj.s 			page 5


 153 00b2 012B     		cmp	r3, #1
 154 00b4 F8D1     		bne	.L7
  73:.\main.c      ****         USB_LoadInEP(1, &buffer[1], length);
 155              		.loc 1 73 0
 156 00b6 40F20003 		movw	r3, #:lower16:length
 157 00ba C0F20003 		movt	r3, #:upper16:length
 158 00be 1B78     		ldrb	r3, [r3, #0]	@ zero_extendqisi2
 159 00c0 4FF00100 		mov	r0, #1
 160 00c4 0249     		ldr	r1, .L9
 161 00c6 1A46     		mov	r2, r3
 162 00c8 FFF7FEFF 		bl	USB_LoadInEP
  74:.\main.c      ****     
  75:.\main.c      ****     
  76:.\main.c      ****     }
 163              		.loc 1 76 0
 164 00cc AEE7     		b	.L5
 165              	.L10:
 166 00ce 00BF     		.align	2
 167              	.L9:
 168 00d0 01000000 		.word	buffer+1
 169              		.cfi_endproc
 170              	.LFE30:
 171              		.size	main, .-main
 172              		.text
 173              	.Letext0: