ARM GAS  C:\Users\Craig\AppData\Local\Temp\ccXI8V1u.s 			page 1


   1              		.syntax unified
   2              		.cpu cortex-m3
   3              		.fpu softvfp
   4              		.eabi_attribute 20, 1
   5              		.eabi_attribute 21, 1
   6              		.eabi_attribute 23, 3
   7              		.eabi_attribute 24, 1
   8              		.eabi_attribute 25, 1
   9              		.eabi_attribute 26, 1
  10              		.eabi_attribute 30, 6
  11              		.eabi_attribute 18, 4
  12              		.thumb
  13              		.file	"USB.c"
  20 0000 73020000 		.text
  20      02007E00 
  20      00000201 
  20      FB0E0D00 
  20      01010101 
  21              	.Ltext0:
  22              		.cfi_sections	.debug_frame
  23              		.global	USB_initVar
  24              		.bss
  25              		.type	USB_initVar, %object
  26              		.size	USB_initVar, 1
  27              	USB_initVar:
  28 0000 00       		.space	1
  29              		.section	.text.USB_Start,"ax",%progbits
  30              		.align	2
  31              		.global	USB_Start
  32              		.thumb
  33              		.thumb_func
  34              		.type	USB_Start, %function
  35              	USB_Start:
  36              	.LFB0:
  37              		.file 1 ".\\Generated_Source\\PSoC5\\USB.c"
   1:.\Generated_Source\PSoC5/USB.c **** /*******************************************************************************
   2:.\Generated_Source\PSoC5/USB.c **** * File Name: USB.c
   3:.\Generated_Source\PSoC5/USB.c **** * Version 2.50
   4:.\Generated_Source\PSoC5/USB.c **** *
   5:.\Generated_Source\PSoC5/USB.c **** * Description:
   6:.\Generated_Source\PSoC5/USB.c **** *  API for USBFS Component.
   7:.\Generated_Source\PSoC5/USB.c **** *
   8:.\Generated_Source\PSoC5/USB.c **** * Note:
   9:.\Generated_Source\PSoC5/USB.c **** *  Many of the functions use endpoint number.  RAM arrays are sized with 9
  10:.\Generated_Source\PSoC5/USB.c **** *  elements so they are indexed directly by epNumber.  The SIE and ARB
  11:.\Generated_Source\PSoC5/USB.c **** *  registers are indexed by variations of epNumber - 1.
  12:.\Generated_Source\PSoC5/USB.c **** *
  13:.\Generated_Source\PSoC5/USB.c **** ********************************************************************************
  14:.\Generated_Source\PSoC5/USB.c **** * Copyright 2008-2012, Cypress Semiconductor Corporation.  All rights reserved.
  15:.\Generated_Source\PSoC5/USB.c **** * You may use this file only in accordance with the license, terms, conditions,
  16:.\Generated_Source\PSoC5/USB.c **** * disclaimers, and limitations in the end user license agreement accompanying
ARM GAS  C:\Users\Craig\AppData\Local\Temp\ccXI8V1u.s 			page 2


  17:.\Generated_Source\PSoC5/USB.c **** * the software package with which this file was provided.
  18:.\Generated_Source\PSoC5/USB.c **** *******************************************************************************/
  19:.\Generated_Source\PSoC5/USB.c **** 
  20:.\Generated_Source\PSoC5/USB.c **** #include <CyDmac.h>
  21:.\Generated_Source\PSoC5/USB.c **** #include "USB.h"
  22:.\Generated_Source\PSoC5/USB.c **** #include "USB_hid.h"
  23:.\Generated_Source\PSoC5/USB.c **** #if(USB_DMA1_REMOVE == 0u)
  24:.\Generated_Source\PSoC5/USB.c ****     #include "USB_ep1_dma.h"
  25:.\Generated_Source\PSoC5/USB.c **** #endif   /* End USB_DMA1_REMOVE */
  26:.\Generated_Source\PSoC5/USB.c **** #if(USB_DMA2_REMOVE == 0u)
  27:.\Generated_Source\PSoC5/USB.c ****     #include "USB_ep2_dma.h"
  28:.\Generated_Source\PSoC5/USB.c **** #endif   /* End USB_DMA2_REMOVE */
  29:.\Generated_Source\PSoC5/USB.c **** #if(USB_DMA3_REMOVE == 0u)
  30:.\Generated_Source\PSoC5/USB.c ****     #include "USB_ep3_dma.h"
  31:.\Generated_Source\PSoC5/USB.c **** #endif   /* End USB_DMA3_REMOVE */
  32:.\Generated_Source\PSoC5/USB.c **** #if(USB_DMA4_REMOVE == 0u)
  33:.\Generated_Source\PSoC5/USB.c ****     #include "USB_ep4_dma.h"
  34:.\Generated_Source\PSoC5/USB.c **** #endif   /* End USB_DMA4_REMOVE */
  35:.\Generated_Source\PSoC5/USB.c **** #if(USB_DMA5_REMOVE == 0u)
  36:.\Generated_Source\PSoC5/USB.c ****     #include "USB_ep5_dma.h"
  37:.\Generated_Source\PSoC5/USB.c **** #endif   /* End USB_DMA5_REMOVE */
  38:.\Generated_Source\PSoC5/USB.c **** #if(USB_DMA6_REMOVE == 0u)
  39:.\Generated_Source\PSoC5/USB.c ****     #include "USB_ep6_dma.h"
  40:.\Generated_Source\PSoC5/USB.c **** #endif   /* End USB_DMA6_REMOVE */
  41:.\Generated_Source\PSoC5/USB.c **** #if(USB_DMA7_REMOVE == 0u)
  42:.\Generated_Source\PSoC5/USB.c ****     #include "USB_ep7_dma.h"
  43:.\Generated_Source\PSoC5/USB.c **** #endif   /* End USB_DMA7_REMOVE */
  44:.\Generated_Source\PSoC5/USB.c **** #if(USB_DMA8_REMOVE == 0u)
  45:.\Generated_Source\PSoC5/USB.c ****     #include "USB_ep8_dma.h"
  46:.\Generated_Source\PSoC5/USB.c **** #endif   /* End USB_DMA8_REMOVE */
  47:.\Generated_Source\PSoC5/USB.c **** 
  48:.\Generated_Source\PSoC5/USB.c **** 
  49:.\Generated_Source\PSoC5/USB.c **** /***************************************
  50:.\Generated_Source\PSoC5/USB.c **** * External data references
  51:.\Generated_Source\PSoC5/USB.c **** ***************************************/
  52:.\Generated_Source\PSoC5/USB.c **** 
  53:.\Generated_Source\PSoC5/USB.c **** extern volatile uint8 USB_configuration;
  54:.\Generated_Source\PSoC5/USB.c **** extern volatile uint8 USB_interfaceNumber;
  55:.\Generated_Source\PSoC5/USB.c **** extern volatile uint8 USB_configurationChanged;
  56:.\Generated_Source\PSoC5/USB.c **** extern volatile uint8 USB_interfaceSetting[];
  57:.\Generated_Source\PSoC5/USB.c **** extern volatile uint8 USB_interfaceSetting_last[];
  58:.\Generated_Source\PSoC5/USB.c **** extern volatile uint8 USB_deviceAddress;
  59:.\Generated_Source\PSoC5/USB.c **** extern volatile uint8 USB_deviceStatus;
  60:.\Generated_Source\PSoC5/USB.c **** extern volatile uint8 USB_device;
  61:.\Generated_Source\PSoC5/USB.c **** extern volatile uint8 USB_transferState;
  62:.\Generated_Source\PSoC5/USB.c **** extern volatile uint8 USB_lastPacketSize;
  63:.\Generated_Source\PSoC5/USB.c **** 
  64:.\Generated_Source\PSoC5/USB.c **** extern volatile T_USB_EP_CTL_BLOCK USB_EP[];
  65:.\Generated_Source\PSoC5/USB.c **** 
  66:.\Generated_Source\PSoC5/USB.c **** #if defined(USB_ENABLE_HID_CLASS)
  67:.\Generated_Source\PSoC5/USB.c ****     extern volatile uint8 USB_hidProtocol[];
  68:.\Generated_Source\PSoC5/USB.c **** #endif /* USB_ENABLE_HID_CLASS */
  69:.\Generated_Source\PSoC5/USB.c **** 
  70:.\Generated_Source\PSoC5/USB.c **** 
  71:.\Generated_Source\PSoC5/USB.c **** /***************************************
  72:.\Generated_Source\PSoC5/USB.c **** * External function references
  73:.\Generated_Source\PSoC5/USB.c **** ***************************************/
ARM GAS  C:\Users\Craig\AppData\Local\Temp\ccXI8V1u.s 			page 3


  74:.\Generated_Source\PSoC5/USB.c **** 
  75:.\Generated_Source\PSoC5/USB.c **** CY_ISR_PROTO(USB_EP_0_ISR);
  76:.\Generated_Source\PSoC5/USB.c **** #if(USB_EP1_ISR_REMOVE == 0u)
  77:.\Generated_Source\PSoC5/USB.c ****     CY_ISR_PROTO(USB_EP_1_ISR);
  78:.\Generated_Source\PSoC5/USB.c **** #endif /* End USB_EP1_ISR_REMOVE */
  79:.\Generated_Source\PSoC5/USB.c **** #if(USB_EP2_ISR_REMOVE == 0u)
  80:.\Generated_Source\PSoC5/USB.c ****     CY_ISR_PROTO(USB_EP_2_ISR);
  81:.\Generated_Source\PSoC5/USB.c **** #endif /* End USB_EP2_ISR_REMOVE */
  82:.\Generated_Source\PSoC5/USB.c **** #if(USB_EP3_ISR_REMOVE == 0u)
  83:.\Generated_Source\PSoC5/USB.c ****     CY_ISR_PROTO(USB_EP_3_ISR);
  84:.\Generated_Source\PSoC5/USB.c **** #endif /* End USB_EP3_ISR_REMOVE */
  85:.\Generated_Source\PSoC5/USB.c **** #if(USB_EP4_ISR_REMOVE == 0u)
  86:.\Generated_Source\PSoC5/USB.c ****     CY_ISR_PROTO(USB_EP_4_ISR);
  87:.\Generated_Source\PSoC5/USB.c **** #endif /* End USB_EP4_ISR_REMOVE */
  88:.\Generated_Source\PSoC5/USB.c **** #if(USB_EP5_ISR_REMOVE == 0u)
  89:.\Generated_Source\PSoC5/USB.c ****     CY_ISR_PROTO(USB_EP_5_ISR);
  90:.\Generated_Source\PSoC5/USB.c **** #endif /* End USB_EP5_ISR_REMOVE */
  91:.\Generated_Source\PSoC5/USB.c **** #if(USB_EP6_ISR_REMOVE == 0u)
  92:.\Generated_Source\PSoC5/USB.c ****     CY_ISR_PROTO(USB_EP_6_ISR);
  93:.\Generated_Source\PSoC5/USB.c **** #endif /* End USB_EP6_ISR_REMOVE */
  94:.\Generated_Source\PSoC5/USB.c **** #if(USB_EP7_ISR_REMOVE == 0u)
  95:.\Generated_Source\PSoC5/USB.c ****     CY_ISR_PROTO(USB_EP_7_ISR);
  96:.\Generated_Source\PSoC5/USB.c **** #endif /* End USB_EP7_ISR_REMOVE */
  97:.\Generated_Source\PSoC5/USB.c **** #if(USB_EP8_ISR_REMOVE == 0u)
  98:.\Generated_Source\PSoC5/USB.c ****     CY_ISR_PROTO(USB_EP_8_ISR);
  99:.\Generated_Source\PSoC5/USB.c **** #endif /* End USB_EP8_ISR_REMOVE */
 100:.\Generated_Source\PSoC5/USB.c **** CY_ISR_PROTO(USB_BUS_RESET_ISR);
 101:.\Generated_Source\PSoC5/USB.c **** #if(USB_SOF_ISR_REMOVE == 0u)
 102:.\Generated_Source\PSoC5/USB.c ****     CY_ISR_PROTO(USB_SOF_ISR);
 103:.\Generated_Source\PSoC5/USB.c **** #endif /* End USB_SOF_ISR_REMOVE */
 104:.\Generated_Source\PSoC5/USB.c **** #if(USB_EP_MM != USB__EP_MANUAL)
 105:.\Generated_Source\PSoC5/USB.c ****     CY_ISR_PROTO(USB_ARB_ISR);
 106:.\Generated_Source\PSoC5/USB.c **** #endif /* End USB_EP_MM */
 107:.\Generated_Source\PSoC5/USB.c **** 
 108:.\Generated_Source\PSoC5/USB.c **** 
 109:.\Generated_Source\PSoC5/USB.c **** /***************************************
 110:.\Generated_Source\PSoC5/USB.c **** * Global data allocation
 111:.\Generated_Source\PSoC5/USB.c **** ***************************************/
 112:.\Generated_Source\PSoC5/USB.c **** 
 113:.\Generated_Source\PSoC5/USB.c **** uint8 USB_initVar = 0u;
 114:.\Generated_Source\PSoC5/USB.c **** #if(USB_EP_MM != USB__EP_MANUAL)
 115:.\Generated_Source\PSoC5/USB.c ****     uint8 USB_DmaChan[USB_MAX_EP];
 116:.\Generated_Source\PSoC5/USB.c ****     uint8 USB_DmaTd[USB_MAX_EP];
 117:.\Generated_Source\PSoC5/USB.c **** #endif /* End USB_EP_MM */
 118:.\Generated_Source\PSoC5/USB.c **** 
 119:.\Generated_Source\PSoC5/USB.c **** 
 120:.\Generated_Source\PSoC5/USB.c **** /*******************************************************************************
 121:.\Generated_Source\PSoC5/USB.c **** * Function Name: USB_Start
 122:.\Generated_Source\PSoC5/USB.c **** ********************************************************************************
 123:.\Generated_Source\PSoC5/USB.c **** *
 124:.\Generated_Source\PSoC5/USB.c **** * Summary:
 125:.\Generated_Source\PSoC5/USB.c **** *  This function initialize the USB SIE, arbiter and the
 126:.\Generated_Source\PSoC5/USB.c **** *  endpoint APIs, including setting the D+ Pullup
 127:.\Generated_Source\PSoC5/USB.c **** *
 128:.\Generated_Source\PSoC5/USB.c **** * Parameters:
 129:.\Generated_Source\PSoC5/USB.c **** *  device: Contains the device number of the desired device descriptor.
 130:.\Generated_Source\PSoC5/USB.c **** *          The device number can be found in the Device Descriptor Tab of 
ARM GAS  C:\Users\Craig\AppData\Local\Temp\ccXI8V1u.s 			page 4


 131:.\Generated_Source\PSoC5/USB.c **** *          "Configure" dialog, under the settings of desired Device Descriptor,
 132:.\Generated_Source\PSoC5/USB.c **** *          in the "Device Number" field.
 133:.\Generated_Source\PSoC5/USB.c **** *  mode: The operating voltage. This determines whether the voltage regulator
 134:.\Generated_Source\PSoC5/USB.c **** *        is enabled for 5V operation or if pass through mode is used for 3.3V
 135:.\Generated_Source\PSoC5/USB.c **** *        operation. Symbolic names and their associated values are given in the
 136:.\Generated_Source\PSoC5/USB.c **** *        following table.
 137:.\Generated_Source\PSoC5/USB.c **** *       USB_3V_OPERATION - Disable voltage regulator and pass-thru
 138:.\Generated_Source\PSoC5/USB.c **** *                                       Vcc for pull-up
 139:.\Generated_Source\PSoC5/USB.c **** *       USB_5V_OPERATION - Enable voltage regulator and use
 140:.\Generated_Source\PSoC5/USB.c **** *                                       regulator for pull-up
 141:.\Generated_Source\PSoC5/USB.c **** *       USB_DWR_VDDD_OPERATION - Enable or Disable voltage
 142:.\Generated_Source\PSoC5/USB.c **** *                         regulator depend on Vddd Voltage configuration in DWR.
 143:.\Generated_Source\PSoC5/USB.c **** *
 144:.\Generated_Source\PSoC5/USB.c **** * Return:
 145:.\Generated_Source\PSoC5/USB.c **** *   None.
 146:.\Generated_Source\PSoC5/USB.c **** *
 147:.\Generated_Source\PSoC5/USB.c **** * Global variables:
 148:.\Generated_Source\PSoC5/USB.c **** *  The USB_intiVar variable is used to indicate initial
 149:.\Generated_Source\PSoC5/USB.c **** *  configuration of this component. The variable is initialized to zero (0u)
 150:.\Generated_Source\PSoC5/USB.c **** *  and set to one (1u) the first time USB_Start() is called.
 151:.\Generated_Source\PSoC5/USB.c **** *  This allows for component Re-Start without unnecessary re-initialization
 152:.\Generated_Source\PSoC5/USB.c **** *  in all subsequent calls to the USB_Start() routine.
 153:.\Generated_Source\PSoC5/USB.c **** *  If re-initialization of the component is required the variable should be set
 154:.\Generated_Source\PSoC5/USB.c **** *  to zero before call of UART_Start() routine, or the user may call
 155:.\Generated_Source\PSoC5/USB.c **** *  USB_Init() and USB_InitComponent() as done
 156:.\Generated_Source\PSoC5/USB.c **** *  in the USB_Start() routine.
 157:.\Generated_Source\PSoC5/USB.c **** *
 158:.\Generated_Source\PSoC5/USB.c **** * Side Effects:
 159:.\Generated_Source\PSoC5/USB.c **** *   This function will reset all communication states to default.
 160:.\Generated_Source\PSoC5/USB.c **** *
 161:.\Generated_Source\PSoC5/USB.c **** * Reentrant:
 162:.\Generated_Source\PSoC5/USB.c **** *  No.
 163:.\Generated_Source\PSoC5/USB.c **** *
 164:.\Generated_Source\PSoC5/USB.c **** *******************************************************************************/
 165:.\Generated_Source\PSoC5/USB.c **** void USB_Start(uint8 device, uint8 mode) 
 166:.\Generated_Source\PSoC5/USB.c **** {
  38              		.loc 1 166 0
  39              		.cfi_startproc
  40              		@ args = 0, pretend = 0, frame = 8
  41              		@ frame_needed = 1, uses_anonymous_args = 0
  42 0000 80B5     		push	{r7, lr}
  43              	.LCFI0:
  44              		.cfi_def_cfa_offset 8
  45 0002 82B0     		sub	sp, sp, #8
  46              	.LCFI1:
  47              		.cfi_def_cfa_offset 16
  48 0004 00AF     		add	r7, sp, #0
  49              		.cfi_offset 14, -4
  50              		.cfi_offset 7, -8
  51              	.LCFI2:
  52              		.cfi_def_cfa_register 7
  53 0006 0246     		mov	r2, r0
  54 0008 0B46     		mov	r3, r1
  55 000a FA71     		strb	r2, [r7, #7]
  56 000c BB71     		strb	r3, [r7, #6]
 167:.\Generated_Source\PSoC5/USB.c ****     /* If not Initialized then initialize all required hardware and software */
 168:.\Generated_Source\PSoC5/USB.c ****     if(USB_initVar == 0u)
ARM GAS  C:\Users\Craig\AppData\Local\Temp\ccXI8V1u.s 			page 5


  57              		.loc 1 168 0
  58 000e 40F20003 		movw	r3, #:lower16:USB_initVar
  59 0012 C0F20003 		movt	r3, #:upper16:USB_initVar
  60 0016 1B78     		ldrb	r3, [r3, #0]	@ zero_extendqisi2
  61 0018 002B     		cmp	r3, #0
  62 001a 08D1     		bne	.L2
 169:.\Generated_Source\PSoC5/USB.c ****     {
 170:.\Generated_Source\PSoC5/USB.c ****         USB_Init();
  63              		.loc 1 170 0
  64 001c FFF7FEFF 		bl	USB_Init
 171:.\Generated_Source\PSoC5/USB.c ****         USB_initVar = 1u;
  65              		.loc 1 171 0
  66 0020 40F20003 		movw	r3, #:lower16:USB_initVar
  67 0024 C0F20003 		movt	r3, #:upper16:USB_initVar
  68 0028 4FF00102 		mov	r2, #1
  69 002c 1A70     		strb	r2, [r3, #0]
  70              	.L2:
 172:.\Generated_Source\PSoC5/USB.c ****     }
 173:.\Generated_Source\PSoC5/USB.c ****     USB_InitComponent(device, mode);
  71              		.loc 1 173 0
  72 002e FA79     		ldrb	r2, [r7, #7]	@ zero_extendqisi2
  73 0030 BB79     		ldrb	r3, [r7, #6]	@ zero_extendqisi2
  74 0032 1046     		mov	r0, r2
  75 0034 1946     		mov	r1, r3
  76 0036 FFF7FEFF 		bl	USB_InitComponent
 174:.\Generated_Source\PSoC5/USB.c **** }
  77              		.loc 1 174 0
  78 003a 07F10807 		add	r7, r7, #8
  79 003e BD46     		mov	sp, r7
  80 0040 80BD     		pop	{r7, pc}
  81              		.cfi_endproc
  82              	.LFE0:
  83              		.size	USB_Start, .-USB_Start
  84 0042 00BF     		.section	.text.USB_Init,"ax",%progbits
  85              		.align	2
  86              		.global	USB_Init
  87              		.thumb
  88              		.thumb_func
  89              		.type	USB_Init, %function
  90              	USB_Init:
  91              	.LFB1:
 175:.\Generated_Source\PSoC5/USB.c **** 
 176:.\Generated_Source\PSoC5/USB.c **** 
 177:.\Generated_Source\PSoC5/USB.c **** /*******************************************************************************
 178:.\Generated_Source\PSoC5/USB.c **** * Function Name: USB_Init
 179:.\Generated_Source\PSoC5/USB.c **** ********************************************************************************
 180:.\Generated_Source\PSoC5/USB.c **** *
 181:.\Generated_Source\PSoC5/USB.c **** * Summary:
 182:.\Generated_Source\PSoC5/USB.c **** *  Initialize component's hardware. Usually called in USB_Start().
 183:.\Generated_Source\PSoC5/USB.c **** *
 184:.\Generated_Source\PSoC5/USB.c **** * Parameters:
 185:.\Generated_Source\PSoC5/USB.c **** *  None.
 186:.\Generated_Source\PSoC5/USB.c **** *
 187:.\Generated_Source\PSoC5/USB.c **** * Return:
 188:.\Generated_Source\PSoC5/USB.c **** *  None.
 189:.\Generated_Source\PSoC5/USB.c **** *
 190:.\Generated_Source\PSoC5/USB.c **** * Reentrant:
ARM GAS  C:\Users\Craig\AppData\Local\Temp\ccXI8V1u.s 			page 6


 191:.\Generated_Source\PSoC5/USB.c **** *  No.
 192:.\Generated_Source\PSoC5/USB.c **** *
 193:.\Generated_Source\PSoC5/USB.c **** *******************************************************************************/
 194:.\Generated_Source\PSoC5/USB.c **** void USB_Init(void) 
 195:.\Generated_Source\PSoC5/USB.c **** {
  92              		.loc 1 195 0
  93              		.cfi_startproc
  94              		@ args = 0, pretend = 0, frame = 8
  95              		@ frame_needed = 1, uses_anonymous_args = 0
  96 0000 80B5     		push	{r7, lr}
  97              	.LCFI3:
  98              		.cfi_def_cfa_offset 8
  99 0002 82B0     		sub	sp, sp, #8
 100              	.LCFI4:
 101              		.cfi_def_cfa_offset 16
 102 0004 00AF     		add	r7, sp, #0
 103              		.cfi_offset 14, -4
 104              		.cfi_offset 7, -8
 105              	.LCFI5:
 106              		.cfi_def_cfa_register 7
 196:.\Generated_Source\PSoC5/USB.c ****     uint8 enableInterrupts;
 197:.\Generated_Source\PSoC5/USB.c ****     #if(USB_EP_MM != USB__EP_MANUAL)
 198:.\Generated_Source\PSoC5/USB.c ****         uint16 i;
 199:.\Generated_Source\PSoC5/USB.c ****     #endif   /* End USB_EP_MM != USB__EP_MANUAL */
 200:.\Generated_Source\PSoC5/USB.c **** 
 201:.\Generated_Source\PSoC5/USB.c ****     enableInterrupts = CyEnterCriticalSection();
 107              		.loc 1 201 0
 108 0006 FFF7FEFF 		bl	CyEnterCriticalSection
 109 000a 0346     		mov	r3, r0
 110 000c FB71     		strb	r3, [r7, #7]
 202:.\Generated_Source\PSoC5/USB.c **** 
 203:.\Generated_Source\PSoC5/USB.c ****     /* Enable USB block  */
 204:.\Generated_Source\PSoC5/USB.c ****     USB_PM_ACT_CFG_REG |= USB_PM_ACT_EN_FSUSB;
 111              		.loc 1 204 0
 112 000e 44F2A533 		movw	r3, #:lower16:1073759141
 113 0012 C4F20003 		movt	r3, #:upper16:1073759141
 114 0016 44F2A532 		movw	r2, #:lower16:1073759141
 115 001a C4F20002 		movt	r2, #:upper16:1073759141
 116 001e 1278     		ldrb	r2, [r2, #0]
 117 0020 D2B2     		uxtb	r2, r2
 118 0022 42F00102 		orr	r2, r2, #1
 119 0026 D2B2     		uxtb	r2, r2
 120 0028 1A70     		strb	r2, [r3, #0]
 205:.\Generated_Source\PSoC5/USB.c ****     /* Enable USB block for Standby Power Mode */
 206:.\Generated_Source\PSoC5/USB.c ****     USB_PM_STBY_CFG_REG |= USB_PM_STBY_EN_FSUSB;
 121              		.loc 1 206 0
 122 002a 44F2B533 		movw	r3, #:lower16:1073759157
 123 002e C4F20003 		movt	r3, #:upper16:1073759157
 124 0032 44F2B532 		movw	r2, #:lower16:1073759157
 125 0036 C4F20002 		movt	r2, #:upper16:1073759157
 126 003a 1278     		ldrb	r2, [r2, #0]
 127 003c D2B2     		uxtb	r2, r2
 128 003e 42F00102 		orr	r2, r2, #1
 129 0042 D2B2     		uxtb	r2, r2
 130 0044 1A70     		strb	r2, [r3, #0]
 207:.\Generated_Source\PSoC5/USB.c **** 
 208:.\Generated_Source\PSoC5/USB.c ****     #if(CY_PSOC5A)
ARM GAS  C:\Users\Craig\AppData\Local\Temp\ccXI8V1u.s 			page 7


 209:.\Generated_Source\PSoC5/USB.c ****         /* Disable USBIO for TO3 */
 210:.\Generated_Source\PSoC5/USB.c ****         USB_PM_AVAIL_CR_REG &= ~USB_PM_AVAIL_EN_FSUSBIO;
 211:.\Generated_Source\PSoC5/USB.c ****     #endif /* End CY_PSOC5A */
 212:.\Generated_Source\PSoC5/USB.c **** 
 213:.\Generated_Source\PSoC5/USB.c ****     /* Enable core clock */
 214:.\Generated_Source\PSoC5/USB.c ****     USB_USB_CLK_EN_REG = USB_USB_CLK_ENABLE;
 131              		.loc 1 214 0
 132 0046 46F29D03 		movw	r3, #:lower16:1073766557
 133 004a C4F20003 		movt	r3, #:upper16:1073766557
 134 004e 4FF00102 		mov	r2, #1
 135 0052 1A70     		strb	r2, [r3, #0]
 215:.\Generated_Source\PSoC5/USB.c **** 
 216:.\Generated_Source\PSoC5/USB.c ****     USB_CR1_REG = USB_CR1_ENABLE_LOCK;
 136              		.loc 1 216 0
 137 0054 46F20903 		movw	r3, #:lower16:1073766409
 138 0058 C4F20003 		movt	r3, #:upper16:1073766409
 139 005c 4FF00202 		mov	r2, #2
 140 0060 1A70     		strb	r2, [r3, #0]
 217:.\Generated_Source\PSoC5/USB.c **** 
 218:.\Generated_Source\PSoC5/USB.c ****     #if(CY_PSOC5A)
 219:.\Generated_Source\PSoC5/USB.c ****         /* Enable USBIO for TO3 */
 220:.\Generated_Source\PSoC5/USB.c ****         USB_PM_AVAIL_CR_REG |= USB_PM_AVAIL_EN_FSUSBIO;
 221:.\Generated_Source\PSoC5/USB.c ****         /* Bus Reset Length, It has correct default value in ES3 */
 222:.\Generated_Source\PSoC5/USB.c ****         USB_BUS_RST_CNT_REG = USB_BUS_RST_COUNT;
 223:.\Generated_Source\PSoC5/USB.c ****     #endif /* End CY_PSOC5A */
 224:.\Generated_Source\PSoC5/USB.c **** 
 225:.\Generated_Source\PSoC5/USB.c ****     /* ENABLING USBIO PADS IN USB MODE FROM I/O MODE */
 226:.\Generated_Source\PSoC5/USB.c ****     #if(!CY_PSOC5A)
 227:.\Generated_Source\PSoC5/USB.c ****         /* Ensure USB transmit enable is low (USB_USBIO_CR0.ten). - Manual Transmission - Disabled 
 228:.\Generated_Source\PSoC5/USB.c ****         USB_USBIO_CR0_REG &= ~USB_USBIO_CR0_TEN;
 141              		.loc 1 228 0
 142 0062 46F21003 		movw	r3, #:lower16:1073766416
 143 0066 C4F20003 		movt	r3, #:upper16:1073766416
 144 006a 46F21002 		movw	r2, #:lower16:1073766416
 145 006e C4F20002 		movt	r2, #:upper16:1073766416
 146 0072 1278     		ldrb	r2, [r2, #0]
 147 0074 D2B2     		uxtb	r2, r2
 148 0076 02F07F02 		and	r2, r2, #127
 149 007a 1A70     		strb	r2, [r3, #0]
 229:.\Generated_Source\PSoC5/USB.c ****         CyDelayUs(0);  /*~50ns delay */
 150              		.loc 1 229 0
 151 007c 4FF00000 		mov	r0, #0
 152 0080 FFF7FEFF 		bl	CyDelayUs
 230:.\Generated_Source\PSoC5/USB.c ****         /* Disable the USBIO by asserting PM.USB_CR0.fsusbio_pd_n(Inverted)
 231:.\Generated_Source\PSoC5/USB.c ****         *  high. This will have been set low by the power manger out of reset.
 232:.\Generated_Source\PSoC5/USB.c ****         *  Also confirm USBIO pull-up disabled
 233:.\Generated_Source\PSoC5/USB.c ****         */
 234:.\Generated_Source\PSoC5/USB.c ****         USB_PM_USB_CR0_REG &= ~(USB_PM_USB_CR0_PD_N |USB_PM_USB_CR0_PD_PULLUP_N);
 153              		.loc 1 234 0
 154 0084 44F29433 		movw	r3, #:lower16:1073759124
 155 0088 C4F20003 		movt	r3, #:upper16:1073759124
 156 008c 44F29432 		movw	r2, #:lower16:1073759124
 157 0090 C4F20002 		movt	r2, #:upper16:1073759124
 158 0094 1278     		ldrb	r2, [r2, #0]
 159 0096 D2B2     		uxtb	r2, r2
 160 0098 02F0F902 		and	r2, r2, #249
 161 009c 1A70     		strb	r2, [r3, #0]
ARM GAS  C:\Users\Craig\AppData\Local\Temp\ccXI8V1u.s 			page 8


 235:.\Generated_Source\PSoC5/USB.c **** 
 236:.\Generated_Source\PSoC5/USB.c ****         /* Select iomode to USB mode*/
 237:.\Generated_Source\PSoC5/USB.c ****         USB_USBIO_CR1_REG &= ~ USB_USBIO_CR1_IOMODE;
 162              		.loc 1 237 0
 163 009e 46F21203 		movw	r3, #:lower16:1073766418
 164 00a2 C4F20003 		movt	r3, #:upper16:1073766418
 165 00a6 46F21202 		movw	r2, #:lower16:1073766418
 166 00aa C4F20002 		movt	r2, #:upper16:1073766418
 167 00ae 1278     		ldrb	r2, [r2, #0]
 168 00b0 D2B2     		uxtb	r2, r2
 169 00b2 02F0DF02 		and	r2, r2, #223
 170 00b6 1A70     		strb	r2, [r3, #0]
 238:.\Generated_Source\PSoC5/USB.c **** 
 239:.\Generated_Source\PSoC5/USB.c ****         /* Enable the USBIO reference by setting PM.USB_CR0.fsusbio_ref_en.*/
 240:.\Generated_Source\PSoC5/USB.c ****         USB_PM_USB_CR0_REG |= USB_PM_USB_CR0_REF_EN;
 171              		.loc 1 240 0
 172 00b8 44F29433 		movw	r3, #:lower16:1073759124
 173 00bc C4F20003 		movt	r3, #:upper16:1073759124
 174 00c0 44F29432 		movw	r2, #:lower16:1073759124
 175 00c4 C4F20002 		movt	r2, #:upper16:1073759124
 176 00c8 1278     		ldrb	r2, [r2, #0]
 177 00ca D2B2     		uxtb	r2, r2
 178 00cc 42F00102 		orr	r2, r2, #1
 179 00d0 D2B2     		uxtb	r2, r2
 180 00d2 1A70     		strb	r2, [r3, #0]
 241:.\Generated_Source\PSoC5/USB.c ****         /* The reference will be available 1 us after the regulator is enabled */
 242:.\Generated_Source\PSoC5/USB.c ****         CyDelayUs(1);
 181              		.loc 1 242 0
 182 00d4 4FF00100 		mov	r0, #1
 183 00d8 FFF7FEFF 		bl	CyDelayUs
 243:.\Generated_Source\PSoC5/USB.c ****         /* OR 40us after power restored */
 244:.\Generated_Source\PSoC5/USB.c ****         CyDelayUs(40);
 184              		.loc 1 244 0
 185 00dc 4FF02800 		mov	r0, #40
 186 00e0 FFF7FEFF 		bl	CyDelayUs
 245:.\Generated_Source\PSoC5/USB.c ****         /* Ensure the single ended disable bits are low (PRT15.INP_DIS[7:6])(input receiver enabled
 246:.\Generated_Source\PSoC5/USB.c ****         USB_DM_INP_DIS_REG &= ~USB_DM_MASK;
 187              		.loc 1 246 0
 188 00e4 45F2F813 		movw	r3, #:lower16:1073762808
 189 00e8 C4F20003 		movt	r3, #:upper16:1073762808
 190 00ec 45F2F812 		movw	r2, #:lower16:1073762808
 191 00f0 C4F20002 		movt	r2, #:upper16:1073762808
 192 00f4 1278     		ldrb	r2, [r2, #0]
 193 00f6 D2B2     		uxtb	r2, r2
 194 00f8 02F07F02 		and	r2, r2, #127
 195 00fc 1A70     		strb	r2, [r3, #0]
 247:.\Generated_Source\PSoC5/USB.c ****         USB_DP_INP_DIS_REG &= ~USB_DP_MASK;
 196              		.loc 1 247 0
 197 00fe 45F2F813 		movw	r3, #:lower16:1073762808
 198 0102 C4F20003 		movt	r3, #:upper16:1073762808
 199 0106 45F2F812 		movw	r2, #:lower16:1073762808
 200 010a C4F20002 		movt	r2, #:upper16:1073762808
 201 010e 1278     		ldrb	r2, [r2, #0]
 202 0110 D2B2     		uxtb	r2, r2
 203 0112 02F0BF02 		and	r2, r2, #191
 204 0116 1A70     		strb	r2, [r3, #0]
 248:.\Generated_Source\PSoC5/USB.c **** 
ARM GAS  C:\Users\Craig\AppData\Local\Temp\ccXI8V1u.s 			page 9


 249:.\Generated_Source\PSoC5/USB.c ****         /* Enable USBIO */
 250:.\Generated_Source\PSoC5/USB.c ****         USB_PM_USB_CR0_REG |= USB_PM_USB_CR0_PD_N;
 205              		.loc 1 250 0
 206 0118 44F29433 		movw	r3, #:lower16:1073759124
 207 011c C4F20003 		movt	r3, #:upper16:1073759124
 208 0120 44F29432 		movw	r2, #:lower16:1073759124
 209 0124 C4F20002 		movt	r2, #:upper16:1073759124
 210 0128 1278     		ldrb	r2, [r2, #0]
 211 012a D2B2     		uxtb	r2, r2
 212 012c 42F00202 		orr	r2, r2, #2
 213 0130 D2B2     		uxtb	r2, r2
 214 0132 1A70     		strb	r2, [r3, #0]
 251:.\Generated_Source\PSoC5/USB.c ****         CyDelayUs(2);
 215              		.loc 1 251 0
 216 0134 4FF00200 		mov	r0, #2
 217 0138 FFF7FEFF 		bl	CyDelayUs
 252:.\Generated_Source\PSoC5/USB.c ****         /* Set the USBIO pull-up enable */
 253:.\Generated_Source\PSoC5/USB.c ****         USB_PM_USB_CR0_REG |= USB_PM_USB_CR0_PD_PULLUP_N;
 218              		.loc 1 253 0
 219 013c 44F29433 		movw	r3, #:lower16:1073759124
 220 0140 C4F20003 		movt	r3, #:upper16:1073759124
 221 0144 44F29432 		movw	r2, #:lower16:1073759124
 222 0148 C4F20002 		movt	r2, #:upper16:1073759124
 223 014c 1278     		ldrb	r2, [r2, #0]
 224 014e D2B2     		uxtb	r2, r2
 225 0150 42F00402 		orr	r2, r2, #4
 226 0154 D2B2     		uxtb	r2, r2
 227 0156 1A70     		strb	r2, [r3, #0]
 254:.\Generated_Source\PSoC5/USB.c **** 
 255:.\Generated_Source\PSoC5/USB.c ****     #endif /* End !CY_PSOC5A */
 256:.\Generated_Source\PSoC5/USB.c **** 
 257:.\Generated_Source\PSoC5/USB.c ****     /* Write WAx */
 258:.\Generated_Source\PSoC5/USB.c ****     CY_SET_REG8(&USB_ARB_RW1_WA_PTR[0u],     0u);
 228              		.loc 1 258 0
 229 0158 46F28403 		movw	r3, #:lower16:1073766532
 230 015c C4F20003 		movt	r3, #:upper16:1073766532
 231 0160 4FF00002 		mov	r2, #0
 232 0164 1A70     		strb	r2, [r3, #0]
 259:.\Generated_Source\PSoC5/USB.c ****     CY_SET_REG8(&USB_ARB_RW1_WA_MSB_PTR[0u], 0u);
 233              		.loc 1 259 0
 234 0166 46F28503 		movw	r3, #:lower16:1073766533
 235 016a C4F20003 		movt	r3, #:upper16:1073766533
 236 016e 4FF00002 		mov	r2, #0
 237 0172 1A70     		strb	r2, [r3, #0]
 260:.\Generated_Source\PSoC5/USB.c **** 
 261:.\Generated_Source\PSoC5/USB.c ****     #if(USB_EP_MM != USB__EP_MANUAL)
 262:.\Generated_Source\PSoC5/USB.c ****         /* Init transfer descriptor. This will be used to detect the DMA state - initialized or not
 263:.\Generated_Source\PSoC5/USB.c ****         for (i = 0u; i < USB_MAX_EP; i++)
 264:.\Generated_Source\PSoC5/USB.c ****         {
 265:.\Generated_Source\PSoC5/USB.c ****             USB_DmaTd[i] = DMA_INVALID_TD;
 266:.\Generated_Source\PSoC5/USB.c ****         }
 267:.\Generated_Source\PSoC5/USB.c ****     #endif   /* End USB_EP_MM != USB__EP_MANUAL */
 268:.\Generated_Source\PSoC5/USB.c **** 
 269:.\Generated_Source\PSoC5/USB.c ****     CyExitCriticalSection(enableInterrupts);
 238              		.loc 1 269 0
 239 0174 FB79     		ldrb	r3, [r7, #7]	@ zero_extendqisi2
 240 0176 1846     		mov	r0, r3
ARM GAS  C:\Users\Craig\AppData\Local\Temp\ccXI8V1u.s 			page 10


 241 0178 FFF7FEFF 		bl	CyExitCriticalSection
 270:.\Generated_Source\PSoC5/USB.c **** 
 271:.\Generated_Source\PSoC5/USB.c **** 
 272:.\Generated_Source\PSoC5/USB.c ****     /* Set the bus reset Interrupt. */
 273:.\Generated_Source\PSoC5/USB.c ****     CyIntSetVector(USB_BUS_RESET_VECT_NUM,   USB_BUS_RESET_ISR);
 242              		.loc 1 273 0
 243 017c 4FF01700 		mov	r0, #23
 244 0180 40F20001 		movw	r1, #:lower16:USB_BUS_RESET_ISR
 245 0184 C0F20001 		movt	r1, #:upper16:USB_BUS_RESET_ISR
 246 0188 FFF7FEFF 		bl	CyIntSetVector
 274:.\Generated_Source\PSoC5/USB.c ****     CyIntSetPriority(USB_BUS_RESET_VECT_NUM, USB_BUS_RESET_PRIOR);
 247              		.loc 1 274 0
 248 018c 4FF01700 		mov	r0, #23
 249 0190 4FF00701 		mov	r1, #7
 250 0194 FFF7FEFF 		bl	CyIntSetPriority
 275:.\Generated_Source\PSoC5/USB.c **** 
 276:.\Generated_Source\PSoC5/USB.c ****     /* Set the SOF Interrupt. */
 277:.\Generated_Source\PSoC5/USB.c ****     #if(USB_SOF_ISR_REMOVE == 0u)
 278:.\Generated_Source\PSoC5/USB.c ****         CyIntSetVector(USB_SOF_VECT_NUM,   USB_SOF_ISR);
 251              		.loc 1 278 0
 252 0198 4FF01500 		mov	r0, #21
 253 019c 40F20001 		movw	r1, #:lower16:USB_SOF_ISR
 254 01a0 C0F20001 		movt	r1, #:upper16:USB_SOF_ISR
 255 01a4 FFF7FEFF 		bl	CyIntSetVector
 279:.\Generated_Source\PSoC5/USB.c ****         CyIntSetPriority(USB_SOF_VECT_NUM, USB_SOF_PRIOR);
 256              		.loc 1 279 0
 257 01a8 4FF01500 		mov	r0, #21
 258 01ac 4FF00701 		mov	r1, #7
 259 01b0 FFF7FEFF 		bl	CyIntSetPriority
 280:.\Generated_Source\PSoC5/USB.c ****     #endif   /* End USB_SOF_ISR_REMOVE */
 281:.\Generated_Source\PSoC5/USB.c **** 
 282:.\Generated_Source\PSoC5/USB.c ****     /* Set the Control Endpoint Interrupt. */
 283:.\Generated_Source\PSoC5/USB.c ****     CyIntSetVector(USB_EP_0_VECT_NUM,   USB_EP_0_ISR);
 260              		.loc 1 283 0
 261 01b4 4FF01800 		mov	r0, #24
 262 01b8 40F20001 		movw	r1, #:lower16:USB_EP_0_ISR
 263 01bc C0F20001 		movt	r1, #:upper16:USB_EP_0_ISR
 264 01c0 FFF7FEFF 		bl	CyIntSetVector
 284:.\Generated_Source\PSoC5/USB.c ****     CyIntSetPriority(USB_EP_0_VECT_NUM, USB_EP_0_PRIOR);
 265              		.loc 1 284 0
 266 01c4 4FF01800 		mov	r0, #24
 267 01c8 4FF00701 		mov	r1, #7
 268 01cc FFF7FEFF 		bl	CyIntSetPriority
 285:.\Generated_Source\PSoC5/USB.c **** 
 286:.\Generated_Source\PSoC5/USB.c ****     /* Set the Data Endpoint 1 Interrupt. */
 287:.\Generated_Source\PSoC5/USB.c ****     #if(USB_EP1_ISR_REMOVE == 0u)
 288:.\Generated_Source\PSoC5/USB.c ****         CyIntSetVector(USB_EP_1_VECT_NUM,   USB_EP_1_ISR);
 269              		.loc 1 288 0
 270 01d0 4FF00000 		mov	r0, #0
 271 01d4 40F20001 		movw	r1, #:lower16:USB_EP_1_ISR
 272 01d8 C0F20001 		movt	r1, #:upper16:USB_EP_1_ISR
 273 01dc FFF7FEFF 		bl	CyIntSetVector
 289:.\Generated_Source\PSoC5/USB.c ****         CyIntSetPriority(USB_EP_1_VECT_NUM, USB_EP_1_PRIOR);
 274              		.loc 1 289 0
 275 01e0 4FF00000 		mov	r0, #0
 276 01e4 4FF00701 		mov	r1, #7
 277 01e8 FFF7FEFF 		bl	CyIntSetPriority
ARM GAS  C:\Users\Craig\AppData\Local\Temp\ccXI8V1u.s 			page 11


 290:.\Generated_Source\PSoC5/USB.c ****     #endif   /* End USB_EP1_ISR_REMOVE */
 291:.\Generated_Source\PSoC5/USB.c **** 
 292:.\Generated_Source\PSoC5/USB.c ****     /* Set the Data Endpoint 2 Interrupt. */
 293:.\Generated_Source\PSoC5/USB.c ****     #if(USB_EP2_ISR_REMOVE == 0u)
 294:.\Generated_Source\PSoC5/USB.c ****         CyIntSetVector(USB_EP_2_VECT_NUM,   USB_EP_2_ISR);
 278              		.loc 1 294 0
 279 01ec 4FF00100 		mov	r0, #1
 280 01f0 40F20001 		movw	r1, #:lower16:USB_EP_2_ISR
 281 01f4 C0F20001 		movt	r1, #:upper16:USB_EP_2_ISR
 282 01f8 FFF7FEFF 		bl	CyIntSetVector
 295:.\Generated_Source\PSoC5/USB.c ****         CyIntSetPriority(USB_EP_2_VECT_NUM, USB_EP_2_PRIOR);
 283              		.loc 1 295 0
 284 01fc 4FF00100 		mov	r0, #1
 285 0200 4FF00701 		mov	r1, #7
 286 0204 FFF7FEFF 		bl	CyIntSetPriority
 296:.\Generated_Source\PSoC5/USB.c ****     #endif   /* End USB_EP2_ISR_REMOVE */
 297:.\Generated_Source\PSoC5/USB.c **** 
 298:.\Generated_Source\PSoC5/USB.c ****     /* Set the Data Endpoint 3 Interrupt. */
 299:.\Generated_Source\PSoC5/USB.c ****     #if(USB_EP3_ISR_REMOVE == 0u)
 300:.\Generated_Source\PSoC5/USB.c ****         CyIntSetVector(USB_EP_3_VECT_NUM,   USB_EP_3_ISR);
 301:.\Generated_Source\PSoC5/USB.c ****         CyIntSetPriority(USB_EP_3_VECT_NUM, USB_EP_3_PRIOR);
 302:.\Generated_Source\PSoC5/USB.c ****     #endif   /* End USB_EP3_ISR_REMOVE */
 303:.\Generated_Source\PSoC5/USB.c **** 
 304:.\Generated_Source\PSoC5/USB.c ****     /* Set the Data Endpoint 4 Interrupt. */
 305:.\Generated_Source\PSoC5/USB.c ****     #if(USB_EP4_ISR_REMOVE == 0u)
 306:.\Generated_Source\PSoC5/USB.c ****         CyIntSetVector(USB_EP_4_VECT_NUM,   USB_EP_4_ISR);
 307:.\Generated_Source\PSoC5/USB.c ****         CyIntSetPriority(USB_EP_4_VECT_NUM, USB_EP_4_PRIOR);
 308:.\Generated_Source\PSoC5/USB.c ****     #endif   /* End USB_EP4_ISR_REMOVE */
 309:.\Generated_Source\PSoC5/USB.c **** 
 310:.\Generated_Source\PSoC5/USB.c ****     /* Set the Data Endpoint 5 Interrupt. */
 311:.\Generated_Source\PSoC5/USB.c ****     #if(USB_EP5_ISR_REMOVE == 0u)
 312:.\Generated_Source\PSoC5/USB.c ****         CyIntSetVector(USB_EP_5_VECT_NUM,   USB_EP_5_ISR);
 313:.\Generated_Source\PSoC5/USB.c ****         CyIntSetPriority(USB_EP_5_VECT_NUM, USB_EP_5_PRIOR);
 314:.\Generated_Source\PSoC5/USB.c ****     #endif   /* End USB_EP5_ISR_REMOVE */
 315:.\Generated_Source\PSoC5/USB.c **** 
 316:.\Generated_Source\PSoC5/USB.c ****     /* Set the Data Endpoint 6 Interrupt. */
 317:.\Generated_Source\PSoC5/USB.c ****     #if(USB_EP6_ISR_REMOVE == 0u)
 318:.\Generated_Source\PSoC5/USB.c ****         CyIntSetVector(USB_EP_6_VECT_NUM,   USB_EP_6_ISR);
 319:.\Generated_Source\PSoC5/USB.c ****         CyIntSetPriority(USB_EP_6_VECT_NUM, USB_EP_6_PRIOR);
 320:.\Generated_Source\PSoC5/USB.c ****     #endif   /* End USB_EP6_ISR_REMOVE */
 321:.\Generated_Source\PSoC5/USB.c **** 
 322:.\Generated_Source\PSoC5/USB.c ****      /* Set the Data Endpoint 7 Interrupt. */
 323:.\Generated_Source\PSoC5/USB.c ****     #if(USB_EP7_ISR_REMOVE == 0u)
 324:.\Generated_Source\PSoC5/USB.c ****         CyIntSetVector(USB_EP_7_VECT_NUM,   USB_EP_7_ISR);
 325:.\Generated_Source\PSoC5/USB.c ****         CyIntSetPriority(USB_EP_7_VECT_NUM, USB_EP_7_PRIOR);
 326:.\Generated_Source\PSoC5/USB.c ****     #endif   /* End USB_EP7_ISR_REMOVE */
 327:.\Generated_Source\PSoC5/USB.c **** 
 328:.\Generated_Source\PSoC5/USB.c ****     /* Set the Data Endpoint 8 Interrupt. */
 329:.\Generated_Source\PSoC5/USB.c ****     #if(USB_EP8_ISR_REMOVE == 0u)
 330:.\Generated_Source\PSoC5/USB.c ****         CyIntSetVector(USB_EP_8_VECT_NUM,   USB_EP_8_ISR);
 331:.\Generated_Source\PSoC5/USB.c ****         CyIntSetPriority(USB_EP_8_VECT_NUM, USB_EP_8_PRIOR);
 332:.\Generated_Source\PSoC5/USB.c ****     #endif   /* End USB_EP8_ISR_REMOVE */
 333:.\Generated_Source\PSoC5/USB.c **** 
 334:.\Generated_Source\PSoC5/USB.c ****     #if((USB_EP_MM != USB__EP_MANUAL) && (USB_ARB_ISR_REMOVE == 0u))
 335:.\Generated_Source\PSoC5/USB.c ****         /* Set the ARB Interrupt. */
 336:.\Generated_Source\PSoC5/USB.c ****         CyIntSetVector(USB_ARB_VECT_NUM,   USB_ARB_ISR);
 337:.\Generated_Source\PSoC5/USB.c ****         CyIntSetPriority(USB_ARB_VECT_NUM, USB_ARB_PRIOR);
ARM GAS  C:\Users\Craig\AppData\Local\Temp\ccXI8V1u.s 			page 12


 338:.\Generated_Source\PSoC5/USB.c ****     #endif   /* End USB_EP_MM != USB__EP_MANUAL */
 339:.\Generated_Source\PSoC5/USB.c **** 
 340:.\Generated_Source\PSoC5/USB.c **** }
 287              		.loc 1 340 0
 288 0208 07F10807 		add	r7, r7, #8
 289 020c BD46     		mov	sp, r7
 290 020e 80BD     		pop	{r7, pc}
 291              		.cfi_endproc
 292              	.LFE1:
 293              		.size	USB_Init, .-USB_Init
 294              		.section	.text.USB_InitComponent,"ax",%progbits
 295              		.align	2
 296              		.global	USB_InitComponent
 297              		.thumb
 298              		.thumb_func
 299              		.type	USB_InitComponent, %function
 300              	USB_InitComponent:
 301              	.LFB2:
 341:.\Generated_Source\PSoC5/USB.c **** 
 342:.\Generated_Source\PSoC5/USB.c **** 
 343:.\Generated_Source\PSoC5/USB.c **** /*******************************************************************************
 344:.\Generated_Source\PSoC5/USB.c **** * Function Name: USB_InitComponent
 345:.\Generated_Source\PSoC5/USB.c **** ********************************************************************************
 346:.\Generated_Source\PSoC5/USB.c **** *
 347:.\Generated_Source\PSoC5/USB.c **** * Summary:
 348:.\Generated_Source\PSoC5/USB.c **** *  Initialize the component, except for the HW which is done one time in
 349:.\Generated_Source\PSoC5/USB.c **** *  the Start function.  This function pulls up D+.
 350:.\Generated_Source\PSoC5/USB.c **** *
 351:.\Generated_Source\PSoC5/USB.c **** * Parameters:
 352:.\Generated_Source\PSoC5/USB.c **** *  device: Contains the device number of the desired device descriptor.
 353:.\Generated_Source\PSoC5/USB.c **** *          The device number can be found in the Device Descriptor Tab of 
 354:.\Generated_Source\PSoC5/USB.c **** *          "Configure" dialog, under the settings of desired Device Descriptor,
 355:.\Generated_Source\PSoC5/USB.c **** *          in the "Device Number" field.
 356:.\Generated_Source\PSoC5/USB.c **** *  mode: The operating voltage. This determines whether the voltage regulator
 357:.\Generated_Source\PSoC5/USB.c **** *        is enabled for 5V operation or if pass through mode is used for 3.3V
 358:.\Generated_Source\PSoC5/USB.c **** *        operation. Symbolic names and their associated values are given in the
 359:.\Generated_Source\PSoC5/USB.c **** *        following table.
 360:.\Generated_Source\PSoC5/USB.c **** *       USB_3V_OPERATION - Disable voltage regulator and pass-thru
 361:.\Generated_Source\PSoC5/USB.c **** *                                       Vcc for pull-up
 362:.\Generated_Source\PSoC5/USB.c **** *       USB_5V_OPERATION - Enable voltage regulator and use
 363:.\Generated_Source\PSoC5/USB.c **** *                                       regulator for pull-up
 364:.\Generated_Source\PSoC5/USB.c **** *       USB_DWR_VDDD_OPERATION - Enable or Disable voltage
 365:.\Generated_Source\PSoC5/USB.c **** *                         regulator depend on Vddd Voltage configuration in DWR.
 366:.\Generated_Source\PSoC5/USB.c **** *
 367:.\Generated_Source\PSoC5/USB.c **** * Return:
 368:.\Generated_Source\PSoC5/USB.c **** *   None.
 369:.\Generated_Source\PSoC5/USB.c **** *
 370:.\Generated_Source\PSoC5/USB.c **** * Global variables:
 371:.\Generated_Source\PSoC5/USB.c **** *   USB_device: Contains the device number of the desired device
 372:.\Generated_Source\PSoC5/USB.c **** *       descriptor. The device number can be found in the Device Descriptor Tab 
 373:.\Generated_Source\PSoC5/USB.c **** *       of "Configure" dialog, under the settings of desired Device Descriptor,
 374:.\Generated_Source\PSoC5/USB.c **** *       in the "Device Number" field.
 375:.\Generated_Source\PSoC5/USB.c **** *   USB_transferState: This variable used by the communication
 376:.\Generated_Source\PSoC5/USB.c **** *       functions to handle current transfer state. Initialized to
 377:.\Generated_Source\PSoC5/USB.c **** *       TRANS_STATE_IDLE in this API.
 378:.\Generated_Source\PSoC5/USB.c **** *   USB_configuration: Contains current configuration number
 379:.\Generated_Source\PSoC5/USB.c **** *       which is set by the Host using SET_CONFIGURATION request.
ARM GAS  C:\Users\Craig\AppData\Local\Temp\ccXI8V1u.s 			page 13


 380:.\Generated_Source\PSoC5/USB.c **** *       Initialized to zero in this API.
 381:.\Generated_Source\PSoC5/USB.c **** *   USB_deviceAddress: Contains current device address. This
 382:.\Generated_Source\PSoC5/USB.c **** *       variable is initialized to zero in this API. Host starts to communicate
 383:.\Generated_Source\PSoC5/USB.c **** *      to device with address 0 and then set it to whatever value using
 384:.\Generated_Source\PSoC5/USB.c **** *      SET_ADDRESS request.
 385:.\Generated_Source\PSoC5/USB.c **** *   USB_deviceStatus: initialized to 0.
 386:.\Generated_Source\PSoC5/USB.c **** *       This is two bit variable which contain power status in first bit
 387:.\Generated_Source\PSoC5/USB.c **** *       (DEVICE_STATUS_BUS_POWERED or DEVICE_STATUS_SELF_POWERED) and remote
 388:.\Generated_Source\PSoC5/USB.c **** *       wakeup status (DEVICE_STATUS_REMOTE_WAKEUP) in second bit.
 389:.\Generated_Source\PSoC5/USB.c **** *   USB_lastPacketSize initialized to 0;
 390:.\Generated_Source\PSoC5/USB.c **** *
 391:.\Generated_Source\PSoC5/USB.c **** * Reentrant:
 392:.\Generated_Source\PSoC5/USB.c **** *  No.
 393:.\Generated_Source\PSoC5/USB.c **** *
 394:.\Generated_Source\PSoC5/USB.c **** *******************************************************************************/
 395:.\Generated_Source\PSoC5/USB.c **** void USB_InitComponent(uint8 device, uint8 mode) 
 396:.\Generated_Source\PSoC5/USB.c **** {
 302              		.loc 1 396 0
 303              		.cfi_startproc
 304              		@ args = 0, pretend = 0, frame = 8
 305              		@ frame_needed = 1, uses_anonymous_args = 0
 306 0000 80B5     		push	{r7, lr}
 307              	.LCFI6:
 308              		.cfi_def_cfa_offset 8
 309 0002 82B0     		sub	sp, sp, #8
 310              	.LCFI7:
 311              		.cfi_def_cfa_offset 16
 312 0004 00AF     		add	r7, sp, #0
 313              		.cfi_offset 14, -4
 314              		.cfi_offset 7, -8
 315              	.LCFI8:
 316              		.cfi_def_cfa_register 7
 317 0006 0246     		mov	r2, r0
 318 0008 0B46     		mov	r3, r1
 319 000a FA71     		strb	r2, [r7, #7]
 320 000c BB71     		strb	r3, [r7, #6]
 397:.\Generated_Source\PSoC5/USB.c ****     /* Initialize _hidProtocol variable to comply with
 398:.\Generated_Source\PSoC5/USB.c ****     *  HID 7.2.6 Set_Protocol Request:
 399:.\Generated_Source\PSoC5/USB.c ****     *  "When initialized, all devices default to report protocol."
 400:.\Generated_Source\PSoC5/USB.c ****     */
 401:.\Generated_Source\PSoC5/USB.c ****     #if defined(USB_ENABLE_HID_CLASS)
 402:.\Generated_Source\PSoC5/USB.c ****         uint8 interface;
 403:.\Generated_Source\PSoC5/USB.c **** 
 404:.\Generated_Source\PSoC5/USB.c ****         for (interface = 0u; interface < USB_MAX_INTERFACES_NUMBER; interface++)
 405:.\Generated_Source\PSoC5/USB.c ****         {
 406:.\Generated_Source\PSoC5/USB.c ****             USB_hidProtocol[interface] = USB_PROTOCOL_REPORT;
 407:.\Generated_Source\PSoC5/USB.c ****         }
 408:.\Generated_Source\PSoC5/USB.c ****     #endif /* USB_ENABLE_HID_CLASS */
 409:.\Generated_Source\PSoC5/USB.c **** 
 410:.\Generated_Source\PSoC5/USB.c ****     /* Enable Interrupts. */
 411:.\Generated_Source\PSoC5/USB.c ****     CyIntEnable(USB_BUS_RESET_VECT_NUM);
 321              		.loc 1 411 0
 322 000e 4EF20013 		movw	r3, #:lower16:-536813312
 323 0012 CEF20003 		movt	r3, #:upper16:-536813312
 324 0016 4FF40002 		mov	r2, #8388608
 325 001a 1A60     		str	r2, [r3, #0]
 412:.\Generated_Source\PSoC5/USB.c ****     CyIntEnable(USB_EP_0_VECT_NUM);
ARM GAS  C:\Users\Craig\AppData\Local\Temp\ccXI8V1u.s 			page 14


 326              		.loc 1 412 0
 327 001c 4EF20013 		movw	r3, #:lower16:-536813312
 328 0020 CEF20003 		movt	r3, #:upper16:-536813312
 329 0024 4FF08072 		mov	r2, #16777216
 330 0028 1A60     		str	r2, [r3, #0]
 413:.\Generated_Source\PSoC5/USB.c ****     #if(USB_EP1_ISR_REMOVE == 0u)
 414:.\Generated_Source\PSoC5/USB.c ****         CyIntEnable(USB_EP_1_VECT_NUM);
 331              		.loc 1 414 0
 332 002a 4EF20013 		movw	r3, #:lower16:-536813312
 333 002e CEF20003 		movt	r3, #:upper16:-536813312
 334 0032 4FF00102 		mov	r2, #1
 335 0036 1A60     		str	r2, [r3, #0]
 415:.\Generated_Source\PSoC5/USB.c ****     #endif   /* End USB_EP1_ISR_REMOVE */
 416:.\Generated_Source\PSoC5/USB.c ****     #if(USB_EP2_ISR_REMOVE == 0u)
 417:.\Generated_Source\PSoC5/USB.c ****         CyIntEnable(USB_EP_2_VECT_NUM);
 336              		.loc 1 417 0
 337 0038 4EF20013 		movw	r3, #:lower16:-536813312
 338 003c CEF20003 		movt	r3, #:upper16:-536813312
 339 0040 4FF00202 		mov	r2, #2
 340 0044 1A60     		str	r2, [r3, #0]
 418:.\Generated_Source\PSoC5/USB.c ****     #endif   /* End USB_EP2_ISR_REMOVE */
 419:.\Generated_Source\PSoC5/USB.c ****     #if(USB_EP3_ISR_REMOVE == 0u)
 420:.\Generated_Source\PSoC5/USB.c ****         CyIntEnable(USB_EP_3_VECT_NUM);
 421:.\Generated_Source\PSoC5/USB.c ****     #endif   /* End USB_EP3_ISR_REMOVE */
 422:.\Generated_Source\PSoC5/USB.c ****     #if(USB_EP4_ISR_REMOVE == 0u)
 423:.\Generated_Source\PSoC5/USB.c ****         CyIntEnable(USB_EP_4_VECT_NUM);
 424:.\Generated_Source\PSoC5/USB.c ****     #endif   /* End USB_EP4_ISR_REMOVE */
 425:.\Generated_Source\PSoC5/USB.c ****     #if(USB_EP5_ISR_REMOVE == 0u)
 426:.\Generated_Source\PSoC5/USB.c ****         CyIntEnable(USB_EP_5_VECT_NUM);
 427:.\Generated_Source\PSoC5/USB.c ****     #endif   /* End USB_EP5_ISR_REMOVE */
 428:.\Generated_Source\PSoC5/USB.c ****     #if(USB_EP6_ISR_REMOVE == 0u)
 429:.\Generated_Source\PSoC5/USB.c ****         CyIntEnable(USB_EP_6_VECT_NUM);
 430:.\Generated_Source\PSoC5/USB.c ****     #endif   /* End USB_EP6_ISR_REMOVE */
 431:.\Generated_Source\PSoC5/USB.c ****     #if(USB_EP7_ISR_REMOVE == 0u)
 432:.\Generated_Source\PSoC5/USB.c ****         CyIntEnable(USB_EP_7_VECT_NUM);
 433:.\Generated_Source\PSoC5/USB.c ****     #endif   /* End USB_EP7_ISR_REMOVE */
 434:.\Generated_Source\PSoC5/USB.c ****     #if(USB_EP8_ISR_REMOVE == 0u)
 435:.\Generated_Source\PSoC5/USB.c ****         CyIntEnable(USB_EP_8_VECT_NUM);
 436:.\Generated_Source\PSoC5/USB.c ****     #endif   /* End USB_EP8_ISR_REMOVE */
 437:.\Generated_Source\PSoC5/USB.c ****     #if((USB_EP_MM != USB__EP_MANUAL) && (USB_ARB_ISR_REMOVE == 0u))
 438:.\Generated_Source\PSoC5/USB.c ****         /* usb arb interrupt enable */
 439:.\Generated_Source\PSoC5/USB.c ****         USB_ARB_INT_EN_REG = USB_ARB_INT_MASK;
 440:.\Generated_Source\PSoC5/USB.c ****         CyIntEnable(USB_ARB_VECT_NUM);
 441:.\Generated_Source\PSoC5/USB.c ****     #endif   /* End USB_EP_MM != USB__EP_MANUAL */
 442:.\Generated_Source\PSoC5/USB.c **** 
 443:.\Generated_Source\PSoC5/USB.c ****     /* Arbiter congiguration for DMA transfers */
 444:.\Generated_Source\PSoC5/USB.c ****     #if(USB_EP_MM != USB__EP_MANUAL)
 445:.\Generated_Source\PSoC5/USB.c **** 
 446:.\Generated_Source\PSoC5/USB.c ****         #if(USB_EP_MM == USB__EP_DMAMANUAL)
 447:.\Generated_Source\PSoC5/USB.c ****             USB_ARB_CFG_REG = USB_ARB_CFG_MANUAL_DMA;
 448:.\Generated_Source\PSoC5/USB.c ****         #endif   /* End USB_EP_MM == USB__EP_DMAMANUAL */
 449:.\Generated_Source\PSoC5/USB.c ****         #if(USB_EP_MM == USB__EP_DMAAUTO)
 450:.\Generated_Source\PSoC5/USB.c ****             /*Set cfg cmplt this rises DMA request when the full configuration is done */
 451:.\Generated_Source\PSoC5/USB.c ****             USB_ARB_CFG_REG = USB_ARB_CFG_AUTO_DMA | USB_ARB_CFG_AUTO_MEM;
 452:.\Generated_Source\PSoC5/USB.c ****         #endif   /* End USB_EP_MM == USB__EP_DMAAUTO */
 453:.\Generated_Source\PSoC5/USB.c ****     #endif   /* End USB_EP_MM != USB__EP_MANUAL */
 454:.\Generated_Source\PSoC5/USB.c **** 
ARM GAS  C:\Users\Craig\AppData\Local\Temp\ccXI8V1u.s 			page 15


 455:.\Generated_Source\PSoC5/USB.c ****     USB_transferState = USB_TRANS_STATE_IDLE;
 341              		.loc 1 455 0
 342 0046 40F20003 		movw	r3, #:lower16:USB_transferState
 343 004a C0F20003 		movt	r3, #:upper16:USB_transferState
 344 004e 4FF00002 		mov	r2, #0
 345 0052 1A70     		strb	r2, [r3, #0]
 456:.\Generated_Source\PSoC5/USB.c **** 
 457:.\Generated_Source\PSoC5/USB.c ****     /* USB Locking: Enabled, VRegulator: depend on mode or DWR Voltage configuration*/
 458:.\Generated_Source\PSoC5/USB.c ****     switch(mode)
 346              		.loc 1 458 0
 347 0054 BB79     		ldrb	r3, [r7, #6]	@ zero_extendqisi2
 348 0056 002B     		cmp	r3, #0
 349 0058 02D0     		beq	.L8
 350 005a 012B     		cmp	r3, #1
 351 005c 08D0     		beq	.L9
 352 005e 0FE0     		b	.L12
 353              	.L8:
 459:.\Generated_Source\PSoC5/USB.c ****     {
 460:.\Generated_Source\PSoC5/USB.c ****         case USB_3V_OPERATION:
 461:.\Generated_Source\PSoC5/USB.c ****             USB_CR1_REG = USB_CR1_ENABLE_LOCK;
 354              		.loc 1 461 0
 355 0060 46F20903 		movw	r3, #:lower16:1073766409
 356 0064 C4F20003 		movt	r3, #:upper16:1073766409
 357 0068 4FF00202 		mov	r2, #2
 358 006c 1A70     		strb	r2, [r3, #0]
 462:.\Generated_Source\PSoC5/USB.c ****             break;
 359              		.loc 1 462 0
 360 006e 0EE0     		b	.L10
 361              	.L9:
 463:.\Generated_Source\PSoC5/USB.c ****         case USB_5V_OPERATION:
 464:.\Generated_Source\PSoC5/USB.c ****             USB_CR1_REG = USB_CR1_ENABLE_LOCK | USB_CR1_REG_ENABLE;
 362              		.loc 1 464 0
 363 0070 46F20903 		movw	r3, #:lower16:1073766409
 364 0074 C4F20003 		movt	r3, #:upper16:1073766409
 365 0078 4FF00302 		mov	r2, #3
 366 007c 1A70     		strb	r2, [r3, #0]
 465:.\Generated_Source\PSoC5/USB.c ****             break;
 367              		.loc 1 465 0
 368 007e 06E0     		b	.L10
 369              	.L12:
 466:.\Generated_Source\PSoC5/USB.c ****         default:   /*USB_DWR_VDDD_OPERATION */
 467:.\Generated_Source\PSoC5/USB.c ****             #if(USB_VDDD_MV < USB_3500MV)
 468:.\Generated_Source\PSoC5/USB.c ****                 USB_CR1_REG = USB_CR1_ENABLE_LOCK;
 469:.\Generated_Source\PSoC5/USB.c ****             #else
 470:.\Generated_Source\PSoC5/USB.c ****                 USB_CR1_REG = USB_CR1_ENABLE_LOCK | USB_CR1_REG_ENABLE;
 370              		.loc 1 470 0
 371 0080 46F20903 		movw	r3, #:lower16:1073766409
 372 0084 C4F20003 		movt	r3, #:upper16:1073766409
 373 0088 4FF00302 		mov	r2, #3
 374 008c 1A70     		strb	r2, [r3, #0]
 375              	.L10:
 471:.\Generated_Source\PSoC5/USB.c ****             #endif /* End USB_VDDD_MV < USB_3500MV */
 472:.\Generated_Source\PSoC5/USB.c ****             break;
 473:.\Generated_Source\PSoC5/USB.c ****     }
 474:.\Generated_Source\PSoC5/USB.c **** 
 475:.\Generated_Source\PSoC5/USB.c ****     /* Record the descriptor selection */
 476:.\Generated_Source\PSoC5/USB.c ****     USB_device = device;
ARM GAS  C:\Users\Craig\AppData\Local\Temp\ccXI8V1u.s 			page 16


 376              		.loc 1 476 0
 377 008e 40F20003 		movw	r3, #:lower16:USB_device
 378 0092 C0F20003 		movt	r3, #:upper16:USB_device
 379 0096 FA79     		ldrb	r2, [r7, #7]
 380 0098 1A70     		strb	r2, [r3, #0]
 477:.\Generated_Source\PSoC5/USB.c **** 
 478:.\Generated_Source\PSoC5/USB.c ****     /* Clear all of the component data */
 479:.\Generated_Source\PSoC5/USB.c ****     USB_configuration = 0u;
 381              		.loc 1 479 0
 382 009a 40F20003 		movw	r3, #:lower16:USB_configuration
 383 009e C0F20003 		movt	r3, #:upper16:USB_configuration
 384 00a2 4FF00002 		mov	r2, #0
 385 00a6 1A70     		strb	r2, [r3, #0]
 480:.\Generated_Source\PSoC5/USB.c ****     USB_interfaceNumber = 0u;
 386              		.loc 1 480 0
 387 00a8 40F20003 		movw	r3, #:lower16:USB_interfaceNumber
 388 00ac C0F20003 		movt	r3, #:upper16:USB_interfaceNumber
 389 00b0 4FF00002 		mov	r2, #0
 390 00b4 1A70     		strb	r2, [r3, #0]
 481:.\Generated_Source\PSoC5/USB.c ****     USB_configurationChanged = 0u;
 391              		.loc 1 481 0
 392 00b6 40F20003 		movw	r3, #:lower16:USB_configurationChanged
 393 00ba C0F20003 		movt	r3, #:upper16:USB_configurationChanged
 394 00be 4FF00002 		mov	r2, #0
 395 00c2 1A70     		strb	r2, [r3, #0]
 482:.\Generated_Source\PSoC5/USB.c ****     USB_deviceAddress  = 0u;
 396              		.loc 1 482 0
 397 00c4 40F20003 		movw	r3, #:lower16:USB_deviceAddress
 398 00c8 C0F20003 		movt	r3, #:upper16:USB_deviceAddress
 399 00cc 4FF00002 		mov	r2, #0
 400 00d0 1A70     		strb	r2, [r3, #0]
 483:.\Generated_Source\PSoC5/USB.c ****     USB_deviceStatus = 0u;
 401              		.loc 1 483 0
 402 00d2 40F20003 		movw	r3, #:lower16:USB_deviceStatus
 403 00d6 C0F20003 		movt	r3, #:upper16:USB_deviceStatus
 404 00da 4FF00002 		mov	r2, #0
 405 00de 1A70     		strb	r2, [r3, #0]
 484:.\Generated_Source\PSoC5/USB.c **** 
 485:.\Generated_Source\PSoC5/USB.c ****     USB_lastPacketSize = 0u;
 406              		.loc 1 485 0
 407 00e0 40F20003 		movw	r3, #:lower16:USB_lastPacketSize
 408 00e4 C0F20003 		movt	r3, #:upper16:USB_lastPacketSize
 409 00e8 4FF00002 		mov	r2, #0
 410 00ec 1A70     		strb	r2, [r3, #0]
 486:.\Generated_Source\PSoC5/USB.c **** 
 487:.\Generated_Source\PSoC5/USB.c ****     /*  ACK Setup, Stall IN/OUT */
 488:.\Generated_Source\PSoC5/USB.c ****     CY_SET_REG8(USB_EP0_CR_PTR, USB_MODE_STALL_IN_OUT);
 411              		.loc 1 488 0
 412 00ee 46F22803 		movw	r3, #:lower16:1073766440
 413 00f2 C4F20003 		movt	r3, #:upper16:1073766440
 414 00f6 4FF00302 		mov	r2, #3
 415 00fa 1A70     		strb	r2, [r3, #0]
 489:.\Generated_Source\PSoC5/USB.c **** 
 490:.\Generated_Source\PSoC5/USB.c ****     /* Enable the SIE with an address 0 */
 491:.\Generated_Source\PSoC5/USB.c ****     CY_SET_REG8(USB_CR0_PTR, USB_CR0_ENABLE);
 416              		.loc 1 491 0
 417 00fc 46F20803 		movw	r3, #:lower16:1073766408
ARM GAS  C:\Users\Craig\AppData\Local\Temp\ccXI8V1u.s 			page 17


 418 0100 C4F20003 		movt	r3, #:upper16:1073766408
 419 0104 6FF07F02 		mvn	r2, #127
 420 0108 1A70     		strb	r2, [r3, #0]
 492:.\Generated_Source\PSoC5/USB.c **** 
 493:.\Generated_Source\PSoC5/USB.c ****     /* Workarond for PSOC5LP */
 494:.\Generated_Source\PSoC5/USB.c ****     CyDelayCycles(1);
 421              		.loc 1 494 0
 422 010a 4FF00100 		mov	r0, #1
 423 010e FFF7FEFF 		bl	CyDelayCycles
 495:.\Generated_Source\PSoC5/USB.c ****     
 496:.\Generated_Source\PSoC5/USB.c ****     /* Finally, Enable d+ pullup and select iomode to USB mode*/
 497:.\Generated_Source\PSoC5/USB.c ****     CY_SET_REG8(USB_USBIO_CR1_PTR, USB_USBIO_CR1_USBPUEN);
 424              		.loc 1 497 0
 425 0112 46F21203 		movw	r3, #:lower16:1073766418
 426 0116 C4F20003 		movt	r3, #:upper16:1073766418
 427 011a 4FF00402 		mov	r2, #4
 428 011e 1A70     		strb	r2, [r3, #0]
 498:.\Generated_Source\PSoC5/USB.c **** }
 429              		.loc 1 498 0
 430 0120 07F10807 		add	r7, r7, #8
 431 0124 BD46     		mov	sp, r7
 432 0126 80BD     		pop	{r7, pc}
 433              		.cfi_endproc
 434              	.LFE2:
 435              		.size	USB_InitComponent, .-USB_InitComponent
 436              		.section	.text.USB_ReInitComponent,"ax",%progbits
 437              		.align	2
 438              		.global	USB_ReInitComponent
 439              		.thumb
 440              		.thumb_func
 441              		.type	USB_ReInitComponent, %function
 442              	USB_ReInitComponent:
 443              	.LFB3:
 499:.\Generated_Source\PSoC5/USB.c **** 
 500:.\Generated_Source\PSoC5/USB.c **** 
 501:.\Generated_Source\PSoC5/USB.c **** /*******************************************************************************
 502:.\Generated_Source\PSoC5/USB.c **** * Function Name: USB_ReInitComponent
 503:.\Generated_Source\PSoC5/USB.c **** ********************************************************************************
 504:.\Generated_Source\PSoC5/USB.c **** *
 505:.\Generated_Source\PSoC5/USB.c **** * Summary:
 506:.\Generated_Source\PSoC5/USB.c **** *  This function reinitialize the component configuration and is
 507:.\Generated_Source\PSoC5/USB.c **** *  intend to be called from the Reset interrupt.
 508:.\Generated_Source\PSoC5/USB.c **** *
 509:.\Generated_Source\PSoC5/USB.c **** * Parameters:
 510:.\Generated_Source\PSoC5/USB.c **** *  None.
 511:.\Generated_Source\PSoC5/USB.c **** *
 512:.\Generated_Source\PSoC5/USB.c **** * Return:
 513:.\Generated_Source\PSoC5/USB.c **** *   None.
 514:.\Generated_Source\PSoC5/USB.c **** *
 515:.\Generated_Source\PSoC5/USB.c **** * Global variables:
 516:.\Generated_Source\PSoC5/USB.c **** *   USB_device: Contains the device number of the desired device 
 517:.\Generated_Source\PSoC5/USB.c **** *		descriptor. The device number can be found in the Device Descriptor Tab 
 518:.\Generated_Source\PSoC5/USB.c **** *       of "Configure" dialog, under the settings of desired Device Descriptor,
 519:.\Generated_Source\PSoC5/USB.c **** *       in the "Device Number" field.
 520:.\Generated_Source\PSoC5/USB.c **** *   USB_transferState: This variable used by the communication
 521:.\Generated_Source\PSoC5/USB.c **** *       functions to handle current transfer state. Initialized to
 522:.\Generated_Source\PSoC5/USB.c **** *       TRANS_STATE_IDLE in this API.
ARM GAS  C:\Users\Craig\AppData\Local\Temp\ccXI8V1u.s 			page 18


 523:.\Generated_Source\PSoC5/USB.c **** *   USB_configuration: Contains current configuration number
 524:.\Generated_Source\PSoC5/USB.c **** *       which is set by the Host using SET_CONFIGURATION request.
 525:.\Generated_Source\PSoC5/USB.c **** *       Initialized to zero in this API.
 526:.\Generated_Source\PSoC5/USB.c **** *   USB_deviceAddress: Contains current device address. This
 527:.\Generated_Source\PSoC5/USB.c **** *       variable is initialized to zero in this API. Host starts to communicate
 528:.\Generated_Source\PSoC5/USB.c **** *      to device with address 0 and then set it to whatever value using
 529:.\Generated_Source\PSoC5/USB.c **** *      SET_ADDRESS request.
 530:.\Generated_Source\PSoC5/USB.c **** *   USB_deviceStatus: initialized to 0.
 531:.\Generated_Source\PSoC5/USB.c **** *       This is two bit variable which contain power status in first bit
 532:.\Generated_Source\PSoC5/USB.c **** *       (DEVICE_STATUS_BUS_POWERED or DEVICE_STATUS_SELF_POWERED) and remote
 533:.\Generated_Source\PSoC5/USB.c **** *       wakeup status (DEVICE_STATUS_REMOTE_WAKEUP) in second bit.
 534:.\Generated_Source\PSoC5/USB.c **** *   USB_lastPacketSize initialized to 0;
 535:.\Generated_Source\PSoC5/USB.c **** *
 536:.\Generated_Source\PSoC5/USB.c **** * Reentrant:
 537:.\Generated_Source\PSoC5/USB.c **** *  No.
 538:.\Generated_Source\PSoC5/USB.c **** *
 539:.\Generated_Source\PSoC5/USB.c **** *******************************************************************************/
 540:.\Generated_Source\PSoC5/USB.c **** void USB_ReInitComponent() 
 541:.\Generated_Source\PSoC5/USB.c **** {
 444              		.loc 1 541 0
 445              		.cfi_startproc
 446              		@ args = 0, pretend = 0, frame = 0
 447              		@ frame_needed = 1, uses_anonymous_args = 0
 448              		@ link register save eliminated.
 449 0000 80B4     		push	{r7}
 450              	.LCFI9:
 451              		.cfi_def_cfa_offset 4
 452 0002 00AF     		add	r7, sp, #0
 453              		.cfi_offset 7, -4
 454              	.LCFI10:
 455              		.cfi_def_cfa_register 7
 542:.\Generated_Source\PSoC5/USB.c ****     /* Initialize _hidProtocol variable to comply with HID 7.2.6 Set_Protocol
 543:.\Generated_Source\PSoC5/USB.c ****     *  Request: "When initialized, all devices default to report protocol."
 544:.\Generated_Source\PSoC5/USB.c ****     */
 545:.\Generated_Source\PSoC5/USB.c ****     #if defined(USB_ENABLE_HID_CLASS)
 546:.\Generated_Source\PSoC5/USB.c ****         uint8 interface;
 547:.\Generated_Source\PSoC5/USB.c **** 
 548:.\Generated_Source\PSoC5/USB.c ****         for (interface = 0u; interface < USB_MAX_INTERFACES_NUMBER; interface++)
 549:.\Generated_Source\PSoC5/USB.c ****         {
 550:.\Generated_Source\PSoC5/USB.c ****             USB_hidProtocol[interface] = USB_PROTOCOL_REPORT;
 551:.\Generated_Source\PSoC5/USB.c ****         }
 552:.\Generated_Source\PSoC5/USB.c ****     #endif /* USB_ENABLE_HID_CLASS */
 553:.\Generated_Source\PSoC5/USB.c **** 
 554:.\Generated_Source\PSoC5/USB.c ****     USB_transferState = USB_TRANS_STATE_IDLE;
 456              		.loc 1 554 0
 457 0004 40F20003 		movw	r3, #:lower16:USB_transferState
 458 0008 C0F20003 		movt	r3, #:upper16:USB_transferState
 459 000c 4FF00002 		mov	r2, #0
 460 0010 1A70     		strb	r2, [r3, #0]
 555:.\Generated_Source\PSoC5/USB.c **** 
 556:.\Generated_Source\PSoC5/USB.c ****     /* Clear all of the component data */
 557:.\Generated_Source\PSoC5/USB.c ****     USB_configuration = 0u;
 461              		.loc 1 557 0
 462 0012 40F20003 		movw	r3, #:lower16:USB_configuration
 463 0016 C0F20003 		movt	r3, #:upper16:USB_configuration
 464 001a 4FF00002 		mov	r2, #0
 465 001e 1A70     		strb	r2, [r3, #0]
ARM GAS  C:\Users\Craig\AppData\Local\Temp\ccXI8V1u.s 			page 19


 558:.\Generated_Source\PSoC5/USB.c ****     USB_interfaceNumber = 0u;
 466              		.loc 1 558 0
 467 0020 40F20003 		movw	r3, #:lower16:USB_interfaceNumber
 468 0024 C0F20003 		movt	r3, #:upper16:USB_interfaceNumber
 469 0028 4FF00002 		mov	r2, #0
 470 002c 1A70     		strb	r2, [r3, #0]
 559:.\Generated_Source\PSoC5/USB.c ****     USB_configurationChanged = 0u;
 471              		.loc 1 559 0
 472 002e 40F20003 		movw	r3, #:lower16:USB_configurationChanged
 473 0032 C0F20003 		movt	r3, #:upper16:USB_configurationChanged
 474 0036 4FF00002 		mov	r2, #0
 475 003a 1A70     		strb	r2, [r3, #0]
 560:.\Generated_Source\PSoC5/USB.c ****     USB_deviceAddress  = 0u;
 476              		.loc 1 560 0
 477 003c 40F20003 		movw	r3, #:lower16:USB_deviceAddress
 478 0040 C0F20003 		movt	r3, #:upper16:USB_deviceAddress
 479 0044 4FF00002 		mov	r2, #0
 480 0048 1A70     		strb	r2, [r3, #0]
 561:.\Generated_Source\PSoC5/USB.c ****     USB_deviceStatus = 0u;
 481              		.loc 1 561 0
 482 004a 40F20003 		movw	r3, #:lower16:USB_deviceStatus
 483 004e C0F20003 		movt	r3, #:upper16:USB_deviceStatus
 484 0052 4FF00002 		mov	r2, #0
 485 0056 1A70     		strb	r2, [r3, #0]
 562:.\Generated_Source\PSoC5/USB.c **** 
 563:.\Generated_Source\PSoC5/USB.c ****     USB_lastPacketSize = 0u;
 486              		.loc 1 563 0
 487 0058 40F20003 		movw	r3, #:lower16:USB_lastPacketSize
 488 005c C0F20003 		movt	r3, #:upper16:USB_lastPacketSize
 489 0060 4FF00002 		mov	r2, #0
 490 0064 1A70     		strb	r2, [r3, #0]
 564:.\Generated_Source\PSoC5/USB.c **** 
 565:.\Generated_Source\PSoC5/USB.c **** 
 566:.\Generated_Source\PSoC5/USB.c ****     /*  ACK Setup, Stall IN/OUT */
 567:.\Generated_Source\PSoC5/USB.c ****     CY_SET_REG8(USB_EP0_CR_PTR, USB_MODE_STALL_IN_OUT);
 491              		.loc 1 567 0
 492 0066 46F22803 		movw	r3, #:lower16:1073766440
 493 006a C4F20003 		movt	r3, #:upper16:1073766440
 494 006e 4FF00302 		mov	r2, #3
 495 0072 1A70     		strb	r2, [r3, #0]
 568:.\Generated_Source\PSoC5/USB.c **** 
 569:.\Generated_Source\PSoC5/USB.c ****     /* Enable the SIE with an address 0 */
 570:.\Generated_Source\PSoC5/USB.c ****     CY_SET_REG8(USB_CR0_PTR, USB_CR0_ENABLE);
 496              		.loc 1 570 0
 497 0074 46F20803 		movw	r3, #:lower16:1073766408
 498 0078 C4F20003 		movt	r3, #:upper16:1073766408
 499 007c 6FF07F02 		mvn	r2, #127
 500 0080 1A70     		strb	r2, [r3, #0]
 571:.\Generated_Source\PSoC5/USB.c **** 
 572:.\Generated_Source\PSoC5/USB.c **** }
 501              		.loc 1 572 0
 502 0082 BD46     		mov	sp, r7
 503 0084 80BC     		pop	{r7}
 504 0086 7047     		bx	lr
 505              		.cfi_endproc
 506              	.LFE3:
 507              		.size	USB_ReInitComponent, .-USB_ReInitComponent
ARM GAS  C:\Users\Craig\AppData\Local\Temp\ccXI8V1u.s 			page 20


 508              		.section	.text.USB_Stop,"ax",%progbits
 509              		.align	2
 510              		.global	USB_Stop
 511              		.thumb
 512              		.thumb_func
 513              		.type	USB_Stop, %function
 514              	USB_Stop:
 515              	.LFB4:
 573:.\Generated_Source\PSoC5/USB.c **** 
 574:.\Generated_Source\PSoC5/USB.c **** 
 575:.\Generated_Source\PSoC5/USB.c **** /*******************************************************************************
 576:.\Generated_Source\PSoC5/USB.c **** * Function Name: USB_Stop
 577:.\Generated_Source\PSoC5/USB.c **** ********************************************************************************
 578:.\Generated_Source\PSoC5/USB.c **** *
 579:.\Generated_Source\PSoC5/USB.c **** * Summary:
 580:.\Generated_Source\PSoC5/USB.c **** *  This function shuts down the USB function including to release
 581:.\Generated_Source\PSoC5/USB.c **** *  the D+ Pullup and disabling the SIE.
 582:.\Generated_Source\PSoC5/USB.c **** *
 583:.\Generated_Source\PSoC5/USB.c **** * Parameters:
 584:.\Generated_Source\PSoC5/USB.c **** *  None.
 585:.\Generated_Source\PSoC5/USB.c **** *
 586:.\Generated_Source\PSoC5/USB.c **** * Return:
 587:.\Generated_Source\PSoC5/USB.c **** *  None.
 588:.\Generated_Source\PSoC5/USB.c **** *
 589:.\Generated_Source\PSoC5/USB.c **** * Global variables:
 590:.\Generated_Source\PSoC5/USB.c **** *   USB_configuration: Contains current configuration number
 591:.\Generated_Source\PSoC5/USB.c **** *       which is set by the Host using SET_CONFIGURATION request.
 592:.\Generated_Source\PSoC5/USB.c **** *       Initialized to zero in this API.
 593:.\Generated_Source\PSoC5/USB.c **** *   USB_deviceAddress: Contains current device address. This
 594:.\Generated_Source\PSoC5/USB.c **** *       variable is initialized to zero in this API. Host starts to communicate
 595:.\Generated_Source\PSoC5/USB.c **** *      to device with address 0 and then set it to whatever value using
 596:.\Generated_Source\PSoC5/USB.c **** *      SET_ADDRESS request.
 597:.\Generated_Source\PSoC5/USB.c **** *   USB_deviceStatus: initialized to 0.
 598:.\Generated_Source\PSoC5/USB.c **** *       This is two bit variable which contain power status in first bit
 599:.\Generated_Source\PSoC5/USB.c **** *       (DEVICE_STATUS_BUS_POWERED or DEVICE_STATUS_SELF_POWERED) and remote
 600:.\Generated_Source\PSoC5/USB.c **** *       wakeup status (DEVICE_STATUS_REMOTE_WAKEUP) in second bit.
 601:.\Generated_Source\PSoC5/USB.c **** *   USB_configurationChanged: This variable is set to one after
 602:.\Generated_Source\PSoC5/USB.c **** *       SET_CONFIGURATION request and cleared in this function.
 603:.\Generated_Source\PSoC5/USB.c **** *   USB_intiVar variable is set to zero
 604:.\Generated_Source\PSoC5/USB.c **** *
 605:.\Generated_Source\PSoC5/USB.c **** *******************************************************************************/
 606:.\Generated_Source\PSoC5/USB.c **** void USB_Stop(void) 
 607:.\Generated_Source\PSoC5/USB.c **** {
 516              		.loc 1 607 0
 517              		.cfi_startproc
 518              		@ args = 0, pretend = 0, frame = 0
 519              		@ frame_needed = 1, uses_anonymous_args = 0
 520              		@ link register save eliminated.
 521 0000 80B4     		push	{r7}
 522              	.LCFI11:
 523              		.cfi_def_cfa_offset 4
 524 0002 00AF     		add	r7, sp, #0
 525              		.cfi_offset 7, -4
 526              	.LCFI12:
 527              		.cfi_def_cfa_register 7
 608:.\Generated_Source\PSoC5/USB.c **** 
 609:.\Generated_Source\PSoC5/USB.c ****     #if(USB_EP_MM != USB__EP_MANUAL)
ARM GAS  C:\Users\Craig\AppData\Local\Temp\ccXI8V1u.s 			page 21


 610:.\Generated_Source\PSoC5/USB.c ****         USB_Stop_DMA(USB_MAX_EP);     /* Stop all DMAs */
 611:.\Generated_Source\PSoC5/USB.c ****     #endif   /* End USB_EP_MM != USB__EP_MANUAL */
 612:.\Generated_Source\PSoC5/USB.c **** 
 613:.\Generated_Source\PSoC5/USB.c ****     /* Disable the SIE */
 614:.\Generated_Source\PSoC5/USB.c ****     USB_CR0_REG &= ~USB_CR0_ENABLE;
 528              		.loc 1 614 0
 529 0004 46F20803 		movw	r3, #:lower16:1073766408
 530 0008 C4F20003 		movt	r3, #:upper16:1073766408
 531 000c 46F20802 		movw	r2, #:lower16:1073766408
 532 0010 C4F20002 		movt	r2, #:upper16:1073766408
 533 0014 1278     		ldrb	r2, [r2, #0]
 534 0016 D2B2     		uxtb	r2, r2
 535 0018 02F07F02 		and	r2, r2, #127
 536 001c 1A70     		strb	r2, [r3, #0]
 615:.\Generated_Source\PSoC5/USB.c ****     /* Disable the d+ pullup */
 616:.\Generated_Source\PSoC5/USB.c ****     USB_USBIO_CR1_REG &= ~USB_USBIO_CR1_USBPUEN;
 537              		.loc 1 616 0
 538 001e 46F21203 		movw	r3, #:lower16:1073766418
 539 0022 C4F20003 		movt	r3, #:upper16:1073766418
 540 0026 46F21202 		movw	r2, #:lower16:1073766418
 541 002a C4F20002 		movt	r2, #:upper16:1073766418
 542 002e 1278     		ldrb	r2, [r2, #0]
 543 0030 D2B2     		uxtb	r2, r2
 544 0032 02F0FB02 		and	r2, r2, #251
 545 0036 1A70     		strb	r2, [r3, #0]
 617:.\Generated_Source\PSoC5/USB.c ****     #if(CY_PSOC5A)
 618:.\Generated_Source\PSoC5/USB.c ****         /* Disable USBIO block*/
 619:.\Generated_Source\PSoC5/USB.c ****         USB_PM_AVAIL_CR_REG &= ~USB_PM_AVAIL_EN_FSUSBIO;
 620:.\Generated_Source\PSoC5/USB.c ****     #endif /* End CY_PSOC5A */    
 621:.\Generated_Source\PSoC5/USB.c ****     /* Disable USB in ACT PM */
 622:.\Generated_Source\PSoC5/USB.c ****     USB_PM_ACT_CFG_REG &= ~USB_PM_ACT_EN_FSUSB;
 546              		.loc 1 622 0
 547 0038 44F2A533 		movw	r3, #:lower16:1073759141
 548 003c C4F20003 		movt	r3, #:upper16:1073759141
 549 0040 44F2A532 		movw	r2, #:lower16:1073759141
 550 0044 C4F20002 		movt	r2, #:upper16:1073759141
 551 0048 1278     		ldrb	r2, [r2, #0]
 552 004a D2B2     		uxtb	r2, r2
 553 004c 02F0FE02 		and	r2, r2, #254
 554 0050 1A70     		strb	r2, [r3, #0]
 623:.\Generated_Source\PSoC5/USB.c ****     /* Disable USB block for Standby Power Mode */
 624:.\Generated_Source\PSoC5/USB.c ****     USB_PM_STBY_CFG_REG &= ~USB_PM_STBY_EN_FSUSB;
 555              		.loc 1 624 0
 556 0052 44F2B533 		movw	r3, #:lower16:1073759157
 557 0056 C4F20003 		movt	r3, #:upper16:1073759157
 558 005a 44F2B532 		movw	r2, #:lower16:1073759157
 559 005e C4F20002 		movt	r2, #:upper16:1073759157
 560 0062 1278     		ldrb	r2, [r2, #0]
 561 0064 D2B2     		uxtb	r2, r2
 562 0066 02F0FE02 		and	r2, r2, #254
 563 006a 1A70     		strb	r2, [r3, #0]
 625:.\Generated_Source\PSoC5/USB.c **** 
 626:.\Generated_Source\PSoC5/USB.c ****     /* Disable the reset and EP interrupts */
 627:.\Generated_Source\PSoC5/USB.c ****     CyIntDisable(USB_BUS_RESET_VECT_NUM);
 564              		.loc 1 627 0
 565 006c 4EF28013 		movw	r3, #:lower16:-536813184
 566 0070 CEF20003 		movt	r3, #:upper16:-536813184
ARM GAS  C:\Users\Craig\AppData\Local\Temp\ccXI8V1u.s 			page 22


 567 0074 4FF40002 		mov	r2, #8388608
 568 0078 1A60     		str	r2, [r3, #0]
 628:.\Generated_Source\PSoC5/USB.c ****     CyIntDisable(USB_EP_0_VECT_NUM);
 569              		.loc 1 628 0
 570 007a 4EF28013 		movw	r3, #:lower16:-536813184
 571 007e CEF20003 		movt	r3, #:upper16:-536813184
 572 0082 4FF08072 		mov	r2, #16777216
 573 0086 1A60     		str	r2, [r3, #0]
 629:.\Generated_Source\PSoC5/USB.c ****     #if(USB_EP1_ISR_REMOVE == 0u)
 630:.\Generated_Source\PSoC5/USB.c ****         CyIntDisable(USB_EP_1_VECT_NUM);
 574              		.loc 1 630 0
 575 0088 4EF28013 		movw	r3, #:lower16:-536813184
 576 008c CEF20003 		movt	r3, #:upper16:-536813184
 577 0090 4FF00102 		mov	r2, #1
 578 0094 1A60     		str	r2, [r3, #0]
 631:.\Generated_Source\PSoC5/USB.c ****     #endif   /* End USB_EP1_ISR_REMOVE */
 632:.\Generated_Source\PSoC5/USB.c ****     #if(USB_EP2_ISR_REMOVE == 0u)
 633:.\Generated_Source\PSoC5/USB.c ****         CyIntDisable(USB_EP_2_VECT_NUM);
 579              		.loc 1 633 0
 580 0096 4EF28013 		movw	r3, #:lower16:-536813184
 581 009a CEF20003 		movt	r3, #:upper16:-536813184
 582 009e 4FF00202 		mov	r2, #2
 583 00a2 1A60     		str	r2, [r3, #0]
 634:.\Generated_Source\PSoC5/USB.c ****     #endif   /* End USB_EP2_ISR_REMOVE */
 635:.\Generated_Source\PSoC5/USB.c ****     #if(USB_EP3_ISR_REMOVE == 0u)
 636:.\Generated_Source\PSoC5/USB.c ****         CyIntDisable(USB_EP_3_VECT_NUM);
 637:.\Generated_Source\PSoC5/USB.c ****     #endif   /* End USB_EP3_ISR_REMOVE */
 638:.\Generated_Source\PSoC5/USB.c ****     #if(USB_EP4_ISR_REMOVE == 0u)
 639:.\Generated_Source\PSoC5/USB.c ****         CyIntDisable(USB_EP_4_VECT_NUM);
 640:.\Generated_Source\PSoC5/USB.c ****     #endif   /* End USB_EP4_ISR_REMOVE */
 641:.\Generated_Source\PSoC5/USB.c ****     #if(USB_EP5_ISR_REMOVE == 0u)
 642:.\Generated_Source\PSoC5/USB.c ****         CyIntDisable(USB_EP_5_VECT_NUM);
 643:.\Generated_Source\PSoC5/USB.c ****     #endif   /* End USB_EP5_ISR_REMOVE */
 644:.\Generated_Source\PSoC5/USB.c ****     #if(USB_EP6_ISR_REMOVE == 0u)
 645:.\Generated_Source\PSoC5/USB.c ****         CyIntDisable(USB_EP_6_VECT_NUM);
 646:.\Generated_Source\PSoC5/USB.c ****     #endif   /* End USB_EP6_ISR_REMOVE */
 647:.\Generated_Source\PSoC5/USB.c ****     #if(USB_EP7_ISR_REMOVE == 0u)
 648:.\Generated_Source\PSoC5/USB.c ****         CyIntDisable(USB_EP_7_VECT_NUM);
 649:.\Generated_Source\PSoC5/USB.c ****     #endif   /* End USB_EP7_ISR_REMOVE */
 650:.\Generated_Source\PSoC5/USB.c ****     #if(USB_EP8_ISR_REMOVE == 0u)
 651:.\Generated_Source\PSoC5/USB.c ****         CyIntDisable(USB_EP_8_VECT_NUM);
 652:.\Generated_Source\PSoC5/USB.c ****     #endif   /* End USB_EP8_ISR_REMOVE */
 653:.\Generated_Source\PSoC5/USB.c **** 
 654:.\Generated_Source\PSoC5/USB.c ****     /* Clear all of the component data */
 655:.\Generated_Source\PSoC5/USB.c ****     USB_configuration = 0u;
 584              		.loc 1 655 0
 585 00a4 40F20003 		movw	r3, #:lower16:USB_configuration
 586 00a8 C0F20003 		movt	r3, #:upper16:USB_configuration
 587 00ac 4FF00002 		mov	r2, #0
 588 00b0 1A70     		strb	r2, [r3, #0]
 656:.\Generated_Source\PSoC5/USB.c ****     USB_interfaceNumber = 0u;
 589              		.loc 1 656 0
 590 00b2 40F20003 		movw	r3, #:lower16:USB_interfaceNumber
 591 00b6 C0F20003 		movt	r3, #:upper16:USB_interfaceNumber
 592 00ba 4FF00002 		mov	r2, #0
 593 00be 1A70     		strb	r2, [r3, #0]
 657:.\Generated_Source\PSoC5/USB.c ****     USB_configurationChanged = 0u;
ARM GAS  C:\Users\Craig\AppData\Local\Temp\ccXI8V1u.s 			page 23


 594              		.loc 1 657 0
 595 00c0 40F20003 		movw	r3, #:lower16:USB_configurationChanged
 596 00c4 C0F20003 		movt	r3, #:upper16:USB_configurationChanged
 597 00c8 4FF00002 		mov	r2, #0
 598 00cc 1A70     		strb	r2, [r3, #0]
 658:.\Generated_Source\PSoC5/USB.c ****     USB_deviceAddress  = 0u;
 599              		.loc 1 658 0
 600 00ce 40F20003 		movw	r3, #:lower16:USB_deviceAddress
 601 00d2 C0F20003 		movt	r3, #:upper16:USB_deviceAddress
 602 00d6 4FF00002 		mov	r2, #0
 603 00da 1A70     		strb	r2, [r3, #0]
 659:.\Generated_Source\PSoC5/USB.c ****     USB_deviceStatus = 0u;
 604              		.loc 1 659 0
 605 00dc 40F20003 		movw	r3, #:lower16:USB_deviceStatus
 606 00e0 C0F20003 		movt	r3, #:upper16:USB_deviceStatus
 607 00e4 4FF00002 		mov	r2, #0
 608 00e8 1A70     		strb	r2, [r3, #0]
 660:.\Generated_Source\PSoC5/USB.c ****     USB_initVar = 0u;
 609              		.loc 1 660 0
 610 00ea 40F20003 		movw	r3, #:lower16:USB_initVar
 611 00ee C0F20003 		movt	r3, #:upper16:USB_initVar
 612 00f2 4FF00002 		mov	r2, #0
 613 00f6 1A70     		strb	r2, [r3, #0]
 661:.\Generated_Source\PSoC5/USB.c **** 
 662:.\Generated_Source\PSoC5/USB.c **** }
 614              		.loc 1 662 0
 615 00f8 BD46     		mov	sp, r7
 616 00fa 80BC     		pop	{r7}
 617 00fc 7047     		bx	lr
 618              		.cfi_endproc
 619              	.LFE4:
 620              		.size	USB_Stop, .-USB_Stop
 621 00fe 00BF     		.section	.text.USB_CheckActivity,"ax",%progbits
 622              		.align	2
 623              		.global	USB_CheckActivity
 624              		.thumb
 625              		.thumb_func
 626              		.type	USB_CheckActivity, %function
 627              	USB_CheckActivity:
 628              	.LFB5:
 663:.\Generated_Source\PSoC5/USB.c **** 
 664:.\Generated_Source\PSoC5/USB.c **** 
 665:.\Generated_Source\PSoC5/USB.c **** /*******************************************************************************
 666:.\Generated_Source\PSoC5/USB.c **** * Function Name: USB_CheckActivity
 667:.\Generated_Source\PSoC5/USB.c **** ********************************************************************************
 668:.\Generated_Source\PSoC5/USB.c **** *
 669:.\Generated_Source\PSoC5/USB.c **** * Summary:
 670:.\Generated_Source\PSoC5/USB.c **** *  Returns the activity status of the bus.  Clears the status hardware to
 671:.\Generated_Source\PSoC5/USB.c **** *  provide fresh activity status on the next call of this routine.
 672:.\Generated_Source\PSoC5/USB.c **** *
 673:.\Generated_Source\PSoC5/USB.c **** * Parameters:
 674:.\Generated_Source\PSoC5/USB.c **** *  None.
 675:.\Generated_Source\PSoC5/USB.c **** *
 676:.\Generated_Source\PSoC5/USB.c **** * Return:
 677:.\Generated_Source\PSoC5/USB.c **** *  1 - If bus activity was detected since the last call to this function
 678:.\Generated_Source\PSoC5/USB.c **** *  0 - If bus activity not was detected since the last call to this function
 679:.\Generated_Source\PSoC5/USB.c **** *
ARM GAS  C:\Users\Craig\AppData\Local\Temp\ccXI8V1u.s 			page 24


 680:.\Generated_Source\PSoC5/USB.c **** *******************************************************************************/
 681:.\Generated_Source\PSoC5/USB.c **** uint8 USB_CheckActivity(void) 
 682:.\Generated_Source\PSoC5/USB.c **** {
 629              		.loc 1 682 0
 630              		.cfi_startproc
 631              		@ args = 0, pretend = 0, frame = 8
 632              		@ frame_needed = 1, uses_anonymous_args = 0
 633              		@ link register save eliminated.
 634 0000 80B4     		push	{r7}
 635              	.LCFI13:
 636              		.cfi_def_cfa_offset 4
 637 0002 83B0     		sub	sp, sp, #12
 638              	.LCFI14:
 639              		.cfi_def_cfa_offset 16
 640 0004 00AF     		add	r7, sp, #0
 641              		.cfi_offset 7, -4
 642              	.LCFI15:
 643              		.cfi_def_cfa_register 7
 683:.\Generated_Source\PSoC5/USB.c ****     uint8 r;
 684:.\Generated_Source\PSoC5/USB.c **** 
 685:.\Generated_Source\PSoC5/USB.c ****     r = CY_GET_REG8(USB_CR1_PTR);
 644              		.loc 1 685 0
 645 0006 46F20903 		movw	r3, #:lower16:1073766409
 646 000a C4F20003 		movt	r3, #:upper16:1073766409
 647 000e 1B78     		ldrb	r3, [r3, #0]
 648 0010 FB71     		strb	r3, [r7, #7]
 686:.\Generated_Source\PSoC5/USB.c ****     CY_SET_REG8(USB_CR1_PTR, (r & ~USB_CR1_BUS_ACTIVITY));
 649              		.loc 1 686 0
 650 0012 46F20903 		movw	r3, #:lower16:1073766409
 651 0016 C4F20003 		movt	r3, #:upper16:1073766409
 652 001a FA79     		ldrb	r2, [r7, #7]	@ zero_extendqisi2
 653 001c 02F0FB02 		and	r2, r2, #251
 654 0020 1A70     		strb	r2, [r3, #0]
 687:.\Generated_Source\PSoC5/USB.c **** 
 688:.\Generated_Source\PSoC5/USB.c ****     return((r & USB_CR1_BUS_ACTIVITY) >> USB_CR1_BUS_ACTIVITY_SHIFT);
 655              		.loc 1 688 0
 656 0022 FB79     		ldrb	r3, [r7, #7]	@ zero_extendqisi2
 657 0024 03F00403 		and	r3, r3, #4
 658 0028 4FEA9303 		lsr	r3, r3, #2
 659 002c DBB2     		uxtb	r3, r3
 689:.\Generated_Source\PSoC5/USB.c **** }
 660              		.loc 1 689 0
 661 002e 1846     		mov	r0, r3
 662 0030 07F10C07 		add	r7, r7, #12
 663 0034 BD46     		mov	sp, r7
 664 0036 80BC     		pop	{r7}
 665 0038 7047     		bx	lr
 666              		.cfi_endproc
 667              	.LFE5:
 668              		.size	USB_CheckActivity, .-USB_CheckActivity
 669 003a 00BF     		.section	.text.USB_GetConfiguration,"ax",%progbits
 670              		.align	2
 671              		.global	USB_GetConfiguration
 672              		.thumb
 673              		.thumb_func
 674              		.type	USB_GetConfiguration, %function
 675              	USB_GetConfiguration:
ARM GAS  C:\Users\Craig\AppData\Local\Temp\ccXI8V1u.s 			page 25


 676              	.LFB6:
 690:.\Generated_Source\PSoC5/USB.c **** 
 691:.\Generated_Source\PSoC5/USB.c **** 
 692:.\Generated_Source\PSoC5/USB.c **** /*******************************************************************************
 693:.\Generated_Source\PSoC5/USB.c **** * Function Name: USB_GetConfiguration
 694:.\Generated_Source\PSoC5/USB.c **** ********************************************************************************
 695:.\Generated_Source\PSoC5/USB.c **** *
 696:.\Generated_Source\PSoC5/USB.c **** * Summary:
 697:.\Generated_Source\PSoC5/USB.c **** *  Returns the current configuration setting
 698:.\Generated_Source\PSoC5/USB.c **** *
 699:.\Generated_Source\PSoC5/USB.c **** * Parameters:
 700:.\Generated_Source\PSoC5/USB.c **** *  None.
 701:.\Generated_Source\PSoC5/USB.c **** *
 702:.\Generated_Source\PSoC5/USB.c **** * Return:
 703:.\Generated_Source\PSoC5/USB.c **** *  configuration.
 704:.\Generated_Source\PSoC5/USB.c **** *
 705:.\Generated_Source\PSoC5/USB.c **** *******************************************************************************/
 706:.\Generated_Source\PSoC5/USB.c **** uint8 USB_GetConfiguration(void) 
 707:.\Generated_Source\PSoC5/USB.c **** {
 677              		.loc 1 707 0
 678              		.cfi_startproc
 679              		@ args = 0, pretend = 0, frame = 0
 680              		@ frame_needed = 1, uses_anonymous_args = 0
 681              		@ link register save eliminated.
 682 0000 80B4     		push	{r7}
 683              	.LCFI16:
 684              		.cfi_def_cfa_offset 4
 685 0002 00AF     		add	r7, sp, #0
 686              		.cfi_offset 7, -4
 687              	.LCFI17:
 688              		.cfi_def_cfa_register 7
 708:.\Generated_Source\PSoC5/USB.c ****     return(USB_configuration);
 689              		.loc 1 708 0
 690 0004 40F20003 		movw	r3, #:lower16:USB_configuration
 691 0008 C0F20003 		movt	r3, #:upper16:USB_configuration
 692 000c 1B78     		ldrb	r3, [r3, #0]
 693 000e DBB2     		uxtb	r3, r3
 709:.\Generated_Source\PSoC5/USB.c **** }
 694              		.loc 1 709 0
 695 0010 1846     		mov	r0, r3
 696 0012 BD46     		mov	sp, r7
 697 0014 80BC     		pop	{r7}
 698 0016 7047     		bx	lr
 699              		.cfi_endproc
 700              	.LFE6:
 701              		.size	USB_GetConfiguration, .-USB_GetConfiguration
 702              		.section	.text.USB_IsConfigurationChanged,"ax",%progbits
 703              		.align	2
 704              		.global	USB_IsConfigurationChanged
 705              		.thumb
 706              		.thumb_func
 707              		.type	USB_IsConfigurationChanged, %function
 708              	USB_IsConfigurationChanged:
 709              	.LFB7:
 710:.\Generated_Source\PSoC5/USB.c **** 
 711:.\Generated_Source\PSoC5/USB.c **** 
 712:.\Generated_Source\PSoC5/USB.c **** /*******************************************************************************
ARM GAS  C:\Users\Craig\AppData\Local\Temp\ccXI8V1u.s 			page 26


 713:.\Generated_Source\PSoC5/USB.c **** * Function Name: USB_IsConfigurationChanged
 714:.\Generated_Source\PSoC5/USB.c **** ********************************************************************************
 715:.\Generated_Source\PSoC5/USB.c **** *
 716:.\Generated_Source\PSoC5/USB.c **** * Summary:
 717:.\Generated_Source\PSoC5/USB.c **** *  Returns the clear on read configuration state. It is usefull when PC send
 718:.\Generated_Source\PSoC5/USB.c **** *  double SET_CONFIGURATION request with same configuration number.
 719:.\Generated_Source\PSoC5/USB.c **** *
 720:.\Generated_Source\PSoC5/USB.c **** * Parameters:
 721:.\Generated_Source\PSoC5/USB.c **** *  None.
 722:.\Generated_Source\PSoC5/USB.c **** *
 723:.\Generated_Source\PSoC5/USB.c **** * Return:
 724:.\Generated_Source\PSoC5/USB.c **** *  Not zero value when new configuration has been changed, otherwise zero is
 725:.\Generated_Source\PSoC5/USB.c **** *  returned.
 726:.\Generated_Source\PSoC5/USB.c **** *
 727:.\Generated_Source\PSoC5/USB.c **** * Global variables:
 728:.\Generated_Source\PSoC5/USB.c **** *   USB_configurationChanged: This variable is set to one after
 729:.\Generated_Source\PSoC5/USB.c **** *       SET_CONFIGURATION request and cleared in this function.
 730:.\Generated_Source\PSoC5/USB.c **** *
 731:.\Generated_Source\PSoC5/USB.c **** *******************************************************************************/
 732:.\Generated_Source\PSoC5/USB.c **** uint8 USB_IsConfigurationChanged(void) 
 733:.\Generated_Source\PSoC5/USB.c **** {
 710              		.loc 1 733 0
 711              		.cfi_startproc
 712              		@ args = 0, pretend = 0, frame = 8
 713              		@ frame_needed = 1, uses_anonymous_args = 0
 714              		@ link register save eliminated.
 715 0000 80B4     		push	{r7}
 716              	.LCFI18:
 717              		.cfi_def_cfa_offset 4
 718 0002 83B0     		sub	sp, sp, #12
 719              	.LCFI19:
 720              		.cfi_def_cfa_offset 16
 721 0004 00AF     		add	r7, sp, #0
 722              		.cfi_offset 7, -4
 723              	.LCFI20:
 724              		.cfi_def_cfa_register 7
 734:.\Generated_Source\PSoC5/USB.c ****     uint8 res = 0u;
 725              		.loc 1 734 0
 726 0006 4FF00003 		mov	r3, #0
 727 000a FB71     		strb	r3, [r7, #7]
 735:.\Generated_Source\PSoC5/USB.c **** 
 736:.\Generated_Source\PSoC5/USB.c ****     if(USB_configurationChanged != 0u)
 728              		.loc 1 736 0
 729 000c 40F20003 		movw	r3, #:lower16:USB_configurationChanged
 730 0010 C0F20003 		movt	r3, #:upper16:USB_configurationChanged
 731 0014 1B78     		ldrb	r3, [r3, #0]
 732 0016 DBB2     		uxtb	r3, r3
 733 0018 002B     		cmp	r3, #0
 734 001a 0CD0     		beq	.L22
 737:.\Generated_Source\PSoC5/USB.c ****     {
 738:.\Generated_Source\PSoC5/USB.c ****         res = USB_configurationChanged;
 735              		.loc 1 738 0
 736 001c 40F20003 		movw	r3, #:lower16:USB_configurationChanged
 737 0020 C0F20003 		movt	r3, #:upper16:USB_configurationChanged
 738 0024 1B78     		ldrb	r3, [r3, #0]
 739 0026 FB71     		strb	r3, [r7, #7]
 739:.\Generated_Source\PSoC5/USB.c ****         USB_configurationChanged = 0u;
ARM GAS  C:\Users\Craig\AppData\Local\Temp\ccXI8V1u.s 			page 27


 740              		.loc 1 739 0
 741 0028 40F20003 		movw	r3, #:lower16:USB_configurationChanged
 742 002c C0F20003 		movt	r3, #:upper16:USB_configurationChanged
 743 0030 4FF00002 		mov	r2, #0
 744 0034 1A70     		strb	r2, [r3, #0]
 745              	.L22:
 740:.\Generated_Source\PSoC5/USB.c ****     }
 741:.\Generated_Source\PSoC5/USB.c **** 
 742:.\Generated_Source\PSoC5/USB.c ****     return(res);
 746              		.loc 1 742 0
 747 0036 FB79     		ldrb	r3, [r7, #7]	@ zero_extendqisi2
 743:.\Generated_Source\PSoC5/USB.c **** }
 748              		.loc 1 743 0
 749 0038 1846     		mov	r0, r3
 750 003a 07F10C07 		add	r7, r7, #12
 751 003e BD46     		mov	sp, r7
 752 0040 80BC     		pop	{r7}
 753 0042 7047     		bx	lr
 754              		.cfi_endproc
 755              	.LFE7:
 756              		.size	USB_IsConfigurationChanged, .-USB_IsConfigurationChanged
 757              		.section	.text.USB_GetInterfaceSetting,"ax",%progbits
 758              		.align	2
 759              		.global	USB_GetInterfaceSetting
 760              		.thumb
 761              		.thumb_func
 762              		.type	USB_GetInterfaceSetting, %function
 763              	USB_GetInterfaceSetting:
 764              	.LFB8:
 744:.\Generated_Source\PSoC5/USB.c **** 
 745:.\Generated_Source\PSoC5/USB.c **** 
 746:.\Generated_Source\PSoC5/USB.c **** /*******************************************************************************
 747:.\Generated_Source\PSoC5/USB.c **** * Function Name: USB_GetInterfaceSetting
 748:.\Generated_Source\PSoC5/USB.c **** ********************************************************************************
 749:.\Generated_Source\PSoC5/USB.c **** *
 750:.\Generated_Source\PSoC5/USB.c **** * Summary:
 751:.\Generated_Source\PSoC5/USB.c **** *  Returns the alternate setting from current interface
 752:.\Generated_Source\PSoC5/USB.c **** *
 753:.\Generated_Source\PSoC5/USB.c **** * Parameters:
 754:.\Generated_Source\PSoC5/USB.c **** *  uint8 interfaceNumber, interface number
 755:.\Generated_Source\PSoC5/USB.c **** *
 756:.\Generated_Source\PSoC5/USB.c **** * Return:
 757:.\Generated_Source\PSoC5/USB.c **** *  Alternate setting.
 758:.\Generated_Source\PSoC5/USB.c **** *
 759:.\Generated_Source\PSoC5/USB.c **** *******************************************************************************/
 760:.\Generated_Source\PSoC5/USB.c **** uint8  USB_GetInterfaceSetting(uint8 interfaceNumber)
 761:.\Generated_Source\PSoC5/USB.c ****                                                     
 762:.\Generated_Source\PSoC5/USB.c **** {
 765              		.loc 1 762 0
 766              		.cfi_startproc
 767              		@ args = 0, pretend = 0, frame = 8
 768              		@ frame_needed = 1, uses_anonymous_args = 0
 769              		@ link register save eliminated.
 770 0000 80B4     		push	{r7}
 771              	.LCFI21:
 772              		.cfi_def_cfa_offset 4
 773 0002 83B0     		sub	sp, sp, #12
ARM GAS  C:\Users\Craig\AppData\Local\Temp\ccXI8V1u.s 			page 28


 774              	.LCFI22:
 775              		.cfi_def_cfa_offset 16
 776 0004 00AF     		add	r7, sp, #0
 777              		.cfi_offset 7, -4
 778              	.LCFI23:
 779              		.cfi_def_cfa_register 7
 780 0006 0346     		mov	r3, r0
 781 0008 FB71     		strb	r3, [r7, #7]
 763:.\Generated_Source\PSoC5/USB.c ****     return(USB_interfaceSetting[interfaceNumber]);
 782              		.loc 1 763 0
 783 000a FA79     		ldrb	r2, [r7, #7]	@ zero_extendqisi2
 784 000c 40F20003 		movw	r3, #:lower16:USB_interfaceSetting
 785 0010 C0F20003 		movt	r3, #:upper16:USB_interfaceSetting
 786 0014 9B5C     		ldrb	r3, [r3, r2]
 787 0016 DBB2     		uxtb	r3, r3
 764:.\Generated_Source\PSoC5/USB.c **** }
 788              		.loc 1 764 0
 789 0018 1846     		mov	r0, r3
 790 001a 07F10C07 		add	r7, r7, #12
 791 001e BD46     		mov	sp, r7
 792 0020 80BC     		pop	{r7}
 793 0022 7047     		bx	lr
 794              		.cfi_endproc
 795              	.LFE8:
 796              		.size	USB_GetInterfaceSetting, .-USB_GetInterfaceSetting
 797              		.section	.text.USB_GetEPState,"ax",%progbits
 798              		.align	2
 799              		.global	USB_GetEPState
 800              		.thumb
 801              		.thumb_func
 802              		.type	USB_GetEPState, %function
 803              	USB_GetEPState:
 804              	.LFB9:
 765:.\Generated_Source\PSoC5/USB.c **** 
 766:.\Generated_Source\PSoC5/USB.c **** 
 767:.\Generated_Source\PSoC5/USB.c **** /*******************************************************************************
 768:.\Generated_Source\PSoC5/USB.c **** * Function Name: USB_GetEPState
 769:.\Generated_Source\PSoC5/USB.c **** ********************************************************************************
 770:.\Generated_Source\PSoC5/USB.c **** *
 771:.\Generated_Source\PSoC5/USB.c **** * Summary:
 772:.\Generated_Source\PSoC5/USB.c **** *  Returned the state of the requested endpoint.
 773:.\Generated_Source\PSoC5/USB.c **** *
 774:.\Generated_Source\PSoC5/USB.c **** * Parameters:
 775:.\Generated_Source\PSoC5/USB.c **** *  epNumber: Endpoint Number
 776:.\Generated_Source\PSoC5/USB.c **** *
 777:.\Generated_Source\PSoC5/USB.c **** * Return:
 778:.\Generated_Source\PSoC5/USB.c **** *  State of the requested endpoint.
 779:.\Generated_Source\PSoC5/USB.c **** *
 780:.\Generated_Source\PSoC5/USB.c **** *******************************************************************************/
 781:.\Generated_Source\PSoC5/USB.c **** uint8 USB_GetEPState(uint8 epNumber) 
 782:.\Generated_Source\PSoC5/USB.c **** {
 805              		.loc 1 782 0
 806              		.cfi_startproc
 807              		@ args = 0, pretend = 0, frame = 8
 808              		@ frame_needed = 1, uses_anonymous_args = 0
 809              		@ link register save eliminated.
 810 0000 80B4     		push	{r7}
ARM GAS  C:\Users\Craig\AppData\Local\Temp\ccXI8V1u.s 			page 29


 811              	.LCFI24:
 812              		.cfi_def_cfa_offset 4
 813 0002 83B0     		sub	sp, sp, #12
 814              	.LCFI25:
 815              		.cfi_def_cfa_offset 16
 816 0004 00AF     		add	r7, sp, #0
 817              		.cfi_offset 7, -4
 818              	.LCFI26:
 819              		.cfi_def_cfa_register 7
 820 0006 0346     		mov	r3, r0
 821 0008 FB71     		strb	r3, [r7, #7]
 783:.\Generated_Source\PSoC5/USB.c ****     return(USB_EP[epNumber].apiEpState);
 822              		.loc 1 783 0
 823 000a F979     		ldrb	r1, [r7, #7]	@ zero_extendqisi2
 824 000c 40F20002 		movw	r2, #:lower16:USB_EP
 825 0010 C0F20002 		movt	r2, #:upper16:USB_EP
 826 0014 0B46     		mov	r3, r1
 827 0016 4FEA4303 		lsl	r3, r3, #1
 828 001a 0B44     		add	r3, r3, r1
 829 001c 4FEA8303 		lsl	r3, r3, #2
 830 0020 1344     		add	r3, r3, r2
 831 0022 5B78     		ldrb	r3, [r3, #1]
 832 0024 DBB2     		uxtb	r3, r3
 784:.\Generated_Source\PSoC5/USB.c **** }
 833              		.loc 1 784 0
 834 0026 1846     		mov	r0, r3
 835 0028 07F10C07 		add	r7, r7, #12
 836 002c BD46     		mov	sp, r7
 837 002e 80BC     		pop	{r7}
 838 0030 7047     		bx	lr
 839              		.cfi_endproc
 840              	.LFE9:
 841              		.size	USB_GetEPState, .-USB_GetEPState
 842 0032 00BF     		.section	.text.USB_GetEPCount,"ax",%progbits
 843              		.align	2
 844              		.global	USB_GetEPCount
 845              		.thumb
 846              		.thumb_func
 847              		.type	USB_GetEPCount, %function
 848              	USB_GetEPCount:
 849              	.LFB10:
 785:.\Generated_Source\PSoC5/USB.c **** 
 786:.\Generated_Source\PSoC5/USB.c **** 
 787:.\Generated_Source\PSoC5/USB.c **** /*******************************************************************************
 788:.\Generated_Source\PSoC5/USB.c **** * Function Name: USB_GetEPCount
 789:.\Generated_Source\PSoC5/USB.c **** ********************************************************************************
 790:.\Generated_Source\PSoC5/USB.c **** *
 791:.\Generated_Source\PSoC5/USB.c **** * Summary:
 792:.\Generated_Source\PSoC5/USB.c **** *  This function supports Data Endpoints only(EP1-EP8).
 793:.\Generated_Source\PSoC5/USB.c **** *  Returns the transfer count for the requested endpoint.  The value from
 794:.\Generated_Source\PSoC5/USB.c **** *  the count registers includes 2 counts for the two byte checksum of the
 795:.\Generated_Source\PSoC5/USB.c **** *  packet.  This function subtracts the two counts.
 796:.\Generated_Source\PSoC5/USB.c **** *
 797:.\Generated_Source\PSoC5/USB.c **** * Parameters:
 798:.\Generated_Source\PSoC5/USB.c **** *  epNumber: Data Endpoint Number.
 799:.\Generated_Source\PSoC5/USB.c **** *            Valid values are between 1 and 8.
 800:.\Generated_Source\PSoC5/USB.c **** *
ARM GAS  C:\Users\Craig\AppData\Local\Temp\ccXI8V1u.s 			page 30


 801:.\Generated_Source\PSoC5/USB.c **** * Return:
 802:.\Generated_Source\PSoC5/USB.c **** *  Returns the current byte count from the specified endpoin or 0 for an
 803:.\Generated_Source\PSoC5/USB.c **** *  invalid endpoint.
 804:.\Generated_Source\PSoC5/USB.c **** *
 805:.\Generated_Source\PSoC5/USB.c **** *******************************************************************************/
 806:.\Generated_Source\PSoC5/USB.c **** uint16 USB_GetEPCount(uint8 epNumber) 
 807:.\Generated_Source\PSoC5/USB.c **** {
 850              		.loc 1 807 0
 851              		.cfi_startproc
 852              		@ args = 0, pretend = 0, frame = 16
 853              		@ frame_needed = 1, uses_anonymous_args = 0
 854              		@ link register save eliminated.
 855 0000 80B4     		push	{r7}
 856              	.LCFI27:
 857              		.cfi_def_cfa_offset 4
 858 0002 85B0     		sub	sp, sp, #20
 859              	.LCFI28:
 860              		.cfi_def_cfa_offset 24
 861 0004 00AF     		add	r7, sp, #0
 862              		.cfi_offset 7, -4
 863              	.LCFI29:
 864              		.cfi_def_cfa_register 7
 865 0006 0346     		mov	r3, r0
 866 0008 FB71     		strb	r3, [r7, #7]
 808:.\Generated_Source\PSoC5/USB.c ****     uint8 ri;
 809:.\Generated_Source\PSoC5/USB.c ****     uint16 count = 0u;
 867              		.loc 1 809 0
 868 000a 4FF00003 		mov	r3, #0
 869 000e FB81     		strh	r3, [r7, #14]	@ movhi
 810:.\Generated_Source\PSoC5/USB.c **** 
 811:.\Generated_Source\PSoC5/USB.c ****     if((epNumber > USB_EP0) && (epNumber < USB_MAX_EP))
 870              		.loc 1 811 0
 871 0010 FB79     		ldrb	r3, [r7, #7]	@ zero_extendqisi2
 872 0012 002B     		cmp	r3, #0
 873 0014 24D0     		beq	.L29
 874 0016 FB79     		ldrb	r3, [r7, #7]	@ zero_extendqisi2
 875 0018 082B     		cmp	r3, #8
 876 001a 21D8     		bhi	.L29
 812:.\Generated_Source\PSoC5/USB.c ****     {
 813:.\Generated_Source\PSoC5/USB.c ****         ri = ((epNumber - USB_EP1) << USB_EPX_CNTX_ADDR_SHIFT);
 877              		.loc 1 813 0
 878 001c FB79     		ldrb	r3, [r7, #7]
 879 001e 03F1FF33 		add	r3, r3, #-1
 880 0022 DBB2     		uxtb	r3, r3
 881 0024 4FEA0313 		lsl	r3, r3, #4
 882 0028 7B73     		strb	r3, [r7, #13]
 814:.\Generated_Source\PSoC5/USB.c **** 
 815:.\Generated_Source\PSoC5/USB.c ****         count = ((uint16)((CY_GET_REG8(&USB_SIE_EP1_CNT0_PTR[ri]) & USB_EPX_CNT0_MASK) << 8u)
 883              		.loc 1 815 0
 884 002a 7A7B     		ldrb	r2, [r7, #13]	@ zero_extendqisi2
 885 002c 46F20C03 		movw	r3, #:lower16:1073766412
 886 0030 C4F20003 		movt	r3, #:upper16:1073766412
 887 0034 1344     		add	r3, r2, r3
 888 0036 1B78     		ldrb	r3, [r3, #0]
 889 0038 DBB2     		uxtb	r3, r3
 890 003a 03F00703 		and	r3, r3, #7
 891 003e 4FEA0323 		lsl	r3, r3, #8
ARM GAS  C:\Users\Craig\AppData\Local\Temp\ccXI8V1u.s 			page 31


 892 0042 9AB2     		uxth	r2, r3
 816:.\Generated_Source\PSoC5/USB.c ****                          | CY_GET_REG8(&USB_SIE_EP1_CNT1_PTR[ri]))
 893              		.loc 1 816 0
 894 0044 797B     		ldrb	r1, [r7, #13]	@ zero_extendqisi2
 895 0046 46F20D03 		movw	r3, #:lower16:1073766413
 896 004a C4F20003 		movt	r3, #:upper16:1073766413
 897 004e 0B44     		add	r3, r1, r3
 898 0050 1B78     		ldrb	r3, [r3, #0]
 899 0052 DBB2     		uxtb	r3, r3
 900              		.loc 1 815 0
 901 0054 42EA0303 		orr	r3, r2, r3
 902 0058 9BB2     		uxth	r3, r3
 903 005a A3F10203 		sub	r3, r3, #2
 904 005e FB81     		strh	r3, [r7, #14]	@ movhi
 905              	.L29:
 817:.\Generated_Source\PSoC5/USB.c ****                          - USB_EPX_CNTX_CRC_COUNT;
 818:.\Generated_Source\PSoC5/USB.c ****     }
 819:.\Generated_Source\PSoC5/USB.c ****     return(count);
 906              		.loc 1 819 0
 907 0060 FB89     		ldrh	r3, [r7, #14]
 820:.\Generated_Source\PSoC5/USB.c **** }
 908              		.loc 1 820 0
 909 0062 1846     		mov	r0, r3
 910 0064 07F11407 		add	r7, r7, #20
 911 0068 BD46     		mov	sp, r7
 912 006a 80BC     		pop	{r7}
 913 006c 7047     		bx	lr
 914              		.cfi_endproc
 915              	.LFE10:
 916              		.size	USB_GetEPCount, .-USB_GetEPCount
 917 006e 00BF     		.section	.text.USB_LoadInEP,"ax",%progbits
 918              		.align	2
 919              		.global	USB_LoadInEP
 920              		.thumb
 921              		.thumb_func
 922              		.type	USB_LoadInEP, %function
 923              	USB_LoadInEP:
 924              	.LFB11:
 821:.\Generated_Source\PSoC5/USB.c **** 
 822:.\Generated_Source\PSoC5/USB.c **** 
 823:.\Generated_Source\PSoC5/USB.c **** #if(USB_EP_MM != USB__EP_MANUAL)
 824:.\Generated_Source\PSoC5/USB.c **** 
 825:.\Generated_Source\PSoC5/USB.c **** 
 826:.\Generated_Source\PSoC5/USB.c ****     /*******************************************************************************
 827:.\Generated_Source\PSoC5/USB.c ****     * Function Name: USB_InitEP_DMA
 828:.\Generated_Source\PSoC5/USB.c ****     ********************************************************************************
 829:.\Generated_Source\PSoC5/USB.c ****     *
 830:.\Generated_Source\PSoC5/USB.c ****     * Summary: This function allocate and initializes a EP DMA chanel to be used
 831:.\Generated_Source\PSoC5/USB.c ****     *     by the USB_LoadInEP() or USB_ReadOutEP() APIs.
 832:.\Generated_Source\PSoC5/USB.c ****     *
 833:.\Generated_Source\PSoC5/USB.c ****     * Parameters:
 834:.\Generated_Source\PSoC5/USB.c ****     *  epNumber: Contains the data endpoint number.
 835:.\Generated_Source\PSoC5/USB.c ****     *            Valid values are between 1 and 8.
 836:.\Generated_Source\PSoC5/USB.c ****     *  *pData: A pointer to a data array which will be related to the EP transfers
 837:.\Generated_Source\PSoC5/USB.c ****     *
 838:.\Generated_Source\PSoC5/USB.c ****     * Return:
 839:.\Generated_Source\PSoC5/USB.c ****     *  None.
ARM GAS  C:\Users\Craig\AppData\Local\Temp\ccXI8V1u.s 			page 32


 840:.\Generated_Source\PSoC5/USB.c ****     *
 841:.\Generated_Source\PSoC5/USB.c ****     * Reentrant:
 842:.\Generated_Source\PSoC5/USB.c ****     *  No.
 843:.\Generated_Source\PSoC5/USB.c ****     *
 844:.\Generated_Source\PSoC5/USB.c ****     *******************************************************************************/
 845:.\Generated_Source\PSoC5/USB.c ****     void USB_InitEP_DMA(uint8 epNumber, uint8 *pData) 
 846:.\Generated_Source\PSoC5/USB.c ****     {
 847:.\Generated_Source\PSoC5/USB.c ****         uint16 src;
 848:.\Generated_Source\PSoC5/USB.c ****         uint16 dst;
 849:.\Generated_Source\PSoC5/USB.c ****         #if (defined(__C51__))          /* PSoC 3 - Source is Flash */
 850:.\Generated_Source\PSoC5/USB.c ****             src = HI16(CYDEV_SRAM_BASE);
 851:.\Generated_Source\PSoC5/USB.c ****             dst = HI16(CYDEV_PERIPH_BASE);
 852:.\Generated_Source\PSoC5/USB.c ****             pData = pData;
 853:.\Generated_Source\PSoC5/USB.c ****         #else                           /* PSoC 5 */
 854:.\Generated_Source\PSoC5/USB.c ****             if((USB_EP[epNumber].addr & USB_DIR_IN) != 0u )
 855:.\Generated_Source\PSoC5/USB.c ****             {   /* for the IN EP source is the flash memory buffer */
 856:.\Generated_Source\PSoC5/USB.c ****                 src = HI16(pData);
 857:.\Generated_Source\PSoC5/USB.c ****                 dst = HI16(CYDEV_PERIPH_BASE);
 858:.\Generated_Source\PSoC5/USB.c ****             }
 859:.\Generated_Source\PSoC5/USB.c ****             else
 860:.\Generated_Source\PSoC5/USB.c ****             {   /* for the OUT EP source is the SIE register */
 861:.\Generated_Source\PSoC5/USB.c ****                 src = HI16(CYDEV_PERIPH_BASE);
 862:.\Generated_Source\PSoC5/USB.c ****                 dst = HI16(pData);
 863:.\Generated_Source\PSoC5/USB.c ****             }
 864:.\Generated_Source\PSoC5/USB.c ****         #endif  /* End C51 */
 865:.\Generated_Source\PSoC5/USB.c ****         switch(epNumber)
 866:.\Generated_Source\PSoC5/USB.c ****         {
 867:.\Generated_Source\PSoC5/USB.c ****             case USB_EP1:
 868:.\Generated_Source\PSoC5/USB.c ****                 #if(USB_DMA1_REMOVE == 0u)
 869:.\Generated_Source\PSoC5/USB.c ****                     USB_DmaChan[epNumber] = USB_ep1_DmaInitialize(
 870:.\Generated_Source\PSoC5/USB.c ****                         USB_DMA_BYTES_PER_BURST, USB_DMA_REQUEST_PER_BURST, src, dst);
 871:.\Generated_Source\PSoC5/USB.c ****                 #endif   /* End USB_DMA1_REMOVE */
 872:.\Generated_Source\PSoC5/USB.c ****                 break;
 873:.\Generated_Source\PSoC5/USB.c ****             case USB_EP2:
 874:.\Generated_Source\PSoC5/USB.c ****                 #if(USB_DMA2_REMOVE == 0u)
 875:.\Generated_Source\PSoC5/USB.c ****                     USB_DmaChan[epNumber] = USB_ep2_DmaInitialize(
 876:.\Generated_Source\PSoC5/USB.c ****                         USB_DMA_BYTES_PER_BURST, USB_DMA_REQUEST_PER_BURST, src, dst);
 877:.\Generated_Source\PSoC5/USB.c ****                 #endif   /* End USB_DMA2_REMOVE */
 878:.\Generated_Source\PSoC5/USB.c ****                 break;
 879:.\Generated_Source\PSoC5/USB.c ****             case USB_EP3:
 880:.\Generated_Source\PSoC5/USB.c ****                 #if(USB_DMA3_REMOVE == 0u)
 881:.\Generated_Source\PSoC5/USB.c ****                     USB_DmaChan[epNumber] = USB_ep3_DmaInitialize(
 882:.\Generated_Source\PSoC5/USB.c ****                         USB_DMA_BYTES_PER_BURST, USB_DMA_REQUEST_PER_BURST, src, dst);
 883:.\Generated_Source\PSoC5/USB.c ****                 #endif   /* End USB_DMA3_REMOVE */
 884:.\Generated_Source\PSoC5/USB.c ****                 break;
 885:.\Generated_Source\PSoC5/USB.c ****             case USB_EP4:
 886:.\Generated_Source\PSoC5/USB.c ****                 #if(USB_DMA4_REMOVE == 0u)
 887:.\Generated_Source\PSoC5/USB.c ****                     USB_DmaChan[epNumber] = USB_ep4_DmaInitialize(
 888:.\Generated_Source\PSoC5/USB.c ****                         USB_DMA_BYTES_PER_BURST, USB_DMA_REQUEST_PER_BURST, src, dst);
 889:.\Generated_Source\PSoC5/USB.c ****                 #endif   /* End USB_DMA4_REMOVE */
 890:.\Generated_Source\PSoC5/USB.c ****                 break;
 891:.\Generated_Source\PSoC5/USB.c ****             case USB_EP5:
 892:.\Generated_Source\PSoC5/USB.c ****                 #if(USB_DMA5_REMOVE == 0u)
 893:.\Generated_Source\PSoC5/USB.c ****                     USB_DmaChan[epNumber] = USB_ep5_DmaInitialize(
 894:.\Generated_Source\PSoC5/USB.c ****                         USB_DMA_BYTES_PER_BURST, USB_DMA_REQUEST_PER_BURST, src, dst);
 895:.\Generated_Source\PSoC5/USB.c ****                 #endif   /* End USB_DMA5_REMOVE */
 896:.\Generated_Source\PSoC5/USB.c ****                 break;
ARM GAS  C:\Users\Craig\AppData\Local\Temp\ccXI8V1u.s 			page 33


 897:.\Generated_Source\PSoC5/USB.c ****             case USB_EP6:
 898:.\Generated_Source\PSoC5/USB.c ****                 #if(USB_DMA6_REMOVE == 0u)
 899:.\Generated_Source\PSoC5/USB.c ****                     USB_DmaChan[epNumber] = USB_ep6_DmaInitialize(
 900:.\Generated_Source\PSoC5/USB.c ****                         USB_DMA_BYTES_PER_BURST, USB_DMA_REQUEST_PER_BURST, src, dst);
 901:.\Generated_Source\PSoC5/USB.c ****                 #endif   /* End USB_DMA6_REMOVE */
 902:.\Generated_Source\PSoC5/USB.c ****                 break;
 903:.\Generated_Source\PSoC5/USB.c ****             case USB_EP7:
 904:.\Generated_Source\PSoC5/USB.c ****                 #if(USB_DMA7_REMOVE == 0u)
 905:.\Generated_Source\PSoC5/USB.c ****                     USB_DmaChan[epNumber] = USB_ep7_DmaInitialize(
 906:.\Generated_Source\PSoC5/USB.c ****                         USB_DMA_BYTES_PER_BURST, USB_DMA_REQUEST_PER_BURST, src, dst);
 907:.\Generated_Source\PSoC5/USB.c ****                 #endif   /* End USB_DMA7_REMOVE */
 908:.\Generated_Source\PSoC5/USB.c ****                 break;
 909:.\Generated_Source\PSoC5/USB.c ****             case USB_EP8:
 910:.\Generated_Source\PSoC5/USB.c ****                 #if(USB_DMA8_REMOVE == 0u)
 911:.\Generated_Source\PSoC5/USB.c ****                     USB_DmaChan[epNumber] = USB_ep8_DmaInitialize(
 912:.\Generated_Source\PSoC5/USB.c ****                         USB_DMA_BYTES_PER_BURST, USB_DMA_REQUEST_PER_BURST, src, dst);
 913:.\Generated_Source\PSoC5/USB.c ****                 #endif   /* End USB_DMA8_REMOVE */
 914:.\Generated_Source\PSoC5/USB.c ****                 break;
 915:.\Generated_Source\PSoC5/USB.c ****             default:
 916:.\Generated_Source\PSoC5/USB.c ****                 /* Do not support EP0 DMA transfers */
 917:.\Generated_Source\PSoC5/USB.c ****                 break;
 918:.\Generated_Source\PSoC5/USB.c ****         }
 919:.\Generated_Source\PSoC5/USB.c ****         if((epNumber > USB_EP0) && (epNumber < USB_MAX_EP))
 920:.\Generated_Source\PSoC5/USB.c ****         {
 921:.\Generated_Source\PSoC5/USB.c ****             USB_DmaTd[epNumber] = CyDmaTdAllocate();
 922:.\Generated_Source\PSoC5/USB.c ****         }
 923:.\Generated_Source\PSoC5/USB.c ****     }
 924:.\Generated_Source\PSoC5/USB.c **** 
 925:.\Generated_Source\PSoC5/USB.c **** 
 926:.\Generated_Source\PSoC5/USB.c ****     /*******************************************************************************
 927:.\Generated_Source\PSoC5/USB.c ****     * Function Name: USB_Stop_DMA
 928:.\Generated_Source\PSoC5/USB.c ****     ********************************************************************************
 929:.\Generated_Source\PSoC5/USB.c ****     *
 930:.\Generated_Source\PSoC5/USB.c ****     * Summary: Stops and free DMA
 931:.\Generated_Source\PSoC5/USB.c ****     *
 932:.\Generated_Source\PSoC5/USB.c ****     * Parameters:
 933:.\Generated_Source\PSoC5/USB.c ****     *  epNumber: Contains the data endpoint number or
 934:.\Generated_Source\PSoC5/USB.c ****     *           USB_MAX_EP to stop all DMAs
 935:.\Generated_Source\PSoC5/USB.c ****     *
 936:.\Generated_Source\PSoC5/USB.c ****     * Return:
 937:.\Generated_Source\PSoC5/USB.c ****     *  None.
 938:.\Generated_Source\PSoC5/USB.c ****     *
 939:.\Generated_Source\PSoC5/USB.c ****     * Reentrant:
 940:.\Generated_Source\PSoC5/USB.c ****     *  No.
 941:.\Generated_Source\PSoC5/USB.c ****     *
 942:.\Generated_Source\PSoC5/USB.c ****     *******************************************************************************/
 943:.\Generated_Source\PSoC5/USB.c ****     void USB_Stop_DMA(uint8 epNumber) 
 944:.\Generated_Source\PSoC5/USB.c ****     {
 945:.\Generated_Source\PSoC5/USB.c ****         uint8 i;
 946:.\Generated_Source\PSoC5/USB.c ****         i = (epNumber < USB_MAX_EP) ? epNumber : USB_EP1;
 947:.\Generated_Source\PSoC5/USB.c ****         do
 948:.\Generated_Source\PSoC5/USB.c ****         {
 949:.\Generated_Source\PSoC5/USB.c ****             if(USB_DmaTd[i] != DMA_INVALID_TD)
 950:.\Generated_Source\PSoC5/USB.c ****             {
 951:.\Generated_Source\PSoC5/USB.c ****                 CyDmaChDisable(USB_DmaChan[i]);
 952:.\Generated_Source\PSoC5/USB.c ****                 CyDmaTdFree(USB_DmaTd[i]);
 953:.\Generated_Source\PSoC5/USB.c ****                 USB_DmaTd[i] = DMA_INVALID_TD;
ARM GAS  C:\Users\Craig\AppData\Local\Temp\ccXI8V1u.s 			page 34


 954:.\Generated_Source\PSoC5/USB.c ****             }
 955:.\Generated_Source\PSoC5/USB.c ****             i++;
 956:.\Generated_Source\PSoC5/USB.c ****         }while((i < USB_MAX_EP) && (epNumber == USB_MAX_EP));
 957:.\Generated_Source\PSoC5/USB.c ****     }
 958:.\Generated_Source\PSoC5/USB.c **** 
 959:.\Generated_Source\PSoC5/USB.c **** #endif /* End USB_EP_MM != USB__EP_MANUAL */
 960:.\Generated_Source\PSoC5/USB.c **** 
 961:.\Generated_Source\PSoC5/USB.c **** 
 962:.\Generated_Source\PSoC5/USB.c **** /*******************************************************************************
 963:.\Generated_Source\PSoC5/USB.c **** * Function Name: USB_LoadInEP
 964:.\Generated_Source\PSoC5/USB.c **** ********************************************************************************
 965:.\Generated_Source\PSoC5/USB.c **** *
 966:.\Generated_Source\PSoC5/USB.c **** * Summary:
 967:.\Generated_Source\PSoC5/USB.c **** *  Loads and enables the specified USB data endpoint for an IN interrupt or bulk
 968:.\Generated_Source\PSoC5/USB.c **** *  transfer.
 969:.\Generated_Source\PSoC5/USB.c **** *
 970:.\Generated_Source\PSoC5/USB.c **** * Parameters:
 971:.\Generated_Source\PSoC5/USB.c **** *  epNumber: Contains the data endpoint number.
 972:.\Generated_Source\PSoC5/USB.c **** *            Valid values are between 1 and 8.
 973:.\Generated_Source\PSoC5/USB.c **** *  *pData: A pointer to a data array from which the data for the endpoint space
 974:.\Generated_Source\PSoC5/USB.c **** *          is loaded.
 975:.\Generated_Source\PSoC5/USB.c **** *  length: The number of bytes to transfer from the array and then send as a
 976:.\Generated_Source\PSoC5/USB.c **** *          result of an IN request. Valid values are between 0 and 512.
 977:.\Generated_Source\PSoC5/USB.c **** *
 978:.\Generated_Source\PSoC5/USB.c **** * Return:
 979:.\Generated_Source\PSoC5/USB.c **** *  None.
 980:.\Generated_Source\PSoC5/USB.c **** *
 981:.\Generated_Source\PSoC5/USB.c **** * Reentrant:
 982:.\Generated_Source\PSoC5/USB.c **** *  No.
 983:.\Generated_Source\PSoC5/USB.c **** *
 984:.\Generated_Source\PSoC5/USB.c **** *******************************************************************************/
 985:.\Generated_Source\PSoC5/USB.c **** void USB_LoadInEP(uint8 epNumber, uint8 *pData, uint16 length)
 986:.\Generated_Source\PSoC5/USB.c ****                                                                         
 987:.\Generated_Source\PSoC5/USB.c **** {
 925              		.loc 1 987 0
 926              		.cfi_startproc
 927              		@ args = 0, pretend = 0, frame = 32
 928              		@ frame_needed = 1, uses_anonymous_args = 0
 929              		@ link register save eliminated.
 930 0000 80B4     		push	{r7}
 931              	.LCFI30:
 932              		.cfi_def_cfa_offset 4
 933 0002 89B0     		sub	sp, sp, #36
 934              	.LCFI31:
 935              		.cfi_def_cfa_offset 40
 936 0004 00AF     		add	r7, sp, #0
 937              		.cfi_offset 7, -4
 938              	.LCFI32:
 939              		.cfi_def_cfa_register 7
 940 0006 B960     		str	r1, [r7, #8]
 941 0008 1346     		mov	r3, r2
 942 000a 0246     		mov	r2, r0
 943 000c FA73     		strb	r2, [r7, #15]
 944 000e FB80     		strh	r3, [r7, #6]	@ movhi
 988:.\Generated_Source\PSoC5/USB.c ****     uint8 ri;
 989:.\Generated_Source\PSoC5/USB.c ****     uint8 *p;
 990:.\Generated_Source\PSoC5/USB.c ****     #if(USB_EP_MM == USB__EP_MANUAL)
ARM GAS  C:\Users\Craig\AppData\Local\Temp\ccXI8V1u.s 			page 35


 991:.\Generated_Source\PSoC5/USB.c ****         uint16 i;
 992:.\Generated_Source\PSoC5/USB.c ****     #endif /* End USB_EP_MM == USB__EP_MANUAL */
 993:.\Generated_Source\PSoC5/USB.c **** 
 994:.\Generated_Source\PSoC5/USB.c ****     if((epNumber > USB_EP0) && (epNumber < USB_MAX_EP))
 945              		.loc 1 994 0
 946 0010 FB7B     		ldrb	r3, [r7, #15]	@ zero_extendqisi2
 947 0012 002B     		cmp	r3, #0
 948 0014 00F09A80 		beq	.L37
 949 0018 FB7B     		ldrb	r3, [r7, #15]	@ zero_extendqisi2
 950 001a 082B     		cmp	r3, #8
 951 001c 00F29680 		bhi	.L37
 995:.\Generated_Source\PSoC5/USB.c ****     {
 996:.\Generated_Source\PSoC5/USB.c ****         ri = ((epNumber - USB_EP1) << USB_EPX_CNTX_ADDR_SHIFT);
 952              		.loc 1 996 0
 953 0020 FB7B     		ldrb	r3, [r7, #15]
 954 0022 03F1FF33 		add	r3, r3, #-1
 955 0026 DBB2     		uxtb	r3, r3
 956 0028 4FEA0313 		lsl	r3, r3, #4
 957 002c FB75     		strb	r3, [r7, #23]
 997:.\Generated_Source\PSoC5/USB.c ****         p = (uint8 *)&USB_ARB_RW1_DR_PTR[ri];
 958              		.loc 1 997 0
 959 002e FA7D     		ldrb	r2, [r7, #23]	@ zero_extendqisi2
 960 0030 46F28803 		movw	r3, #:lower16:1073766536
 961 0034 C4F20003 		movt	r3, #:upper16:1073766536
 962 0038 1344     		add	r3, r2, r3
 963 003a BB61     		str	r3, [r7, #24]
 998:.\Generated_Source\PSoC5/USB.c **** 
 999:.\Generated_Source\PSoC5/USB.c ****         #if(USB_EP_MM != USB__EP_DMAAUTO)
1000:.\Generated_Source\PSoC5/USB.c ****             /* Limits length to available buffer space, auto MM could send packets up to 1024 bytes
1001:.\Generated_Source\PSoC5/USB.c ****             if(length > USB_EPX_DATA_BUF_MAX - USB_EP[epNumber].buffOffset)
 964              		.loc 1 1001 0
 965 003c F888     		ldrh	r0, [r7, #6]
 966 003e F97B     		ldrb	r1, [r7, #15]	@ zero_extendqisi2
 967 0040 40F20002 		movw	r2, #:lower16:USB_EP
 968 0044 C0F20002 		movt	r2, #:upper16:USB_EP
 969 0048 0B46     		mov	r3, r1
 970 004a 4FEA4303 		lsl	r3, r3, #1
 971 004e 0B44     		add	r3, r3, r1
 972 0050 4FEA8303 		lsl	r3, r3, #2
 973 0054 1344     		add	r3, r3, r2
 974 0056 03F10603 		add	r3, r3, #6
 975 005a 1B88     		ldrh	r3, [r3, #0]	@ movhi
 976 005c 9BB2     		uxth	r3, r3
 977 005e C3F50073 		rsb	r3, r3, #512
 978 0062 9842     		cmp	r0, r3
 979 0064 12D9     		bls	.L33
1002:.\Generated_Source\PSoC5/USB.c ****             {
1003:.\Generated_Source\PSoC5/USB.c ****                 length = USB_EPX_DATA_BUF_MAX - USB_EP[epNumber].buffOffset;
 980              		.loc 1 1003 0
 981 0066 F97B     		ldrb	r1, [r7, #15]	@ zero_extendqisi2
 982 0068 40F20002 		movw	r2, #:lower16:USB_EP
 983 006c C0F20002 		movt	r2, #:upper16:USB_EP
 984 0070 0B46     		mov	r3, r1
 985 0072 4FEA4303 		lsl	r3, r3, #1
 986 0076 0B44     		add	r3, r3, r1
 987 0078 4FEA8303 		lsl	r3, r3, #2
 988 007c 1344     		add	r3, r3, r2
ARM GAS  C:\Users\Craig\AppData\Local\Temp\ccXI8V1u.s 			page 36


 989 007e 03F10603 		add	r3, r3, #6
 990 0082 1B88     		ldrh	r3, [r3, #0]	@ movhi
 991 0084 9BB2     		uxth	r3, r3
 992 0086 C3F50073 		rsb	r3, r3, #512
 993 008a FB80     		strh	r3, [r7, #6]	@ movhi
 994              	.L33:
1004:.\Generated_Source\PSoC5/USB.c ****             }
1005:.\Generated_Source\PSoC5/USB.c ****         #endif /* End USB_EP_MM != USB__EP_DMAAUTO */
1006:.\Generated_Source\PSoC5/USB.c **** 
1007:.\Generated_Source\PSoC5/USB.c ****         /* Set the count and data toggle */
1008:.\Generated_Source\PSoC5/USB.c ****         CY_SET_REG8(&USB_SIE_EP1_CNT0_PTR[ri], (length >> 8u) | (USB_EP[epNumber].epToggle));
 995              		.loc 1 1008 0
 996 008c FA7D     		ldrb	r2, [r7, #23]	@ zero_extendqisi2
 997 008e 46F20C03 		movw	r3, #:lower16:1073766412
 998 0092 C4F20003 		movt	r3, #:upper16:1073766412
 999 0096 1344     		add	r3, r2, r3
 1000 0098 FA88     		ldrh	r2, [r7, #6]
 1001 009a 4FEA1222 		lsr	r2, r2, #8
 1002 009e 92B2     		uxth	r2, r2
 1003 00a0 5FFA82FC 		uxtb	ip, r2
 1004 00a4 F87B     		ldrb	r0, [r7, #15]	@ zero_extendqisi2
 1005 00a6 40F20001 		movw	r1, #:lower16:USB_EP
 1006 00aa C0F20001 		movt	r1, #:upper16:USB_EP
 1007 00ae 0246     		mov	r2, r0
 1008 00b0 4FEA4202 		lsl	r2, r2, #1
 1009 00b4 0244     		add	r2, r2, r0
 1010 00b6 4FEA8202 		lsl	r2, r2, #2
 1011 00ba 0A44     		add	r2, r2, r1
 1012 00bc D278     		ldrb	r2, [r2, #3]
 1013 00be D2B2     		uxtb	r2, r2
 1014 00c0 4CEA0202 		orr	r2, ip, r2
 1015 00c4 D2B2     		uxtb	r2, r2
 1016 00c6 1A70     		strb	r2, [r3, #0]
1009:.\Generated_Source\PSoC5/USB.c ****         CY_SET_REG8(&USB_SIE_EP1_CNT1_PTR[ri],  length & 0xFFu);
 1017              		.loc 1 1009 0
 1018 00c8 FA7D     		ldrb	r2, [r7, #23]	@ zero_extendqisi2
 1019 00ca 46F20D03 		movw	r3, #:lower16:1073766413
 1020 00ce C4F20003 		movt	r3, #:upper16:1073766413
 1021 00d2 1344     		add	r3, r2, r3
 1022 00d4 FA88     		ldrh	r2, [r7, #6]	@ movhi
 1023 00d6 D2B2     		uxtb	r2, r2
 1024 00d8 1A70     		strb	r2, [r3, #0]
1010:.\Generated_Source\PSoC5/USB.c **** 
1011:.\Generated_Source\PSoC5/USB.c ****         #if(USB_EP_MM == USB__EP_MANUAL)
1012:.\Generated_Source\PSoC5/USB.c ****             if(pData != NULL)
 1025              		.loc 1 1012 0
 1026 00da BB68     		ldr	r3, [r7, #8]
 1027 00dc 002B     		cmp	r3, #0
 1028 00de 11D0     		beq	.L34
1013:.\Generated_Source\PSoC5/USB.c ****             {
1014:.\Generated_Source\PSoC5/USB.c ****                 /* Copy the data using the arbiter data register */
1015:.\Generated_Source\PSoC5/USB.c ****                 for (i = 0u; i < length; i++)
 1029              		.loc 1 1015 0
 1030 00e0 4FF00003 		mov	r3, #0
 1031 00e4 FB83     		strh	r3, [r7, #30]	@ movhi
 1032 00e6 09E0     		b	.L35
 1033              	.L36:
ARM GAS  C:\Users\Craig\AppData\Local\Temp\ccXI8V1u.s 			page 37


1016:.\Generated_Source\PSoC5/USB.c ****                 {
1017:.\Generated_Source\PSoC5/USB.c ****                     CY_SET_REG8(p, pData[i]);
 1034              		.loc 1 1017 0
 1035 00e8 BB69     		ldr	r3, [r7, #24]
 1036 00ea F98B     		ldrh	r1, [r7, #30]
 1037 00ec BA68     		ldr	r2, [r7, #8]
 1038 00ee 0A44     		add	r2, r1, r2
 1039 00f0 1278     		ldrb	r2, [r2, #0]	@ zero_extendqisi2
 1040 00f2 1A70     		strb	r2, [r3, #0]
 1041              		.loc 1 1015 0
 1042 00f4 FB8B     		ldrh	r3, [r7, #30]	@ movhi
 1043 00f6 03F10103 		add	r3, r3, #1
 1044 00fa FB83     		strh	r3, [r7, #30]	@ movhi
 1045              	.L35:
 1046 00fc FA8B     		ldrh	r2, [r7, #30]
 1047 00fe FB88     		ldrh	r3, [r7, #6]
 1048 0100 9A42     		cmp	r2, r3
 1049 0102 F1D3     		bcc	.L36
 1050              	.L34:
1018:.\Generated_Source\PSoC5/USB.c ****                 }
1019:.\Generated_Source\PSoC5/USB.c ****             }
1020:.\Generated_Source\PSoC5/USB.c ****             USB_EP[epNumber].apiEpState = USB_NO_EVENT_PENDING;
 1051              		.loc 1 1020 0
 1052 0104 F97B     		ldrb	r1, [r7, #15]	@ zero_extendqisi2
 1053 0106 40F20002 		movw	r2, #:lower16:USB_EP
 1054 010a C0F20002 		movt	r2, #:upper16:USB_EP
 1055 010e 0B46     		mov	r3, r1
 1056 0110 4FEA4303 		lsl	r3, r3, #1
 1057 0114 0B44     		add	r3, r3, r1
 1058 0116 4FEA8303 		lsl	r3, r3, #2
 1059 011a 1344     		add	r3, r3, r2
 1060 011c 4FF00002 		mov	r2, #0
 1061 0120 5A70     		strb	r2, [r3, #1]
1021:.\Generated_Source\PSoC5/USB.c ****             /* Write the Mode register */
1022:.\Generated_Source\PSoC5/USB.c ****             USB_SIE_EP1_CR0_PTR[ri] = USB_EP[epNumber].epMode;
 1062              		.loc 1 1022 0
 1063 0122 FA7D     		ldrb	r2, [r7, #23]	@ zero_extendqisi2
 1064 0124 46F20E03 		movw	r3, #:lower16:1073766414
 1065 0128 C4F20003 		movt	r3, #:upper16:1073766414
 1066 012c 1344     		add	r3, r2, r3
 1067 012e F87B     		ldrb	r0, [r7, #15]	@ zero_extendqisi2
 1068 0130 40F20001 		movw	r1, #:lower16:USB_EP
 1069 0134 C0F20001 		movt	r1, #:upper16:USB_EP
 1070 0138 0246     		mov	r2, r0
 1071 013a 4FEA4202 		lsl	r2, r2, #1
 1072 013e 0244     		add	r2, r2, r0
 1073 0140 4FEA8202 		lsl	r2, r2, #2
 1074 0144 0A44     		add	r2, r2, r1
 1075 0146 5279     		ldrb	r2, [r2, #5]
 1076 0148 D2B2     		uxtb	r2, r2
 1077 014a 1A70     		strb	r2, [r3, #0]
 1078              	.L37:
1023:.\Generated_Source\PSoC5/USB.c ****         #else
1024:.\Generated_Source\PSoC5/USB.c ****             /*Init DMA if it was not initialized */
1025:.\Generated_Source\PSoC5/USB.c ****             if(USB_DmaTd[epNumber] == DMA_INVALID_TD)
1026:.\Generated_Source\PSoC5/USB.c ****             {
1027:.\Generated_Source\PSoC5/USB.c ****                 USB_InitEP_DMA(epNumber, pData);
ARM GAS  C:\Users\Craig\AppData\Local\Temp\ccXI8V1u.s 			page 38


1028:.\Generated_Source\PSoC5/USB.c ****             }
1029:.\Generated_Source\PSoC5/USB.c ****         #endif /* End USB_EP_MM == USB__EP_MANUAL */
1030:.\Generated_Source\PSoC5/USB.c **** 
1031:.\Generated_Source\PSoC5/USB.c ****         #if(USB_EP_MM == USB__EP_DMAMANUAL)
1032:.\Generated_Source\PSoC5/USB.c ****             if((pData != NULL) && (length > 0))
1033:.\Generated_Source\PSoC5/USB.c ****             {
1034:.\Generated_Source\PSoC5/USB.c **** 
1035:.\Generated_Source\PSoC5/USB.c ****                 /* Enable DMA in mode2 for transfering data */
1036:.\Generated_Source\PSoC5/USB.c ****                 CyDmaChDisable(USB_DmaChan[epNumber]);
1037:.\Generated_Source\PSoC5/USB.c ****                 CyDmaTdSetConfiguration(USB_DmaTd[epNumber], length, DMA_INVALID_TD,\
1038:.\Generated_Source\PSoC5/USB.c ****                                                                                     TD_TERMIN_EN | 
1039:.\Generated_Source\PSoC5/USB.c ****                 CyDmaTdSetAddress(USB_DmaTd[epNumber],  LO16((uint32)pData), LO16((uint32)p));
1040:.\Generated_Source\PSoC5/USB.c ****                 /* Enable the DMA */
1041:.\Generated_Source\PSoC5/USB.c ****                 CyDmaChSetInitialTd(USB_DmaChan[epNumber], USB_DmaTd[epNumber]);
1042:.\Generated_Source\PSoC5/USB.c ****                 CyDmaChEnable(USB_DmaChan[epNumber], 1);
1043:.\Generated_Source\PSoC5/USB.c ****                 /* Generate DMA request */
1044:.\Generated_Source\PSoC5/USB.c ****                 USB_ARB_EP1_CFG_PTR[ri] |= USB_ARB_EPX_CFG_DMA_REQ;
1045:.\Generated_Source\PSoC5/USB.c ****                 USB_ARB_EP1_CFG_PTR[ri] &= ~USB_ARB_EPX_CFG_DMA_REQ;
1046:.\Generated_Source\PSoC5/USB.c ****                 /* Mode register will be writen in arb ISR after DMA transfer copmlete */
1047:.\Generated_Source\PSoC5/USB.c ****             }
1048:.\Generated_Source\PSoC5/USB.c ****             else
1049:.\Generated_Source\PSoC5/USB.c ****             {
1050:.\Generated_Source\PSoC5/USB.c ****                 /* When zero-length packet - write the Mode register directly */
1051:.\Generated_Source\PSoC5/USB.c ****                 USB_SIE_EP1_CR0_PTR[ri] = USB_EP[epNumber].epMode;
1052:.\Generated_Source\PSoC5/USB.c ****             }
1053:.\Generated_Source\PSoC5/USB.c ****         #endif /* End USB_EP_MM == USB__EP_DMAMANUAL */
1054:.\Generated_Source\PSoC5/USB.c **** 
1055:.\Generated_Source\PSoC5/USB.c ****         #if(USB_EP_MM == USB__EP_DMAAUTO)
1056:.\Generated_Source\PSoC5/USB.c ****             if(pData != NULL)
1057:.\Generated_Source\PSoC5/USB.c ****             {
1058:.\Generated_Source\PSoC5/USB.c ****                 /* Enable DMA in mode3 for transfering data */
1059:.\Generated_Source\PSoC5/USB.c ****                 CyDmaChDisable(USB_DmaChan[epNumber]);
1060:.\Generated_Source\PSoC5/USB.c ****                 CyDmaTdSetConfiguration(USB_DmaTd[epNumber], length, USB_DmaTd[epNumber],\
1061:.\Generated_Source\PSoC5/USB.c ****                                                                                     TD_TERMIN_EN | 
1062:.\Generated_Source\PSoC5/USB.c ****                 CyDmaTdSetAddress(USB_DmaTd[epNumber],  LO16((uint32)pData), LO16((uint32)p));
1063:.\Generated_Source\PSoC5/USB.c ****                 /* Clear Any potential pending DMA requests before starting the DMA channel to tran
1064:.\Generated_Source\PSoC5/USB.c ****                 CyDmaClearPendingDrq(USB_DmaChan[epNumber]);
1065:.\Generated_Source\PSoC5/USB.c ****                 /* Enable the DMA */
1066:.\Generated_Source\PSoC5/USB.c ****                 CyDmaChSetInitialTd(USB_DmaChan[epNumber], USB_DmaTd[epNumber]);
1067:.\Generated_Source\PSoC5/USB.c ****                 CyDmaChEnable(USB_DmaChan[epNumber], 1);
1068:.\Generated_Source\PSoC5/USB.c ****             }
1069:.\Generated_Source\PSoC5/USB.c ****             else
1070:.\Generated_Source\PSoC5/USB.c ****             {
1071:.\Generated_Source\PSoC5/USB.c ****                 USB_EP[epNumber].apiEpState = USB_NO_EVENT_PENDING;
1072:.\Generated_Source\PSoC5/USB.c ****                 if(length > 0)
1073:.\Generated_Source\PSoC5/USB.c ****                 {
1074:.\Generated_Source\PSoC5/USB.c ****                     /* Set Data ready status, This will generate DMA request */
1075:.\Generated_Source\PSoC5/USB.c ****                     USB_ARB_EP1_CFG_PTR[ri] |= USB_ARB_EPX_CFG_IN_DATA_RDY;
1076:.\Generated_Source\PSoC5/USB.c ****                     /* Mode register will be writen in arb ISR(In Buffer Full) after first DMA tran
1077:.\Generated_Source\PSoC5/USB.c ****                 }
1078:.\Generated_Source\PSoC5/USB.c ****                 else
1079:.\Generated_Source\PSoC5/USB.c ****                 {
1080:.\Generated_Source\PSoC5/USB.c ****                     /* When zero-length packet - write the Mode register directly */
1081:.\Generated_Source\PSoC5/USB.c ****                     USB_SIE_EP1_CR0_PTR[ri] = USB_EP[epNumber].epMode;
1082:.\Generated_Source\PSoC5/USB.c ****                 }
1083:.\Generated_Source\PSoC5/USB.c ****             }
1084:.\Generated_Source\PSoC5/USB.c ****         #endif /* End USB_EP_MM == USB__EP_DMAAUTO */
ARM GAS  C:\Users\Craig\AppData\Local\Temp\ccXI8V1u.s 			page 39


1085:.\Generated_Source\PSoC5/USB.c **** 
1086:.\Generated_Source\PSoC5/USB.c ****     }
1087:.\Generated_Source\PSoC5/USB.c **** }
 1079              		.loc 1 1087 0
 1080 014c 07F12407 		add	r7, r7, #36
 1081 0150 BD46     		mov	sp, r7
 1082 0152 80BC     		pop	{r7}
 1083 0154 7047     		bx	lr
 1084              		.cfi_endproc
 1085              	.LFE11:
 1086              		.size	USB_LoadInEP, .-USB_LoadInEP
 1087 0156 00BF     		.section	.text.USB_ReadOutEP,"ax",%progbits
 1088              		.align	2
 1089              		.global	USB_ReadOutEP
 1090              		.thumb
 1091              		.thumb_func
 1092              		.type	USB_ReadOutEP, %function
 1093              	USB_ReadOutEP:
 1094              	.LFB12:
1088:.\Generated_Source\PSoC5/USB.c **** 
1089:.\Generated_Source\PSoC5/USB.c **** 
1090:.\Generated_Source\PSoC5/USB.c **** /*******************************************************************************
1091:.\Generated_Source\PSoC5/USB.c **** * Function Name: USB_ReadOutEP
1092:.\Generated_Source\PSoC5/USB.c **** ********************************************************************************
1093:.\Generated_Source\PSoC5/USB.c **** *
1094:.\Generated_Source\PSoC5/USB.c **** * Summary:
1095:.\Generated_Source\PSoC5/USB.c **** *  Read data from an endpoint.  The application must call
1096:.\Generated_Source\PSoC5/USB.c **** *  USB_GetEPState to see if an event is pending.
1097:.\Generated_Source\PSoC5/USB.c **** *
1098:.\Generated_Source\PSoC5/USB.c **** * Parameters:
1099:.\Generated_Source\PSoC5/USB.c **** *  epNumber: Contains the data endpoint number.
1100:.\Generated_Source\PSoC5/USB.c **** *            Valid values are between 1 and 8.
1101:.\Generated_Source\PSoC5/USB.c **** *  pData: A pointer to a data array from which the data for the endpoint space
1102:.\Generated_Source\PSoC5/USB.c **** *         is loaded.
1103:.\Generated_Source\PSoC5/USB.c **** *  length: The number of bytes to transfer from the USB Out enpoint and loads
1104:.\Generated_Source\PSoC5/USB.c **** *          it into data array. Valid values are between 0 and 1023. The function
1105:.\Generated_Source\PSoC5/USB.c **** *          moves fewer than the requested number of bytes if the host sends
1106:.\Generated_Source\PSoC5/USB.c **** *          fewer bytes than requested.
1107:.\Generated_Source\PSoC5/USB.c **** *
1108:.\Generated_Source\PSoC5/USB.c **** * Returns:
1109:.\Generated_Source\PSoC5/USB.c **** *  Number of bytes received, 0 for an invalid endpoint.
1110:.\Generated_Source\PSoC5/USB.c **** *
1111:.\Generated_Source\PSoC5/USB.c **** * Reentrant:
1112:.\Generated_Source\PSoC5/USB.c **** *  No.
1113:.\Generated_Source\PSoC5/USB.c **** *
1114:.\Generated_Source\PSoC5/USB.c **** *******************************************************************************/
1115:.\Generated_Source\PSoC5/USB.c **** uint16 USB_ReadOutEP(uint8 epNumber, uint8 *pData, uint16 length)
1116:.\Generated_Source\PSoC5/USB.c ****                                                                         
1117:.\Generated_Source\PSoC5/USB.c **** {
 1095              		.loc 1 1117 0
 1096              		.cfi_startproc
 1097              		@ args = 0, pretend = 0, frame = 32
 1098              		@ frame_needed = 1, uses_anonymous_args = 0
 1099 0000 80B5     		push	{r7, lr}
 1100              	.LCFI33:
 1101              		.cfi_def_cfa_offset 8
 1102 0002 88B0     		sub	sp, sp, #32
ARM GAS  C:\Users\Craig\AppData\Local\Temp\ccXI8V1u.s 			page 40


 1103              	.LCFI34:
 1104              		.cfi_def_cfa_offset 40
 1105 0004 00AF     		add	r7, sp, #0
 1106              		.cfi_offset 14, -4
 1107              		.cfi_offset 7, -8
 1108              	.LCFI35:
 1109              		.cfi_def_cfa_register 7
 1110 0006 B960     		str	r1, [r7, #8]
 1111 0008 1346     		mov	r3, r2
 1112 000a 0246     		mov	r2, r0
 1113 000c FA73     		strb	r2, [r7, #15]
 1114 000e FB80     		strh	r3, [r7, #6]	@ movhi
1118:.\Generated_Source\PSoC5/USB.c ****     uint8 ri;
1119:.\Generated_Source\PSoC5/USB.c ****     uint8 *p;
1120:.\Generated_Source\PSoC5/USB.c ****     #if(USB_EP_MM == USB__EP_MANUAL)
1121:.\Generated_Source\PSoC5/USB.c ****         uint16 i;
1122:.\Generated_Source\PSoC5/USB.c ****     #endif /* End USB_EP_MM == USB__EP_MANUAL */
1123:.\Generated_Source\PSoC5/USB.c ****     #if(USB_EP_MM != USB__EP_DMAAUTO)
1124:.\Generated_Source\PSoC5/USB.c ****         uint16 xferCount;
1125:.\Generated_Source\PSoC5/USB.c ****     #endif /* End USB_EP_MM != $INSTANCE_NAME`__EP_DMAAUTO */
1126:.\Generated_Source\PSoC5/USB.c **** 
1127:.\Generated_Source\PSoC5/USB.c ****     if((epNumber > USB_EP0) && (epNumber < USB_MAX_EP) && (pData != NULL))
 1115              		.loc 1 1127 0
 1116 0010 FB7B     		ldrb	r3, [r7, #15]	@ zero_extendqisi2
 1117 0012 002B     		cmp	r3, #0
 1118 0014 37D0     		beq	.L39
 1119 0016 FB7B     		ldrb	r3, [r7, #15]	@ zero_extendqisi2
 1120 0018 082B     		cmp	r3, #8
 1121 001a 34D8     		bhi	.L39
 1122 001c BB68     		ldr	r3, [r7, #8]
 1123 001e 002B     		cmp	r3, #0
 1124 0020 31D0     		beq	.L39
1128:.\Generated_Source\PSoC5/USB.c ****     {
1129:.\Generated_Source\PSoC5/USB.c ****         ri = ((epNumber - USB_EP1) << USB_EPX_CNTX_ADDR_SHIFT);
 1125              		.loc 1 1129 0
 1126 0022 FB7B     		ldrb	r3, [r7, #15]
 1127 0024 03F1FF33 		add	r3, r3, #-1
 1128 0028 DBB2     		uxtb	r3, r3
 1129 002a 4FEA0313 		lsl	r3, r3, #4
 1130 002e FB75     		strb	r3, [r7, #23]
1130:.\Generated_Source\PSoC5/USB.c ****         p = (uint8 *)&USB_ARB_RW1_DR_PTR[ri];
 1131              		.loc 1 1130 0
 1132 0030 FA7D     		ldrb	r2, [r7, #23]	@ zero_extendqisi2
 1133 0032 46F28803 		movw	r3, #:lower16:1073766536
 1134 0036 C4F20003 		movt	r3, #:upper16:1073766536
 1135 003a 1344     		add	r3, r2, r3
 1136 003c BB61     		str	r3, [r7, #24]
1131:.\Generated_Source\PSoC5/USB.c **** 
1132:.\Generated_Source\PSoC5/USB.c ****         #if(USB_EP_MM != USB__EP_DMAAUTO)
1133:.\Generated_Source\PSoC5/USB.c ****             /* Determine which is smaller the requested data or the available data */
1134:.\Generated_Source\PSoC5/USB.c ****             xferCount = USB_GetEPCount(epNumber);
 1137              		.loc 1 1134 0
 1138 003e FB7B     		ldrb	r3, [r7, #15]	@ zero_extendqisi2
 1139 0040 1846     		mov	r0, r3
 1140 0042 FFF7FEFF 		bl	USB_GetEPCount
 1141 0046 0346     		mov	r3, r0
 1142 0048 FB83     		strh	r3, [r7, #30]	@ movhi
ARM GAS  C:\Users\Craig\AppData\Local\Temp\ccXI8V1u.s 			page 41


1135:.\Generated_Source\PSoC5/USB.c ****             if (length > xferCount)
 1143              		.loc 1 1135 0
 1144 004a FA88     		ldrh	r2, [r7, #6]
 1145 004c FB8B     		ldrh	r3, [r7, #30]
 1146 004e 9A42     		cmp	r2, r3
 1147 0050 01D9     		bls	.L40
1136:.\Generated_Source\PSoC5/USB.c ****             {
1137:.\Generated_Source\PSoC5/USB.c ****                 length = xferCount;
 1148              		.loc 1 1137 0
 1149 0052 FB8B     		ldrh	r3, [r7, #30]	@ movhi
 1150 0054 FB80     		strh	r3, [r7, #6]	@ movhi
 1151              	.L40:
1138:.\Generated_Source\PSoC5/USB.c ****             }
1139:.\Generated_Source\PSoC5/USB.c ****         #endif /* End USB_EP_MM != USB__EP_DMAAUTO */
1140:.\Generated_Source\PSoC5/USB.c **** 
1141:.\Generated_Source\PSoC5/USB.c ****         #if(USB_EP_MM == USB__EP_MANUAL)
1142:.\Generated_Source\PSoC5/USB.c ****             /* Copy the data using the arbiter data register */
1143:.\Generated_Source\PSoC5/USB.c ****             for (i = 0u; i < length; i++)
 1152              		.loc 1 1143 0
 1153 0056 4FF00003 		mov	r3, #0
 1154 005a BB83     		strh	r3, [r7, #28]	@ movhi
 1155 005c 0AE0     		b	.L41
 1156              	.L42:
1144:.\Generated_Source\PSoC5/USB.c ****             {
1145:.\Generated_Source\PSoC5/USB.c ****                 pData[i] = CY_GET_REG8(p);
 1157              		.loc 1 1145 0
 1158 005e BA8B     		ldrh	r2, [r7, #28]
 1159 0060 BB68     		ldr	r3, [r7, #8]
 1160 0062 1344     		add	r3, r2, r3
 1161 0064 BA69     		ldr	r2, [r7, #24]
 1162 0066 1278     		ldrb	r2, [r2, #0]
 1163 0068 D2B2     		uxtb	r2, r2
 1164 006a 1A70     		strb	r2, [r3, #0]
 1165              		.loc 1 1143 0
 1166 006c BB8B     		ldrh	r3, [r7, #28]	@ movhi
 1167 006e 03F10103 		add	r3, r3, #1
 1168 0072 BB83     		strh	r3, [r7, #28]	@ movhi
 1169              	.L41:
 1170 0074 BA8B     		ldrh	r2, [r7, #28]
 1171 0076 FB88     		ldrh	r3, [r7, #6]
 1172 0078 9A42     		cmp	r2, r3
 1173 007a F0D3     		bcc	.L42
1146:.\Generated_Source\PSoC5/USB.c ****             }
1147:.\Generated_Source\PSoC5/USB.c **** 
1148:.\Generated_Source\PSoC5/USB.c ****             /* (re)arming of OUT endpoint */
1149:.\Generated_Source\PSoC5/USB.c ****             USB_EnableOutEP(epNumber);
 1174              		.loc 1 1149 0
 1175 007c FB7B     		ldrb	r3, [r7, #15]	@ zero_extendqisi2
 1176 007e 1846     		mov	r0, r3
 1177 0080 FFF7FEFF 		bl	USB_EnableOutEP
 1178              		.loc 1 1127 0
 1179 0084 02E0     		b	.L43
 1180              	.L39:
1150:.\Generated_Source\PSoC5/USB.c ****         #else
1151:.\Generated_Source\PSoC5/USB.c ****             /*Init DMA if it was not initialized */
1152:.\Generated_Source\PSoC5/USB.c ****             if(USB_DmaTd[epNumber] == DMA_INVALID_TD)
1153:.\Generated_Source\PSoC5/USB.c ****             {
ARM GAS  C:\Users\Craig\AppData\Local\Temp\ccXI8V1u.s 			page 42


1154:.\Generated_Source\PSoC5/USB.c ****                 USB_InitEP_DMA(epNumber, pData);
1155:.\Generated_Source\PSoC5/USB.c ****             }
1156:.\Generated_Source\PSoC5/USB.c ****         #endif /* End USB_EP_MM == USB__EP_MANUAL */
1157:.\Generated_Source\PSoC5/USB.c **** 
1158:.\Generated_Source\PSoC5/USB.c ****         #if(USB_EP_MM == USB__EP_DMAMANUAL)
1159:.\Generated_Source\PSoC5/USB.c ****             /* Enable DMA in mode2 for transfering data */
1160:.\Generated_Source\PSoC5/USB.c ****             CyDmaChDisable(USB_DmaChan[epNumber]);
1161:.\Generated_Source\PSoC5/USB.c ****             CyDmaTdSetConfiguration(USB_DmaTd[epNumber], length, DMA_INVALID_TD,
1162:.\Generated_Source\PSoC5/USB.c ****                                                                                 TD_TERMIN_EN | TD_I
1163:.\Generated_Source\PSoC5/USB.c ****             CyDmaTdSetAddress(USB_DmaTd[epNumber],  LO16((uint32)p), LO16((uint32)pData));
1164:.\Generated_Source\PSoC5/USB.c ****             /* Enable the DMA */
1165:.\Generated_Source\PSoC5/USB.c ****             CyDmaChSetInitialTd(USB_DmaChan[epNumber], USB_DmaTd[epNumber]);
1166:.\Generated_Source\PSoC5/USB.c ****             CyDmaChEnable(USB_DmaChan[epNumber], 1);
1167:.\Generated_Source\PSoC5/USB.c **** 
1168:.\Generated_Source\PSoC5/USB.c ****             /* Generate DMA request */
1169:.\Generated_Source\PSoC5/USB.c ****             USB_ARB_EP1_CFG_PTR[ri] |= USB_ARB_EPX_CFG_DMA_REQ;
1170:.\Generated_Source\PSoC5/USB.c ****             USB_ARB_EP1_CFG_PTR[ri] &= ~USB_ARB_EPX_CFG_DMA_REQ;
1171:.\Generated_Source\PSoC5/USB.c ****             /* Out EP will be (re)armed in arb ISR after transfer complete */
1172:.\Generated_Source\PSoC5/USB.c ****         #endif /* End USB_EP_MM == USB__EP_DMAMANUAL */
1173:.\Generated_Source\PSoC5/USB.c **** 
1174:.\Generated_Source\PSoC5/USB.c ****         #if(USB_EP_MM == USB__EP_DMAAUTO)
1175:.\Generated_Source\PSoC5/USB.c ****             /* Enable DMA in mode3 for transfering data */
1176:.\Generated_Source\PSoC5/USB.c ****             CyDmaChDisable(USB_DmaChan[epNumber]);
1177:.\Generated_Source\PSoC5/USB.c ****             CyDmaTdSetConfiguration(USB_DmaTd[epNumber], length, USB_DmaTd[epNumber],
1178:.\Generated_Source\PSoC5/USB.c ****                                                                                 TD_TERMIN_EN | TD_I
1179:.\Generated_Source\PSoC5/USB.c ****             CyDmaTdSetAddress(USB_DmaTd[epNumber],  LO16((uint32)p), LO16((uint32)pData));
1180:.\Generated_Source\PSoC5/USB.c **** 
1181:.\Generated_Source\PSoC5/USB.c ****             /* Clear Any potential pending DMA requests before starting the DMA channel to transfer
1182:.\Generated_Source\PSoC5/USB.c ****             CyDmaClearPendingDrq(USB_DmaChan[epNumber]);
1183:.\Generated_Source\PSoC5/USB.c ****             /* Enable the DMA */
1184:.\Generated_Source\PSoC5/USB.c ****             CyDmaChSetInitialTd(USB_DmaChan[epNumber], USB_DmaTd[epNumber]);
1185:.\Generated_Source\PSoC5/USB.c ****             CyDmaChEnable(USB_DmaChan[epNumber], 1);
1186:.\Generated_Source\PSoC5/USB.c ****             /* Out EP will be (re)armed in arb ISR after transfer complete */
1187:.\Generated_Source\PSoC5/USB.c ****         #endif /* End USB_EP_MM == USB__EP_DMAAUTO */
1188:.\Generated_Source\PSoC5/USB.c **** 
1189:.\Generated_Source\PSoC5/USB.c ****     }
1190:.\Generated_Source\PSoC5/USB.c ****     else
1191:.\Generated_Source\PSoC5/USB.c ****     {
1192:.\Generated_Source\PSoC5/USB.c ****         length = 0;
 1181              		.loc 1 1192 0
 1182 0086 4FF00003 		mov	r3, #0
 1183 008a FB80     		strh	r3, [r7, #6]	@ movhi
 1184              	.L43:
1193:.\Generated_Source\PSoC5/USB.c ****     }
1194:.\Generated_Source\PSoC5/USB.c **** 
1195:.\Generated_Source\PSoC5/USB.c ****     return(length);
 1185              		.loc 1 1195 0
 1186 008c FB88     		ldrh	r3, [r7, #6]
1196:.\Generated_Source\PSoC5/USB.c **** }
 1187              		.loc 1 1196 0
 1188 008e 1846     		mov	r0, r3
 1189 0090 07F12007 		add	r7, r7, #32
 1190 0094 BD46     		mov	sp, r7
 1191 0096 80BD     		pop	{r7, pc}
 1192              		.cfi_endproc
 1193              	.LFE12:
 1194              		.size	USB_ReadOutEP, .-USB_ReadOutEP
ARM GAS  C:\Users\Craig\AppData\Local\Temp\ccXI8V1u.s 			page 43


 1195              		.section	.text.USB_EnableOutEP,"ax",%progbits
 1196              		.align	2
 1197              		.global	USB_EnableOutEP
 1198              		.thumb
 1199              		.thumb_func
 1200              		.type	USB_EnableOutEP, %function
 1201              	USB_EnableOutEP:
 1202              	.LFB13:
1197:.\Generated_Source\PSoC5/USB.c **** 
1198:.\Generated_Source\PSoC5/USB.c **** 
1199:.\Generated_Source\PSoC5/USB.c **** /*******************************************************************************
1200:.\Generated_Source\PSoC5/USB.c **** * Function Name: USB_EnableOutEP
1201:.\Generated_Source\PSoC5/USB.c **** ********************************************************************************
1202:.\Generated_Source\PSoC5/USB.c **** *
1203:.\Generated_Source\PSoC5/USB.c **** * Summary:
1204:.\Generated_Source\PSoC5/USB.c **** *  This function enables an OUT endpoint.  It should not be
1205:.\Generated_Source\PSoC5/USB.c **** *  called for an IN endpoint.
1206:.\Generated_Source\PSoC5/USB.c **** *
1207:.\Generated_Source\PSoC5/USB.c **** * Parameters:
1208:.\Generated_Source\PSoC5/USB.c **** *  epNumber: Endpoint Number
1209:.\Generated_Source\PSoC5/USB.c **** *            Valid values are between 1 and 8.
1210:.\Generated_Source\PSoC5/USB.c **** *
1211:.\Generated_Source\PSoC5/USB.c **** * Return:
1212:.\Generated_Source\PSoC5/USB.c **** *   None.
1213:.\Generated_Source\PSoC5/USB.c **** *
1214:.\Generated_Source\PSoC5/USB.c **** * Global variables:
1215:.\Generated_Source\PSoC5/USB.c **** *  USB_EP[epNumber].apiEpState - set to NO_EVENT_PENDING
1216:.\Generated_Source\PSoC5/USB.c **** *
1217:.\Generated_Source\PSoC5/USB.c **** * Reentrant:
1218:.\Generated_Source\PSoC5/USB.c **** *  No.
1219:.\Generated_Source\PSoC5/USB.c **** *
1220:.\Generated_Source\PSoC5/USB.c **** *******************************************************************************/
1221:.\Generated_Source\PSoC5/USB.c **** void USB_EnableOutEP(uint8 epNumber) 
1222:.\Generated_Source\PSoC5/USB.c **** {
 1203              		.loc 1 1222 0
 1204              		.cfi_startproc
 1205              		@ args = 0, pretend = 0, frame = 16
 1206              		@ frame_needed = 1, uses_anonymous_args = 0
 1207              		@ link register save eliminated.
 1208 0000 80B4     		push	{r7}
 1209              	.LCFI36:
 1210              		.cfi_def_cfa_offset 4
 1211 0002 85B0     		sub	sp, sp, #20
 1212              	.LCFI37:
 1213              		.cfi_def_cfa_offset 24
 1214 0004 00AF     		add	r7, sp, #0
 1215              		.cfi_offset 7, -4
 1216              	.LCFI38:
 1217              		.cfi_def_cfa_register 7
 1218 0006 0346     		mov	r3, r0
 1219 0008 FB71     		strb	r3, [r7, #7]
1223:.\Generated_Source\PSoC5/USB.c ****     uint8 ri;
1224:.\Generated_Source\PSoC5/USB.c **** 
1225:.\Generated_Source\PSoC5/USB.c ****     if((epNumber > USB_EP0) && (epNumber < USB_MAX_EP))
 1220              		.loc 1 1225 0
 1221 000a FB79     		ldrb	r3, [r7, #7]	@ zero_extendqisi2
 1222 000c 002B     		cmp	r3, #0
ARM GAS  C:\Users\Craig\AppData\Local\Temp\ccXI8V1u.s 			page 44


 1223 000e 2DD0     		beq	.L47
 1224 0010 FB79     		ldrb	r3, [r7, #7]	@ zero_extendqisi2
 1225 0012 082B     		cmp	r3, #8
 1226 0014 2AD8     		bhi	.L47
1226:.\Generated_Source\PSoC5/USB.c ****     {
1227:.\Generated_Source\PSoC5/USB.c ****         ri = ((epNumber - USB_EP1) << USB_EPX_CNTX_ADDR_SHIFT);
 1227              		.loc 1 1227 0
 1228 0016 FB79     		ldrb	r3, [r7, #7]
 1229 0018 03F1FF33 		add	r3, r3, #-1
 1230 001c DBB2     		uxtb	r3, r3
 1231 001e 4FEA0313 		lsl	r3, r3, #4
 1232 0022 FB73     		strb	r3, [r7, #15]
1228:.\Generated_Source\PSoC5/USB.c ****         USB_EP[epNumber].apiEpState = USB_NO_EVENT_PENDING;
 1233              		.loc 1 1228 0
 1234 0024 F979     		ldrb	r1, [r7, #7]	@ zero_extendqisi2
 1235 0026 40F20002 		movw	r2, #:lower16:USB_EP
 1236 002a C0F20002 		movt	r2, #:upper16:USB_EP
 1237 002e 0B46     		mov	r3, r1
 1238 0030 4FEA4303 		lsl	r3, r3, #1
 1239 0034 0B44     		add	r3, r3, r1
 1240 0036 4FEA8303 		lsl	r3, r3, #2
 1241 003a 1344     		add	r3, r3, r2
 1242 003c 4FF00002 		mov	r2, #0
 1243 0040 5A70     		strb	r2, [r3, #1]
1229:.\Generated_Source\PSoC5/USB.c ****         /* Write the Mode register */
1230:.\Generated_Source\PSoC5/USB.c ****         CY_SET_REG8(&USB_SIE_EP1_CR0_PTR[ri], USB_EP[epNumber].epMode);
 1244              		.loc 1 1230 0
 1245 0042 FA7B     		ldrb	r2, [r7, #15]	@ zero_extendqisi2
 1246 0044 46F20E03 		movw	r3, #:lower16:1073766414
 1247 0048 C4F20003 		movt	r3, #:upper16:1073766414
 1248 004c 1344     		add	r3, r2, r3
 1249 004e F879     		ldrb	r0, [r7, #7]	@ zero_extendqisi2
 1250 0050 40F20001 		movw	r1, #:lower16:USB_EP
 1251 0054 C0F20001 		movt	r1, #:upper16:USB_EP
 1252 0058 0246     		mov	r2, r0
 1253 005a 4FEA4202 		lsl	r2, r2, #1
 1254 005e 0244     		add	r2, r2, r0
 1255 0060 4FEA8202 		lsl	r2, r2, #2
 1256 0064 0A44     		add	r2, r2, r1
 1257 0066 5279     		ldrb	r2, [r2, #5]
 1258 0068 D2B2     		uxtb	r2, r2
 1259 006a 1A70     		strb	r2, [r3, #0]
 1260              	.L47:
1231:.\Generated_Source\PSoC5/USB.c ****     }
1232:.\Generated_Source\PSoC5/USB.c **** }
 1261              		.loc 1 1232 0
 1262 006c 07F11407 		add	r7, r7, #20
 1263 0070 BD46     		mov	sp, r7
 1264 0072 80BC     		pop	{r7}
 1265 0074 7047     		bx	lr
 1266              		.cfi_endproc
 1267              	.LFE13:
 1268              		.size	USB_EnableOutEP, .-USB_EnableOutEP
 1269 0076 00BF     		.section	.text.USB_DisableOutEP,"ax",%progbits
 1270              		.align	2
 1271              		.global	USB_DisableOutEP
 1272              		.thumb
ARM GAS  C:\Users\Craig\AppData\Local\Temp\ccXI8V1u.s 			page 45


 1273              		.thumb_func
 1274              		.type	USB_DisableOutEP, %function
 1275              	USB_DisableOutEP:
 1276              	.LFB14:
1233:.\Generated_Source\PSoC5/USB.c **** 
1234:.\Generated_Source\PSoC5/USB.c **** 
1235:.\Generated_Source\PSoC5/USB.c **** /*******************************************************************************
1236:.\Generated_Source\PSoC5/USB.c **** * Function Name: USB_DisableOutEP
1237:.\Generated_Source\PSoC5/USB.c **** ********************************************************************************
1238:.\Generated_Source\PSoC5/USB.c **** *
1239:.\Generated_Source\PSoC5/USB.c **** * Summary:
1240:.\Generated_Source\PSoC5/USB.c **** *  This function disables an OUT endpoint.  It should not be
1241:.\Generated_Source\PSoC5/USB.c **** *  called for an IN endpoint.
1242:.\Generated_Source\PSoC5/USB.c **** *
1243:.\Generated_Source\PSoC5/USB.c **** * Parameters:
1244:.\Generated_Source\PSoC5/USB.c **** *  epNumber: Endpoint Number
1245:.\Generated_Source\PSoC5/USB.c **** *            Valid values are between 1 and 8.
1246:.\Generated_Source\PSoC5/USB.c **** *
1247:.\Generated_Source\PSoC5/USB.c **** * Return:
1248:.\Generated_Source\PSoC5/USB.c **** *  None.
1249:.\Generated_Source\PSoC5/USB.c **** *
1250:.\Generated_Source\PSoC5/USB.c **** *******************************************************************************/
1251:.\Generated_Source\PSoC5/USB.c **** void USB_DisableOutEP(uint8 epNumber) 
1252:.\Generated_Source\PSoC5/USB.c **** {
 1277              		.loc 1 1252 0
 1278              		.cfi_startproc
 1279              		@ args = 0, pretend = 0, frame = 16
 1280              		@ frame_needed = 1, uses_anonymous_args = 0
 1281              		@ link register save eliminated.
 1282 0000 80B4     		push	{r7}
 1283              	.LCFI39:
 1284              		.cfi_def_cfa_offset 4
 1285 0002 85B0     		sub	sp, sp, #20
 1286              	.LCFI40:
 1287              		.cfi_def_cfa_offset 24
 1288 0004 00AF     		add	r7, sp, #0
 1289              		.cfi_offset 7, -4
 1290              	.LCFI41:
 1291              		.cfi_def_cfa_register 7
 1292 0006 0346     		mov	r3, r0
 1293 0008 FB71     		strb	r3, [r7, #7]
1253:.\Generated_Source\PSoC5/USB.c ****     uint8 ri ;
1254:.\Generated_Source\PSoC5/USB.c **** 
1255:.\Generated_Source\PSoC5/USB.c ****     if((epNumber > USB_EP0) && (epNumber < USB_MAX_EP))
 1294              		.loc 1 1255 0
 1295 000a FB79     		ldrb	r3, [r7, #7]	@ zero_extendqisi2
 1296 000c 002B     		cmp	r3, #0
 1297 000e 12D0     		beq	.L50
 1298 0010 FB79     		ldrb	r3, [r7, #7]	@ zero_extendqisi2
 1299 0012 082B     		cmp	r3, #8
 1300 0014 0FD8     		bhi	.L50
1256:.\Generated_Source\PSoC5/USB.c ****     {
1257:.\Generated_Source\PSoC5/USB.c ****         ri = ((epNumber - USB_EP1) << USB_EPX_CNTX_ADDR_SHIFT);
 1301              		.loc 1 1257 0
 1302 0016 FB79     		ldrb	r3, [r7, #7]
 1303 0018 03F1FF33 		add	r3, r3, #-1
 1304 001c DBB2     		uxtb	r3, r3
ARM GAS  C:\Users\Craig\AppData\Local\Temp\ccXI8V1u.s 			page 46


 1305 001e 4FEA0313 		lsl	r3, r3, #4
 1306 0022 FB73     		strb	r3, [r7, #15]
1258:.\Generated_Source\PSoC5/USB.c ****         /* Write the Mode register */
1259:.\Generated_Source\PSoC5/USB.c ****         CY_SET_REG8(&USB_SIE_EP1_CR0_PTR[ri], USB_MODE_NAK_OUT);
 1307              		.loc 1 1259 0
 1308 0024 FA7B     		ldrb	r2, [r7, #15]	@ zero_extendqisi2
 1309 0026 46F20E03 		movw	r3, #:lower16:1073766414
 1310 002a C4F20003 		movt	r3, #:upper16:1073766414
 1311 002e 1344     		add	r3, r2, r3
 1312 0030 4FF00802 		mov	r2, #8
 1313 0034 1A70     		strb	r2, [r3, #0]
 1314              	.L50:
1260:.\Generated_Source\PSoC5/USB.c ****     }
1261:.\Generated_Source\PSoC5/USB.c **** }
 1315              		.loc 1 1261 0
 1316 0036 07F11407 		add	r7, r7, #20
 1317 003a BD46     		mov	sp, r7
 1318 003c 80BC     		pop	{r7}
 1319 003e 7047     		bx	lr
 1320              		.cfi_endproc
 1321              	.LFE14:
 1322              		.size	USB_DisableOutEP, .-USB_DisableOutEP
 1323              		.section	.text.USB_Force,"ax",%progbits
 1324              		.align	2
 1325              		.global	USB_Force
 1326              		.thumb
 1327              		.thumb_func
 1328              		.type	USB_Force, %function
 1329              	USB_Force:
 1330              	.LFB15:
1262:.\Generated_Source\PSoC5/USB.c **** 
1263:.\Generated_Source\PSoC5/USB.c **** 
1264:.\Generated_Source\PSoC5/USB.c **** /*******************************************************************************
1265:.\Generated_Source\PSoC5/USB.c **** * Function Name: USB_Force
1266:.\Generated_Source\PSoC5/USB.c **** ********************************************************************************
1267:.\Generated_Source\PSoC5/USB.c **** *
1268:.\Generated_Source\PSoC5/USB.c **** * Summary:
1269:.\Generated_Source\PSoC5/USB.c **** *  Forces the bus state
1270:.\Generated_Source\PSoC5/USB.c **** *
1271:.\Generated_Source\PSoC5/USB.c **** * Parameters:
1272:.\Generated_Source\PSoC5/USB.c **** *  bState
1273:.\Generated_Source\PSoC5/USB.c **** *    USB_FORCE_J
1274:.\Generated_Source\PSoC5/USB.c **** *    USB_FORCE_K
1275:.\Generated_Source\PSoC5/USB.c **** *    USB_FORCE_SE0
1276:.\Generated_Source\PSoC5/USB.c **** *    USB_FORCE_NONE
1277:.\Generated_Source\PSoC5/USB.c **** *
1278:.\Generated_Source\PSoC5/USB.c **** * Return:
1279:.\Generated_Source\PSoC5/USB.c **** *  None.
1280:.\Generated_Source\PSoC5/USB.c **** *
1281:.\Generated_Source\PSoC5/USB.c **** *******************************************************************************/
1282:.\Generated_Source\PSoC5/USB.c **** void USB_Force(uint8 bState) 
1283:.\Generated_Source\PSoC5/USB.c **** {
 1331              		.loc 1 1283 0
 1332              		.cfi_startproc
 1333              		@ args = 0, pretend = 0, frame = 8
 1334              		@ frame_needed = 1, uses_anonymous_args = 0
 1335              		@ link register save eliminated.
ARM GAS  C:\Users\Craig\AppData\Local\Temp\ccXI8V1u.s 			page 47


 1336 0000 80B4     		push	{r7}
 1337              	.LCFI42:
 1338              		.cfi_def_cfa_offset 4
 1339 0002 83B0     		sub	sp, sp, #12
 1340              	.LCFI43:
 1341              		.cfi_def_cfa_offset 16
 1342 0004 00AF     		add	r7, sp, #0
 1343              		.cfi_offset 7, -4
 1344              	.LCFI44:
 1345              		.cfi_def_cfa_register 7
 1346 0006 0346     		mov	r3, r0
 1347 0008 FB71     		strb	r3, [r7, #7]
1284:.\Generated_Source\PSoC5/USB.c ****     CY_SET_REG8(USB_USBIO_CR0_PTR, bState);
 1348              		.loc 1 1284 0
 1349 000a 46F21003 		movw	r3, #:lower16:1073766416
 1350 000e C4F20003 		movt	r3, #:upper16:1073766416
 1351 0012 FA79     		ldrb	r2, [r7, #7]
 1352 0014 1A70     		strb	r2, [r3, #0]
1285:.\Generated_Source\PSoC5/USB.c **** }
 1353              		.loc 1 1285 0
 1354 0016 07F10C07 		add	r7, r7, #12
 1355 001a BD46     		mov	sp, r7
 1356 001c 80BC     		pop	{r7}
 1357 001e 7047     		bx	lr
 1358              		.cfi_endproc
 1359              	.LFE15:
 1360              		.size	USB_Force, .-USB_Force
 1361              		.section	.text.USB_GetEPAckState,"ax",%progbits
 1362              		.align	2
 1363              		.global	USB_GetEPAckState
 1364              		.thumb
 1365              		.thumb_func
 1366              		.type	USB_GetEPAckState, %function
 1367              	USB_GetEPAckState:
 1368              	.LFB16:
1286:.\Generated_Source\PSoC5/USB.c **** 
1287:.\Generated_Source\PSoC5/USB.c **** 
1288:.\Generated_Source\PSoC5/USB.c **** /*******************************************************************************
1289:.\Generated_Source\PSoC5/USB.c **** * Function Name: USB_GetEPAckState
1290:.\Generated_Source\PSoC5/USB.c **** ********************************************************************************
1291:.\Generated_Source\PSoC5/USB.c **** *
1292:.\Generated_Source\PSoC5/USB.c **** * Summary:
1293:.\Generated_Source\PSoC5/USB.c **** *  Returns the ACK of the CR0 Register (ACKD)
1294:.\Generated_Source\PSoC5/USB.c **** *
1295:.\Generated_Source\PSoC5/USB.c **** * Parameters:
1296:.\Generated_Source\PSoC5/USB.c **** *  epNumber: Endpoint Number
1297:.\Generated_Source\PSoC5/USB.c **** *            Valid values are between 1 and 8.
1298:.\Generated_Source\PSoC5/USB.c **** *
1299:.\Generated_Source\PSoC5/USB.c **** * Returns
1300:.\Generated_Source\PSoC5/USB.c **** *  0 if nothing has been ACKD, non-=zero something has been ACKD
1301:.\Generated_Source\PSoC5/USB.c **** *
1302:.\Generated_Source\PSoC5/USB.c **** *******************************************************************************/
1303:.\Generated_Source\PSoC5/USB.c **** uint8 USB_GetEPAckState(uint8 epNumber) 
1304:.\Generated_Source\PSoC5/USB.c **** {
 1369              		.loc 1 1304 0
 1370              		.cfi_startproc
 1371              		@ args = 0, pretend = 0, frame = 16
ARM GAS  C:\Users\Craig\AppData\Local\Temp\ccXI8V1u.s 			page 48


 1372              		@ frame_needed = 1, uses_anonymous_args = 0
 1373              		@ link register save eliminated.
 1374 0000 80B4     		push	{r7}
 1375              	.LCFI45:
 1376              		.cfi_def_cfa_offset 4
 1377 0002 85B0     		sub	sp, sp, #20
 1378              	.LCFI46:
 1379              		.cfi_def_cfa_offset 24
 1380 0004 00AF     		add	r7, sp, #0
 1381              		.cfi_offset 7, -4
 1382              	.LCFI47:
 1383              		.cfi_def_cfa_register 7
 1384 0006 0346     		mov	r3, r0
 1385 0008 FB71     		strb	r3, [r7, #7]
1305:.\Generated_Source\PSoC5/USB.c ****     uint8 ri;
1306:.\Generated_Source\PSoC5/USB.c ****     uint8 cr = 0;
 1386              		.loc 1 1306 0
 1387 000a 4FF00003 		mov	r3, #0
 1388 000e FB73     		strb	r3, [r7, #15]
1307:.\Generated_Source\PSoC5/USB.c **** 
1308:.\Generated_Source\PSoC5/USB.c ****     if((epNumber > USB_EP0) && (epNumber < USB_MAX_EP))
 1389              		.loc 1 1308 0
 1390 0010 FB79     		ldrb	r3, [r7, #7]	@ zero_extendqisi2
 1391 0012 002B     		cmp	r3, #0
 1392 0014 14D0     		beq	.L54
 1393 0016 FB79     		ldrb	r3, [r7, #7]	@ zero_extendqisi2
 1394 0018 082B     		cmp	r3, #8
 1395 001a 11D8     		bhi	.L54
1309:.\Generated_Source\PSoC5/USB.c ****     {
1310:.\Generated_Source\PSoC5/USB.c ****         ri = ((epNumber - USB_EP1) << USB_EPX_CNTX_ADDR_SHIFT);
 1396              		.loc 1 1310 0
 1397 001c FB79     		ldrb	r3, [r7, #7]
 1398 001e 03F1FF33 		add	r3, r3, #-1
 1399 0022 DBB2     		uxtb	r3, r3
 1400 0024 4FEA0313 		lsl	r3, r3, #4
 1401 0028 BB73     		strb	r3, [r7, #14]
1311:.\Generated_Source\PSoC5/USB.c ****         cr = CY_GET_REG8(&USB_SIE_EP1_CR0_PTR[ri]) & USB_MODE_ACKD;
 1402              		.loc 1 1311 0
 1403 002a BA7B     		ldrb	r2, [r7, #14]	@ zero_extendqisi2
 1404 002c 46F20E03 		movw	r3, #:lower16:1073766414
 1405 0030 C4F20003 		movt	r3, #:upper16:1073766414
 1406 0034 1344     		add	r3, r2, r3
 1407 0036 1B78     		ldrb	r3, [r3, #0]
 1408 0038 DBB2     		uxtb	r3, r3
 1409 003a 03F01003 		and	r3, r3, #16
 1410 003e FB73     		strb	r3, [r7, #15]
 1411              	.L54:
1312:.\Generated_Source\PSoC5/USB.c ****     }
1313:.\Generated_Source\PSoC5/USB.c **** 
1314:.\Generated_Source\PSoC5/USB.c ****     return(cr);
 1412              		.loc 1 1314 0
 1413 0040 FB7B     		ldrb	r3, [r7, #15]	@ zero_extendqisi2
1315:.\Generated_Source\PSoC5/USB.c **** }
 1414              		.loc 1 1315 0
 1415 0042 1846     		mov	r0, r3
 1416 0044 07F11407 		add	r7, r7, #20
 1417 0048 BD46     		mov	sp, r7
ARM GAS  C:\Users\Craig\AppData\Local\Temp\ccXI8V1u.s 			page 49


 1418 004a 80BC     		pop	{r7}
 1419 004c 7047     		bx	lr
 1420              		.cfi_endproc
 1421              	.LFE16:
 1422              		.size	USB_GetEPAckState, .-USB_GetEPAckState
 1423 004e 00BF     		.section	.text.USB_SetPowerStatus,"ax",%progbits
 1424              		.align	2
 1425              		.global	USB_SetPowerStatus
 1426              		.thumb
 1427              		.thumb_func
 1428              		.type	USB_SetPowerStatus, %function
 1429              	USB_SetPowerStatus:
 1430              	.LFB17:
1316:.\Generated_Source\PSoC5/USB.c **** 
1317:.\Generated_Source\PSoC5/USB.c **** 
1318:.\Generated_Source\PSoC5/USB.c **** /*******************************************************************************
1319:.\Generated_Source\PSoC5/USB.c **** * Function Name: USB_SetPowerStatus
1320:.\Generated_Source\PSoC5/USB.c **** ********************************************************************************
1321:.\Generated_Source\PSoC5/USB.c **** *
1322:.\Generated_Source\PSoC5/USB.c **** * Summary:
1323:.\Generated_Source\PSoC5/USB.c **** *  Sets the device power status for reporting in the Get Device Status
1324:.\Generated_Source\PSoC5/USB.c **** *  request
1325:.\Generated_Source\PSoC5/USB.c **** *
1326:.\Generated_Source\PSoC5/USB.c **** * Parameters:
1327:.\Generated_Source\PSoC5/USB.c **** *  powerStatus: USB_DEVICE_STATUS_BUS_POWERED(0) - Bus Powered,
1328:.\Generated_Source\PSoC5/USB.c **** *               USB_DEVICE_STATUS_SELF_POWERED(1) - Self Powered
1329:.\Generated_Source\PSoC5/USB.c **** *
1330:.\Generated_Source\PSoC5/USB.c **** * Return:
1331:.\Generated_Source\PSoC5/USB.c **** *   None.
1332:.\Generated_Source\PSoC5/USB.c **** *
1333:.\Generated_Source\PSoC5/USB.c **** * Global variables:
1334:.\Generated_Source\PSoC5/USB.c **** *  USB_deviceStatus - set power status
1335:.\Generated_Source\PSoC5/USB.c **** *
1336:.\Generated_Source\PSoC5/USB.c **** * Reentrant:
1337:.\Generated_Source\PSoC5/USB.c **** *  No.
1338:.\Generated_Source\PSoC5/USB.c **** *
1339:.\Generated_Source\PSoC5/USB.c **** *******************************************************************************/
1340:.\Generated_Source\PSoC5/USB.c **** void USB_SetPowerStatus(uint8 powerStatus) 
1341:.\Generated_Source\PSoC5/USB.c **** {
 1431              		.loc 1 1341 0
 1432              		.cfi_startproc
 1433              		@ args = 0, pretend = 0, frame = 8
 1434              		@ frame_needed = 1, uses_anonymous_args = 0
 1435              		@ link register save eliminated.
 1436 0000 80B4     		push	{r7}
 1437              	.LCFI48:
 1438              		.cfi_def_cfa_offset 4
 1439 0002 83B0     		sub	sp, sp, #12
 1440              	.LCFI49:
 1441              		.cfi_def_cfa_offset 16
 1442 0004 00AF     		add	r7, sp, #0
 1443              		.cfi_offset 7, -4
 1444              	.LCFI50:
 1445              		.cfi_def_cfa_register 7
 1446 0006 0346     		mov	r3, r0
 1447 0008 FB71     		strb	r3, [r7, #7]
1342:.\Generated_Source\PSoC5/USB.c ****     if (powerStatus != USB_DEVICE_STATUS_BUS_POWERED)
ARM GAS  C:\Users\Craig\AppData\Local\Temp\ccXI8V1u.s 			page 50


 1448              		.loc 1 1342 0
 1449 000a FB79     		ldrb	r3, [r7, #7]	@ zero_extendqisi2
 1450 000c 002B     		cmp	r3, #0
 1451 000e 0ED0     		beq	.L57
1343:.\Generated_Source\PSoC5/USB.c ****     {
1344:.\Generated_Source\PSoC5/USB.c ****         USB_deviceStatus |=  USB_DEVICE_STATUS_SELF_POWERED;
 1452              		.loc 1 1344 0
 1453 0010 40F20003 		movw	r3, #:lower16:USB_deviceStatus
 1454 0014 C0F20003 		movt	r3, #:upper16:USB_deviceStatus
 1455 0018 1B78     		ldrb	r3, [r3, #0]
 1456 001a DBB2     		uxtb	r3, r3
 1457 001c 43F00103 		orr	r3, r3, #1
 1458 0020 DAB2     		uxtb	r2, r3
 1459 0022 40F20003 		movw	r3, #:lower16:USB_deviceStatus
 1460 0026 C0F20003 		movt	r3, #:upper16:USB_deviceStatus
 1461 002a 1A70     		strb	r2, [r3, #0]
 1462 002c 0DE0     		b	.L59
 1463              	.L57:
1345:.\Generated_Source\PSoC5/USB.c ****     }
1346:.\Generated_Source\PSoC5/USB.c ****     else
1347:.\Generated_Source\PSoC5/USB.c ****     {
1348:.\Generated_Source\PSoC5/USB.c ****         USB_deviceStatus &=  ~USB_DEVICE_STATUS_SELF_POWERED;
 1464              		.loc 1 1348 0
 1465 002e 40F20003 		movw	r3, #:lower16:USB_deviceStatus
 1466 0032 C0F20003 		movt	r3, #:upper16:USB_deviceStatus
 1467 0036 1B78     		ldrb	r3, [r3, #0]
 1468 0038 DBB2     		uxtb	r3, r3
 1469 003a 1A46     		mov	r2, r3
 1470 003c 02F0FE02 		and	r2, r2, #254
 1471 0040 40F20003 		movw	r3, #:lower16:USB_deviceStatus
 1472 0044 C0F20003 		movt	r3, #:upper16:USB_deviceStatus
 1473 0048 1A70     		strb	r2, [r3, #0]
 1474              	.L59:
1349:.\Generated_Source\PSoC5/USB.c ****     }
1350:.\Generated_Source\PSoC5/USB.c **** }
 1475              		.loc 1 1350 0
 1476 004a 07F10C07 		add	r7, r7, #12
 1477 004e BD46     		mov	sp, r7
 1478 0050 80BC     		pop	{r7}
 1479 0052 7047     		bx	lr
 1480              		.cfi_endproc
 1481              	.LFE17:
 1482              		.size	USB_SetPowerStatus, .-USB_SetPowerStatus
 1483              		.section	.text.USB_RWUEnabled,"ax",%progbits
 1484              		.align	2
 1485              		.global	USB_RWUEnabled
 1486              		.thumb
 1487              		.thumb_func
 1488              		.type	USB_RWUEnabled, %function
 1489              	USB_RWUEnabled:
 1490              	.LFB18:
1351:.\Generated_Source\PSoC5/USB.c **** 
1352:.\Generated_Source\PSoC5/USB.c **** 
1353:.\Generated_Source\PSoC5/USB.c **** #if (USB_MON_VBUS == 1u)
1354:.\Generated_Source\PSoC5/USB.c **** 
1355:.\Generated_Source\PSoC5/USB.c ****     /*******************************************************************************
1356:.\Generated_Source\PSoC5/USB.c ****     * Function Name: USB_VBusPresent
ARM GAS  C:\Users\Craig\AppData\Local\Temp\ccXI8V1u.s 			page 51


1357:.\Generated_Source\PSoC5/USB.c ****     ********************************************************************************
1358:.\Generated_Source\PSoC5/USB.c ****     *
1359:.\Generated_Source\PSoC5/USB.c ****     * Summary:
1360:.\Generated_Source\PSoC5/USB.c ****     *  Determines VBUS presence for Self Powered Devices.
1361:.\Generated_Source\PSoC5/USB.c ****     *
1362:.\Generated_Source\PSoC5/USB.c ****     * Parameters:
1363:.\Generated_Source\PSoC5/USB.c ****     *  None.
1364:.\Generated_Source\PSoC5/USB.c ****     *
1365:.\Generated_Source\PSoC5/USB.c ****     * Return:
1366:.\Generated_Source\PSoC5/USB.c ****     *  1 if VBUS is present, otherwise 0.
1367:.\Generated_Source\PSoC5/USB.c ****     *
1368:.\Generated_Source\PSoC5/USB.c ****     *******************************************************************************/
1369:.\Generated_Source\PSoC5/USB.c ****     uint8 USB_VBusPresent(void) 
1370:.\Generated_Source\PSoC5/USB.c ****     {
1371:.\Generated_Source\PSoC5/USB.c ****         return((CY_GET_REG8(USB_VBUS_PS_PTR) & USB_VBUS_MASK) ? 1u : 0u);
1372:.\Generated_Source\PSoC5/USB.c ****     }
1373:.\Generated_Source\PSoC5/USB.c **** 
1374:.\Generated_Source\PSoC5/USB.c **** #endif /* USB_MON_VBUS */
1375:.\Generated_Source\PSoC5/USB.c **** 
1376:.\Generated_Source\PSoC5/USB.c **** 
1377:.\Generated_Source\PSoC5/USB.c **** /*******************************************************************************
1378:.\Generated_Source\PSoC5/USB.c **** * Function Name: USB_RWUEnabled
1379:.\Generated_Source\PSoC5/USB.c **** ********************************************************************************
1380:.\Generated_Source\PSoC5/USB.c **** *
1381:.\Generated_Source\PSoC5/USB.c **** * Summary:
1382:.\Generated_Source\PSoC5/USB.c **** *  Returns TRUE if Remote Wake Up is enabled, otherwise FALSE
1383:.\Generated_Source\PSoC5/USB.c **** *
1384:.\Generated_Source\PSoC5/USB.c **** * Parameters:
1385:.\Generated_Source\PSoC5/USB.c **** *   None.
1386:.\Generated_Source\PSoC5/USB.c **** *
1387:.\Generated_Source\PSoC5/USB.c **** * Return:
1388:.\Generated_Source\PSoC5/USB.c **** *  TRUE -  Remote Wake Up Enabled
1389:.\Generated_Source\PSoC5/USB.c **** *  FALSE - Remote Wake Up Disabled
1390:.\Generated_Source\PSoC5/USB.c **** *
1391:.\Generated_Source\PSoC5/USB.c **** * Global variables:
1392:.\Generated_Source\PSoC5/USB.c **** *  USB_deviceStatus - checked to determine remote status
1393:.\Generated_Source\PSoC5/USB.c **** *
1394:.\Generated_Source\PSoC5/USB.c **** *******************************************************************************/
1395:.\Generated_Source\PSoC5/USB.c **** uint8 USB_RWUEnabled(void) 
1396:.\Generated_Source\PSoC5/USB.c **** {
 1491              		.loc 1 1396 0
 1492              		.cfi_startproc
 1493              		@ args = 0, pretend = 0, frame = 8
 1494              		@ frame_needed = 1, uses_anonymous_args = 0
 1495              		@ link register save eliminated.
 1496 0000 80B4     		push	{r7}
 1497              	.LCFI51:
 1498              		.cfi_def_cfa_offset 4
 1499 0002 83B0     		sub	sp, sp, #12
 1500              	.LCFI52:
 1501              		.cfi_def_cfa_offset 16
 1502 0004 00AF     		add	r7, sp, #0
 1503              		.cfi_offset 7, -4
 1504              	.LCFI53:
 1505              		.cfi_def_cfa_register 7
1397:.\Generated_Source\PSoC5/USB.c ****     uint8 result = USB_FALSE;
 1506              		.loc 1 1397 0
ARM GAS  C:\Users\Craig\AppData\Local\Temp\ccXI8V1u.s 			page 52


 1507 0006 4FF00003 		mov	r3, #0
 1508 000a FB71     		strb	r3, [r7, #7]
1398:.\Generated_Source\PSoC5/USB.c ****     if((USB_deviceStatus & USB_DEVICE_STATUS_REMOTE_WAKEUP) != 0u)
 1509              		.loc 1 1398 0
 1510 000c 40F20003 		movw	r3, #:lower16:USB_deviceStatus
 1511 0010 C0F20003 		movt	r3, #:upper16:USB_deviceStatus
 1512 0014 1B78     		ldrb	r3, [r3, #0]
 1513 0016 DBB2     		uxtb	r3, r3
 1514 0018 03F00203 		and	r3, r3, #2
 1515 001c 002B     		cmp	r3, #0
 1516 001e 02D0     		beq	.L61
1399:.\Generated_Source\PSoC5/USB.c ****     {
1400:.\Generated_Source\PSoC5/USB.c ****         result = USB_TRUE;
 1517              		.loc 1 1400 0
 1518 0020 4FF00103 		mov	r3, #1
 1519 0024 FB71     		strb	r3, [r7, #7]
 1520              	.L61:
1401:.\Generated_Source\PSoC5/USB.c ****     }
1402:.\Generated_Source\PSoC5/USB.c **** 
1403:.\Generated_Source\PSoC5/USB.c ****     return(result);
 1521              		.loc 1 1403 0
 1522 0026 FB79     		ldrb	r3, [r7, #7]	@ zero_extendqisi2
1404:.\Generated_Source\PSoC5/USB.c **** }
 1523              		.loc 1 1404 0
 1524 0028 1846     		mov	r0, r3
 1525 002a 07F10C07 		add	r7, r7, #12
 1526 002e BD46     		mov	sp, r7
 1527 0030 80BC     		pop	{r7}
 1528 0032 7047     		bx	lr
 1529              		.cfi_endproc
 1530              	.LFE18:
 1531              		.size	USB_RWUEnabled, .-USB_RWUEnabled
 1532              		.text
 1533              	.Letext0: