ARM GAS  C:\Users\Craig\AppData\Local\Temp\ccXI8V1u.s 			page 1


   1              		.syntax unified
   2              		.cpu cortex-m3
   3              		.fpu softvfp
   4              		.eabi_attribute 20, 1
   5              		.eabi_attribute 21, 1
   6              		.eabi_attribute 23, 3
   7              		.eabi_attribute 24, 1
   8              		.eabi_attribute 25, 1
   9              		.eabi_attribute 26, 1
  10              		.eabi_attribute 30, 6
  11              		.eabi_attribute 18, 4
  12              		.thumb
  13              		.file	"USB.c"
  14              		.section	.debug_abbrev,"",%progbits
  15              	.Ldebug_abbrev0:
  16              		.section	.debug_info,"",%progbits
  17              	.Ldebug_info0:
  18              		.section	.debug_line,"",%progbits
  19              	.Ldebug_line0:
  20 0000 73020000 		.text
  20      02007E00 
  20      00000201 
  20      FB0E0D00 
  20      01010101 
  21              	.Ltext0:
  22              		.cfi_sections	.debug_frame
  23              		.global	USB_initVar
  24              		.bss
  25              		.type	USB_initVar, %object
  26              		.size	USB_initVar, 1
  27              	USB_initVar:
  28 0000 00       		.space	1
  29              		.section	.text.USB_Start,"ax",%progbits
  30              		.align	2
  31              		.global	USB_Start
  32              		.thumb
  33              		.thumb_func
  34              		.type	USB_Start, %function
  35              	USB_Start:
  36              	.LFB0:
  37              		.file 1 ".\\Generated_Source\\PSoC5\\USB.c"
   1:.\Generated_Source\PSoC5/USB.c **** /*******************************************************************************
   2:.\Generated_Source\PSoC5/USB.c **** * File Name: USB.c
   3:.\Generated_Source\PSoC5/USB.c **** * Version 2.50
   4:.\Generated_Source\PSoC5/USB.c **** *
   5:.\Generated_Source\PSoC5/USB.c **** * Description:
   6:.\Generated_Source\PSoC5/USB.c **** *  API for USBFS Component.
   7:.\Generated_Source\PSoC5/USB.c **** *
   8:.\Generated_Source\PSoC5/USB.c **** * Note:
   9:.\Generated_Source\PSoC5/USB.c **** *  Many of the functions use endpoint number.  RAM arrays are sized with 9
  10:.\Generated_Source\PSoC5/USB.c **** *  elements so they are indexed directly by epNumber.  The SIE and ARB
  11:.\Generated_Source\PSoC5/USB.c **** *  registers are indexed by variations of epNumber - 1.
  12:.\Generated_Source\PSoC5/USB.c **** *
  13:.\Generated_Source\PSoC5/USB.c **** ********************************************************************************
  14:.\Generated_Source\PSoC5/USB.c **** * Copyright 2008-2012, Cypress Semiconductor Corporation.  All rights reserved.
  15:.\Generated_Source\PSoC5/USB.c **** * You may use this file only in accordance with the license, terms, conditions,
  16:.\Generated_Source\PSoC5/USB.c **** * disclaimers, and limitations in the end user license agreement accompanying
ARM GAS  C:\Users\Craig\AppData\Local\Temp\ccXI8V1u.s 			page 2


  17:.\Generated_Source\PSoC5/USB.c **** * the software package with which this file was provided.
  18:.\Generated_Source\PSoC5/USB.c **** *******************************************************************************/
  19:.\Generated_Source\PSoC5/USB.c **** 
  20:.\Generated_Source\PSoC5/USB.c **** #include <CyDmac.h>
  21:.\Generated_Source\PSoC5/USB.c **** #include "USB.h"
  22:.\Generated_Source\PSoC5/USB.c **** #include "USB_hid.h"
  23:.\Generated_Source\PSoC5/USB.c **** #if(USB_DMA1_REMOVE == 0u)
  24:.\Generated_Source\PSoC5/USB.c ****     #include "USB_ep1_dma.h"
  25:.\Generated_Source\PSoC5/USB.c **** #endif   /* End USB_DMA1_REMOVE */
  26:.\Generated_Source\PSoC5/USB.c **** #if(USB_DMA2_REMOVE == 0u)
  27:.\Generated_Source\PSoC5/USB.c ****     #include "USB_ep2_dma.h"
  28:.\Generated_Source\PSoC5/USB.c **** #endif   /* End USB_DMA2_REMOVE */
  29:.\Generated_Source\PSoC5/USB.c **** #if(USB_DMA3_REMOVE == 0u)
  30:.\Generated_Source\PSoC5/USB.c ****     #include "USB_ep3_dma.h"
  31:.\Generated_Source\PSoC5/USB.c **** #endif   /* End USB_DMA3_REMOVE */
  32:.\Generated_Source\PSoC5/USB.c **** #if(USB_DMA4_REMOVE == 0u)
  33:.\Generated_Source\PSoC5/USB.c ****     #include "USB_ep4_dma.h"
  34:.\Generated_Source\PSoC5/USB.c **** #endif   /* End USB_DMA4_REMOVE */
  35:.\Generated_Source\PSoC5/USB.c **** #if(USB_DMA5_REMOVE == 0u)
  36:.\Generated_Source\PSoC5/USB.c ****     #include "USB_ep5_dma.h"
  37:.\Generated_Source\PSoC5/USB.c **** #endif   /* End USB_DMA5_REMOVE */
  38:.\Generated_Source\PSoC5/USB.c **** #if(USB_DMA6_REMOVE == 0u)
  39:.\Generated_Source\PSoC5/USB.c ****     #include "USB_ep6_dma.h"
  40:.\Generated_Source\PSoC5/USB.c **** #endif   /* End USB_DMA6_REMOVE */
  41:.\Generated_Source\PSoC5/USB.c **** #if(USB_DMA7_REMOVE == 0u)
  42:.\Generated_Source\PSoC5/USB.c ****     #include "USB_ep7_dma.h"
  43:.\Generated_Source\PSoC5/USB.c **** #endif   /* End USB_DMA7_REMOVE */
  44:.\Generated_Source\PSoC5/USB.c **** #if(USB_DMA8_REMOVE == 0u)
  45:.\Generated_Source\PSoC5/USB.c ****     #include "USB_ep8_dma.h"
  46:.\Generated_Source\PSoC5/USB.c **** #endif   /* End USB_DMA8_REMOVE */
  47:.\Generated_Source\PSoC5/USB.c **** 
  48:.\Generated_Source\PSoC5/USB.c **** 
  49:.\Generated_Source\PSoC5/USB.c **** /***************************************
  50:.\Generated_Source\PSoC5/USB.c **** * External data references
  51:.\Generated_Source\PSoC5/USB.c **** ***************************************/
  52:.\Generated_Source\PSoC5/USB.c **** 
  53:.\Generated_Source\PSoC5/USB.c **** extern volatile uint8 USB_configuration;
  54:.\Generated_Source\PSoC5/USB.c **** extern volatile uint8 USB_interfaceNumber;
  55:.\Generated_Source\PSoC5/USB.c **** extern volatile uint8 USB_configurationChanged;
  56:.\Generated_Source\PSoC5/USB.c **** extern volatile uint8 USB_interfaceSetting[];
  57:.\Generated_Source\PSoC5/USB.c **** extern volatile uint8 USB_interfaceSetting_last[];
  58:.\Generated_Source\PSoC5/USB.c **** extern volatile uint8 USB_deviceAddress;
  59:.\Generated_Source\PSoC5/USB.c **** extern volatile uint8 USB_deviceStatus;
  60:.\Generated_Source\PSoC5/USB.c **** extern volatile uint8 USB_device;
  61:.\Generated_Source\PSoC5/USB.c **** extern volatile uint8 USB_transferState;
  62:.\Generated_Source\PSoC5/USB.c **** extern volatile uint8 USB_lastPacketSize;
  63:.\Generated_Source\PSoC5/USB.c **** 
  64:.\Generated_Source\PSoC5/USB.c **** extern volatile T_USB_EP_CTL_BLOCK USB_EP[];
  65:.\Generated_Source\PSoC5/USB.c **** 
  66:.\Generated_Source\PSoC5/USB.c **** #if defined(USB_ENABLE_HID_CLASS)
  67:.\Generated_Source\PSoC5/USB.c ****     extern volatile uint8 USB_hidProtocol[];
  68:.\Generated_Source\PSoC5/USB.c **** #endif /* USB_ENABLE_HID_CLASS */
  69:.\Generated_Source\PSoC5/USB.c **** 
  70:.\Generated_Source\PSoC5/USB.c **** 
  71:.\Generated_Source\PSoC5/USB.c **** /***************************************
  72:.\Generated_Source\PSoC5/USB.c **** * External function references
  73:.\Generated_Source\PSoC5/USB.c **** ***************************************/
ARM GAS  C:\Users\Craig\AppData\Local\Temp\ccXI8V1u.s 			page 3


  74:.\Generated_Source\PSoC5/USB.c **** 
  75:.\Generated_Source\PSoC5/USB.c **** CY_ISR_PROTO(USB_EP_0_ISR);
  76:.\Generated_Source\PSoC5/USB.c **** #if(USB_EP1_ISR_REMOVE == 0u)
  77:.\Generated_Source\PSoC5/USB.c ****     CY_ISR_PROTO(USB_EP_1_ISR);
  78:.\Generated_Source\PSoC5/USB.c **** #endif /* End USB_EP1_ISR_REMOVE */
  79:.\Generated_Source\PSoC5/USB.c **** #if(USB_EP2_ISR_REMOVE == 0u)
  80:.\Generated_Source\PSoC5/USB.c ****     CY_ISR_PROTO(USB_EP_2_ISR);
  81:.\Generated_Source\PSoC5/USB.c **** #endif /* End USB_EP2_ISR_REMOVE */
  82:.\Generated_Source\PSoC5/USB.c **** #if(USB_EP3_ISR_REMOVE == 0u)
  83:.\Generated_Source\PSoC5/USB.c ****     CY_ISR_PROTO(USB_EP_3_ISR);
  84:.\Generated_Source\PSoC5/USB.c **** #endif /* End USB_EP3_ISR_REMOVE */
  85:.\Generated_Source\PSoC5/USB.c **** #if(USB_EP4_ISR_REMOVE == 0u)
  86:.\Generated_Source\PSoC5/USB.c ****     CY_ISR_PROTO(USB_EP_4_ISR);
  87:.\Generated_Source\PSoC5/USB.c **** #endif /* End USB_EP4_ISR_REMOVE */
  88:.\Generated_Source\PSoC5/USB.c **** #if(USB_EP5_ISR_REMOVE == 0u)
  89:.\Generated_Source\PSoC5/USB.c ****     CY_ISR_PROTO(USB_EP_5_ISR);
  90:.\Generated_Source\PSoC5/USB.c **** #endif /* End USB_EP5_ISR_REMOVE */
  91:.\Generated_Source\PSoC5/USB.c **** #if(USB_EP6_ISR_REMOVE == 0u)
  92:.\Generated_Source\PSoC5/USB.c ****     CY_ISR_PROTO(USB_EP_6_ISR);
  93:.\Generated_Source\PSoC5/USB.c **** #endif /* End USB_EP6_ISR_REMOVE */
  94:.\Generated_Source\PSoC5/USB.c **** #if(USB_EP7_ISR_REMOVE == 0u)
  95:.\Generated_Source\PSoC5/USB.c ****     CY_ISR_PROTO(USB_EP_7_ISR);
  96:.\Generated_Source\PSoC5/USB.c **** #endif /* End USB_EP7_ISR_REMOVE */
  97:.\Generated_Source\PSoC5/USB.c **** #if(USB_EP8_ISR_REMOVE == 0u)
  98:.\Generated_Source\PSoC5/USB.c ****     CY_ISR_PROTO(USB_EP_8_ISR);
  99:.\Generated_Source\PSoC5/USB.c **** #endif /* End USB_EP8_ISR_REMOVE */
 100:.\Generated_Source\PSoC5/USB.c **** CY_ISR_PROTO(USB_BUS_RESET_ISR);
 101:.\Generated_Source\PSoC5/USB.c **** #if(USB_SOF_ISR_REMOVE == 0u)
 102:.\Generated_Source\PSoC5/USB.c ****     CY_ISR_PROTO(USB_SOF_ISR);
 103:.\Generated_Source\PSoC5/USB.c **** #endif /* End USB_SOF_ISR_REMOVE */
 104:.\Generated_Source\PSoC5/USB.c **** #if(USB_EP_MM != USB__EP_MANUAL)
 105:.\Generated_Source\PSoC5/USB.c ****     CY_ISR_PROTO(USB_ARB_ISR);
 106:.\Generated_Source\PSoC5/USB.c **** #endif /* End USB_EP_MM */
 107:.\Generated_Source\PSoC5/USB.c **** 
 108:.\Generated_Source\PSoC5/USB.c **** 
 109:.\Generated_Source\PSoC5/USB.c **** /***************************************
 110:.\Generated_Source\PSoC5/USB.c **** * Global data allocation
 111:.\Generated_Source\PSoC5/USB.c **** ***************************************/
 112:.\Generated_Source\PSoC5/USB.c **** 
 113:.\Generated_Source\PSoC5/USB.c **** uint8 USB_initVar = 0u;
 114:.\Generated_Source\PSoC5/USB.c **** #if(USB_EP_MM != USB__EP_MANUAL)
 115:.\Generated_Source\PSoC5/USB.c ****     uint8 USB_DmaChan[USB_MAX_EP];
 116:.\Generated_Source\PSoC5/USB.c ****     uint8 USB_DmaTd[USB_MAX_EP];
 117:.\Generated_Source\PSoC5/USB.c **** #endif /* End USB_EP_MM */
 118:.\Generated_Source\PSoC5/USB.c **** 
 119:.\Generated_Source\PSoC5/USB.c **** 
 120:.\Generated_Source\PSoC5/USB.c **** /*******************************************************************************
 121:.\Generated_Source\PSoC5/USB.c **** * Function Name: USB_Start
 122:.\Generated_Source\PSoC5/USB.c **** ********************************************************************************
 123:.\Generated_Source\PSoC5/USB.c **** *
 124:.\Generated_Source\PSoC5/USB.c **** * Summary:
 125:.\Generated_Source\PSoC5/USB.c **** *  This function initialize the USB SIE, arbiter and the
 126:.\Generated_Source\PSoC5/USB.c **** *  endpoint APIs, including setting the D+ Pullup
 127:.\Generated_Source\PSoC5/USB.c **** *
 128:.\Generated_Source\PSoC5/USB.c **** * Parameters:
 129:.\Generated_Source\PSoC5/USB.c **** *  device: Contains the device number of the desired device descriptor.
 130:.\Generated_Source\PSoC5/USB.c **** *          The device number can be found in the Device Descriptor Tab of 
ARM GAS  C:\Users\Craig\AppData\Local\Temp\ccXI8V1u.s 			page 4


 131:.\Generated_Source\PSoC5/USB.c **** *          "Configure" dialog, under the settings of desired Device Descriptor,
 132:.\Generated_Source\PSoC5/USB.c **** *          in the "Device Number" field.
 133:.\Generated_Source\PSoC5/USB.c **** *  mode: The operating voltage. This determines whether the voltage regulator
 134:.\Generated_Source\PSoC5/USB.c **** *        is enabled for 5V operation or if pass through mode is used for 3.3V
 135:.\Generated_Source\PSoC5/USB.c **** *        operation. Symbolic names and their associated values are given in the
 136:.\Generated_Source\PSoC5/USB.c **** *        following table.
 137:.\Generated_Source\PSoC5/USB.c **** *       USB_3V_OPERATION - Disable voltage regulator and pass-thru
 138:.\Generated_Source\PSoC5/USB.c **** *                                       Vcc for pull-up
 139:.\Generated_Source\PSoC5/USB.c **** *       USB_5V_OPERATION - Enable voltage regulator and use
 140:.\Generated_Source\PSoC5/USB.c **** *                                       regulator for pull-up
 141:.\Generated_Source\PSoC5/USB.c **** *       USB_DWR_VDDD_OPERATION - Enable or Disable voltage
 142:.\Generated_Source\PSoC5/USB.c **** *                         regulator depend on Vddd Voltage configuration in DWR.
 143:.\Generated_Source\PSoC5/USB.c **** *
 144:.\Generated_Source\PSoC5/USB.c **** * Return:
 145:.\Generated_Source\PSoC5/USB.c **** *   None.
 146:.\Generated_Source\PSoC5/USB.c **** *
 147:.\Generated_Source\PSoC5/USB.c **** * Global variables:
 148:.\Generated_Source\PSoC5/USB.c **** *  The USB_intiVar variable is used to indicate initial
 149:.\Generated_Source\PSoC5/USB.c **** *  configuration of this component. The variable is initialized to zero (0u)
 150:.\Generated_Source\PSoC5/USB.c **** *  and set to one (1u) the first time USB_Start() is called.
 151:.\Generated_Source\PSoC5/USB.c **** *  This allows for component Re-Start without unnecessary re-initialization
 152:.\Generated_Source\PSoC5/USB.c **** *  in all subsequent calls to the USB_Start() routine.
 153:.\Generated_Source\PSoC5/USB.c **** *  If re-initialization of the component is required the variable should be set
 154:.\Generated_Source\PSoC5/USB.c **** *  to zero before call of UART_Start() routine, or the user may call
 155:.\Generated_Source\PSoC5/USB.c **** *  USB_Init() and USB_InitComponent() as done
 156:.\Generated_Source\PSoC5/USB.c **** *  in the USB_Start() routine.
 157:.\Generated_Source\PSoC5/USB.c **** *
 158:.\Generated_Source\PSoC5/USB.c **** * Side Effects:
 159:.\Generated_Source\PSoC5/USB.c **** *   This function will reset all communication states to default.
 160:.\Generated_Source\PSoC5/USB.c **** *
 161:.\Generated_Source\PSoC5/USB.c **** * Reentrant:
 162:.\Generated_Source\PSoC5/USB.c **** *  No.
 163:.\Generated_Source\PSoC5/USB.c **** *
 164:.\Generated_Source\PSoC5/USB.c **** *******************************************************************************/
 165:.\Generated_Source\PSoC5/USB.c **** void USB_Start(uint8 device, uint8 mode) 
 166:.\Generated_Source\PSoC5/USB.c **** {
  38              		.loc 1 166 0
  39              		.cfi_startproc
  40              		@ args = 0, pretend = 0, frame = 8
  41              		@ frame_needed = 1, uses_anonymous_args = 0
  42 0000 80B5     		push	{r7, lr}
  43              	.LCFI0:
  44              		.cfi_def_cfa_offset 8
  45 0002 82B0     		sub	sp, sp, #8
  46              	.LCFI1:
  47              		.cfi_def_cfa_offset 16
  48 0004 00AF     		add	r7, sp, #0
  49              		.cfi_offset 14, -4
  50              		.cfi_offset 7, -8
  51              	.LCFI2:
  52              		.cfi_def_cfa_register 7
  53 0006 0246     		mov	r2, r0
  54 0008 0B46     		mov	r3, r1
  55 000a FA71     		strb	r2, [r7, #7]
  56 000c BB71     		strb	r3, [r7, #6]
 167:.\Generated_Source\PSoC5/USB.c ****     /* If not Initialized then initialize all required hardware and software */
 168:.\Generated_Source\PSoC5/USB.c ****     if(USB_initVar == 0u)
ARM GAS  C:\Users\Craig\AppData\Local\Temp\ccXI8V1u.s 			page 5


  57              		.loc 1 168 0
  58 000e 40F20003 		movw	r3, #:lower16:USB_initVar
  59 0012 C0F20003 		movt	r3, #:upper16:USB_initVar
  60 0016 1B78     		ldrb	r3, [r3, #0]	@ zero_extendqisi2
  61 0018 002B     		cmp	r3, #0
  62 001a 08D1     		bne	.L2
 169:.\Generated_Source\PSoC5/USB.c ****     {
 170:.\Generated_Source\PSoC5/USB.c ****         USB_Init();
  63              		.loc 1 170 0
  64 001c FFF7FEFF 		bl	USB_Init
 171:.\Generated_Source\PSoC5/USB.c ****         USB_initVar = 1u;
  65              		.loc 1 171 0
  66 0020 40F20003 		movw	r3, #:lower16:USB_initVar
  67 0024 C0F20003 		movt	r3, #:upper16:USB_initVar
  68 0028 4FF00102 		mov	r2, #1
  69 002c 1A70     		strb	r2, [r3, #0]
  70              	.L2:
 172:.\Generated_Source\PSoC5/USB.c ****     }
 173:.\Generated_Source\PSoC5/USB.c ****     USB_InitComponent(device, mode);
  71              		.loc 1 173 0
  72 002e FA79     		ldrb	r2, [r7, #7]	@ zero_extendqisi2
  73 0030 BB79     		ldrb	r3, [r7, #6]	@ zero_extendqisi2
  74 0032 1046     		mov	r0, r2
  75 0034 1946     		mov	r1, r3
  76 0036 FFF7FEFF 		bl	USB_InitComponent
 174:.\Generated_Source\PSoC5/USB.c **** }
  77              		.loc 1 174 0
  78 003a 07F10807 		add	r7, r7, #8
  79 003e BD46     		mov	sp, r7
  80 0040 80BD     		pop	{r7, pc}
  81              		.cfi_endproc
  82              	.LFE0:
  83              		.size	USB_Start, .-USB_Start
  84 0042 00BF     		.section	.text.USB_Init,"ax",%progbits
  85              		.align	2
  86              		.global	USB_Init
  87              		.thumb
  88              		.thumb_func
  89              		.type	USB_Init, %function
  90              	USB_Init:
  91              	.LFB1:
 175:.\Generated_Source\PSoC5/USB.c **** 
 176:.\Generated_Source\PSoC5/USB.c **** 
 177:.\Generated_Source\PSoC5/USB.c **** /*******************************************************************************
 178:.\Generated_Source\PSoC5/USB.c **** * Function Name: USB_Init
 179:.\Generated_Source\PSoC5/USB.c **** ********************************************************************************
 180:.\Generated_Source\PSoC5/USB.c **** *
 181:.\Generated_Source\PSoC5/USB.c **** * Summary:
 182:.\Generated_Source\PSoC5/USB.c **** *  Initialize component's hardware. Usually called in USB_Start().
 183:.\Generated_Source\PSoC5/USB.c **** *
 184:.\Generated_Source\PSoC5/USB.c **** * Parameters:
 185:.\Generated_Source\PSoC5/USB.c **** *  None.
 186:.\Generated_Source\PSoC5/USB.c **** *
 187:.\Generated_Source\PSoC5/USB.c **** * Return:
 188:.\Generated_Source\PSoC5/USB.c **** *  None.
 189:.\Generated_Source\PSoC5/USB.c **** *
 190:.\Generated_Source\PSoC5/USB.c **** * Reentrant:
ARM GAS  C:\Users\Craig\AppData\Local\Temp\ccXI8V1u.s 			page 6


 191:.\Generated_Source\PSoC5/USB.c **** *  No.
 192:.\Generated_Source\PSoC5/USB.c **** *
 193:.\Generated_Source\PSoC5/USB.c **** *******************************************************************************/
 194:.\Generated_Source\PSoC5/USB.c **** void USB_Init(void) 
 195:.\Generated_Source\PSoC5/USB.c **** {
  92              		.loc 1 195 0
  93              		.cfi_startproc
  94              		@ args = 0, pretend = 0, frame = 8
  95              		@ frame_needed = 1, uses_anonymous_args = 0
  96 0000 80B5     		push	{r7, lr}
  97              	.LCFI3:
  98              		.cfi_def_cfa_offset 8
  99 0002 82B0     		sub	sp, sp, #8
 100              	.LCFI4:
 101              		.cfi_def_cfa_offset 16
 102 0004 00AF     		add	r7, sp, #0
 103              		.cfi_offset 14, -4
 104              		.cfi_offset 7, -8
 105              	.LCFI5:
 106              		.cfi_def_cfa_register 7
 196:.\Generated_Source\PSoC5/USB.c ****     uint8 enableInterrupts;
 197:.\Generated_Source\PSoC5/USB.c ****     #if(USB_EP_MM != USB__EP_MANUAL)
 198:.\Generated_Source\PSoC5/USB.c ****         uint16 i;
 199:.\Generated_Source\PSoC5/USB.c ****     #endif   /* End USB_EP_MM != USB__EP_MANUAL */
 200:.\Generated_Source\PSoC5/USB.c **** 
 201:.\Generated_Source\PSoC5/USB.c ****     enableInterrupts = CyEnterCriticalSection();
 107              		.loc 1 201 0
 108 0006 FFF7FEFF 		bl	CyEnterCriticalSection
 109 000a 0346     		mov	r3, r0
 110 000c FB71     		strb	r3, [r7, #7]
 202:.\Generated_Source\PSoC5/USB.c **** 
 203:.\Generated_Source\PSoC5/USB.c ****     /* Enable USB block  */
 204:.\Generated_Source\PSoC5/USB.c ****     USB_PM_ACT_CFG_REG |= USB_PM_ACT_EN_FSUSB;
 111              		.loc 1 204 0
 112 000e 44F2A533 		movw	r3, #:lower16:1073759141
 113 0012 C4F20003 		movt	r3, #:upper16:1073759141
 114 0016 44F2A532 		movw	r2, #:lower16:1073759141
 115 001a C4F20002 		movt	r2, #:upper16:1073759141
 116 001e 1278     		ldrb	r2, [r2, #0]
 117 0020 D2B2     		uxtb	r2, r2
 118 0022 42F00102 		orr	r2, r2, #1
 119 0026 D2B2     		uxtb	r2, r2
 120 0028 1A70     		strb	r2, [r3, #0]
 205:.\Generated_Source\PSoC5/USB.c ****     /* Enable USB block for Standby Power Mode */
 206:.\Generated_Source\PSoC5/USB.c ****     USB_PM_STBY_CFG_REG |= USB_PM_STBY_EN_FSUSB;
 121              		.loc 1 206 0
 122 002a 44F2B533 		movw	r3, #:lower16:1073759157
 123 002e C4F20003 		movt	r3, #:upper16:1073759157
 124 0032 44F2B532 		movw	r2, #:lower16:1073759157
 125 0036 C4F20002 		movt	r2, #:upper16:1073759157
 126 003a 1278     		ldrb	r2, [r2, #0]
 127 003c D2B2     		uxtb	r2, r2
 128 003e 42F00102 		orr	r2, r2, #1
 129 0042 D2B2     		uxtb	r2, r2
 130 0044 1A70     		strb	r2, [r3, #0]
 207:.\Generated_Source\PSoC5/USB.c **** 
 208:.\Generated_Source\PSoC5/USB.c ****     #if(CY_PSOC5A)
ARM GAS  C:\Users\Craig\AppData\Local\Temp\ccXI8V1u.s 			page 7


 209:.\Generated_Source\PSoC5/USB.c ****         /* Disable USBIO for TO3 */
 210:.\Generated_Source\PSoC5/USB.c ****         USB_PM_AVAIL_CR_REG &= ~USB_PM_AVAIL_EN_FSUSBIO;
 211:.\Generated_Source\PSoC5/USB.c ****     #endif /* End CY_PSOC5A */
 212:.\Generated_Source\PSoC5/USB.c **** 
 213:.\Generated_Source\PSoC5/USB.c ****     /* Enable core clock */
 214:.\Generated_Source\PSoC5/USB.c ****     USB_USB_CLK_EN_REG = USB_USB_CLK_ENABLE;
 131              		.loc 1 214 0
 132 0046 46F29D03 		movw	r3, #:lower16:1073766557
 133 004a C4F20003 		movt	r3, #:upper16:1073766557
 134 004e 4FF00102 		mov	r2, #1
 135 0052 1A70     		strb	r2, [r3, #0]
 215:.\Generated_Source\PSoC5/USB.c **** 
 216:.\Generated_Source\PSoC5/USB.c ****     USB_CR1_REG = USB_CR1_ENABLE_LOCK;
 136              		.loc 1 216 0
 137 0054 46F20903 		movw	r3, #:lower16:1073766409
 138 0058 C4F20003 		movt	r3, #:upper16:1073766409
 139 005c 4FF00202 		mov	r2, #2
 140 0060 1A70     		strb	r2, [r3, #0]
 217:.\Generated_Source\PSoC5/USB.c **** 
 218:.\Generated_Source\PSoC5/USB.c ****     #if(CY_PSOC5A)
 219:.\Generated_Source\PSoC5/USB.c ****         /* Enable USBIO for TO3 */
 220:.\Generated_Source\PSoC5/USB.c ****         USB_PM_AVAIL_CR_REG |= USB_PM_AVAIL_EN_FSUSBIO;
 221:.\Generated_Source\PSoC5/USB.c ****         /* Bus Reset Length, It has correct default value in ES3 */
 222:.\Generated_Source\PSoC5/USB.c ****         USB_BUS_RST_CNT_REG = USB_BUS_RST_COUNT;
 223:.\Generated_Source\PSoC5/USB.c ****     #endif /* End CY_PSOC5A */
 224:.\Generated_Source\PSoC5/USB.c **** 
 225:.\Generated_Source\PSoC5/USB.c ****     /* ENABLING USBIO PADS IN USB MODE FROM I/O MODE */
 226:.\Generated_Source\PSoC5/USB.c ****     #if(!CY_PSOC5A)
 227:.\Generated_Source\PSoC5/USB.c ****         /* Ensure USB transmit enable is low (USB_USBIO_CR0.ten). - Manual Transmission - Disabled 
 228:.\Generated_Source\PSoC5/USB.c ****         USB_USBIO_CR0_REG &= ~USB_USBIO_CR0_TEN;
 141              		.loc 1 228 0
 142 0062 46F21003 		movw	r3, #:lower16:1073766416
 143 0066 C4F20003 		movt	r3, #:upper16:1073766416
 144 006a 46F21002 		movw	r2, #:lower16:1073766416
 145 006e C4F20002 		movt	r2, #:upper16:1073766416
 146 0072 1278     		ldrb	r2, [r2, #0]
 147 0074 D2B2     		uxtb	r2, r2
 148 0076 02F07F02 		and	r2, r2, #127
 149 007a 1A70     		strb	r2, [r3, #0]
 229:.\Generated_Source\PSoC5/USB.c ****         CyDelayUs(0);  /*~50ns delay */
 150              		.loc 1 229 0
 151 007c 4FF00000 		mov	r0, #0
 152 0080 FFF7FEFF 		bl	CyDelayUs
 230:.\Generated_Source\PSoC5/USB.c ****         /* Disable the USBIO by asserting PM.USB_CR0.fsusbio_pd_n(Inverted)
 231:.\Generated_Source\PSoC5/USB.c ****         *  high. This will have been set low by the power manger out of reset.
 232:.\Generated_Source\PSoC5/USB.c ****         *  Also confirm USBIO pull-up disabled
 233:.\Generated_Source\PSoC5/USB.c ****         */
 234:.\Generated_Source\PSoC5/USB.c ****         USB_PM_USB_CR0_REG &= ~(USB_PM_USB_CR0_PD_N |USB_PM_USB_CR0_PD_PULLUP_N);
 153              		.loc 1 234 0
 154 0084 44F29433 		movw	r3, #:lower16:1073759124
 155 0088 C4F20003 		movt	r3, #:upper16:1073759124
 156 008c 44F29432 		movw	r2, #:lower16:1073759124
 157 0090 C4F20002 		movt	r2, #:upper16:1073759124
 158 0094 1278     		ldrb	r2, [r2, #0]
 159 0096 D2B2     		uxtb	r2, r2
 160 0098 02F0F902 		and	r2, r2, #249
 161 009c 1A70     		strb	r2, [r3, #0]
ARM GAS  C:\Users\Craig\AppData\Local\Temp\ccXI8V1u.s 			page 8


 235:.\Generated_Source\PSoC5/USB.c **** 
 236:.\Generated_Source\PSoC5/USB.c ****         /* Select iomode to USB mode*/
 237:.\Generated_Source\PSoC5/USB.c ****         USB_USBIO_CR1_REG &= ~ USB_USBIO_CR1_IOMODE;
 162              		.loc 1 237 0
 163 009e 46F21203 		movw	r3, #:lower16:1073766418
 164 00a2 C4F20003 		movt	r3, #:upper16:1073766418
 165 00a6 46F21202 		movw	r2, #:lower16:1073766418
 166 00aa C4F20002 		movt	r2, #:upper16:1073766418
 167 00ae 1278     		ldrb	r2, [r2, #0]
 168 00b0 D2B2     		uxtb	r2, r2
 169 00b2 02F0DF02 		and	r2, r2, #223
 170 00b6 1A70     		strb	r2, [r3, #0]
 238:.\Generated_Source\PSoC5/USB.c **** 
 239:.\Generated_Source\PSoC5/USB.c ****         /* Enable the USBIO reference by setting PM.USB_CR0.fsusbio_ref_en.*/
 240:.\Generated_Source\PSoC5/USB.c ****         USB_PM_USB_CR0_REG |= USB_PM_USB_CR0_REF_EN;
 171              		.loc 1 240 0
 172 00b8 44F29433 		movw	r3, #:lower16:1073759124
 173 00bc C4F20003 		movt	r3, #:upper16:1073759124
 174 00c0 44F29432 		movw	r2, #:lower16:1073759124
 175 00c4 C4F20002 		movt	r2, #:upper16:1073759124
 176 00c8 1278     		ldrb	r2, [r2, #0]
 177 00ca D2B2     		uxtb	r2, r2
 178 00cc 42F00102 		orr	r2, r2, #1
 179 00d0 D2B2     		uxtb	r2, r2
 180 00d2 1A70     		strb	r2, [r3, #0]
 241:.\Generated_Source\PSoC5/USB.c ****         /* The reference will be available 1 us after the regulator is enabled */
 242:.\Generated_Source\PSoC5/USB.c ****         CyDelayUs(1);
 181              		.loc 1 242 0
 182 00d4 4FF00100 		mov	r0, #1
 183 00d8 FFF7FEFF 		bl	CyDelayUs
 243:.\Generated_Source\PSoC5/USB.c ****         /* OR 40us after power restored */
 244:.\Generated_Source\PSoC5/USB.c ****         CyDelayUs(40);
 184              		.loc 1 244 0
 185 00dc 4FF02800 		mov	r0, #40
 186 00e0 FFF7FEFF 		bl	CyDelayUs
 245:.\Generated_Source\PSoC5/USB.c ****         /* Ensure the single ended disable bits are low (PRT15.INP_DIS[7:6])(input receiver enabled
 246:.\Generated_Source\PSoC5/USB.c ****         USB_DM_INP_DIS_REG &= ~USB_DM_MASK;
 187              		.loc 1 246 0
 188 00e4 45F2F813 		movw	r3, #:lower16:1073762808
 189 00e8 C4F20003 		movt	r3, #:upper16:1073762808
 190 00ec 45F2F812 		movw	r2, #:lower16:1073762808
 191 00f0 C4F20002 		movt	r2, #:upper16:1073762808
 192 00f4 1278     		ldrb	r2, [r2, #0]
 193 00f6 D2B2     		uxtb	r2, r2
 194 00f8 02F07F02 		and	r2, r2, #127
 195 00fc 1A70     		strb	r2, [r3, #0]
 247:.\Generated_Source\PSoC5/USB.c ****         USB_DP_INP_DIS_REG &= ~USB_DP_MASK;
 196              		.loc 1 247 0
 197 00fe 45F2F813 		movw	r3, #:lower16:1073762808
 198 0102 C4F20003 		movt	r3, #:upper16:1073762808
 199 0106 45F2F812 		movw	r2, #:lower16:1073762808
 200 010a C4F20002 		movt	r2, #:upper16:1073762808
 201 010e 1278     		ldrb	r2, [r2, #0]
 202 0110 D2B2     		uxtb	r2, r2
 203 0112 02F0BF02 		and	r2, r2, #191
 204 0116 1A70     		strb	r2, [r3, #0]
 248:.\Generated_Source\PSoC5/USB.c **** 
ARM GAS  C:\Users\Craig\AppData\Local\Temp\ccXI8V1u.s 			page 9


 249:.\Generated_Source\PSoC5/USB.c ****         /* Enable USBIO */
 250:.\Generated_Source\PSoC5/USB.c ****         USB_PM_USB_CR0_REG |= USB_PM_USB_CR0_PD_N;
 205              		.loc 1 250 0
 206 0118 44F29433 		movw	r3, #:lower16:1073759124
 207 011c C4F20003 		movt	r3, #:upper16:1073759124
 208 0120 44F29432 		movw	r2, #:lower16:1073759124
 209 0124 C4F20002 		movt	r2, #:upper16:1073759124
 210 0128 1278     		ldrb	r2, [r2, #0]
 211 012a D2B2     		uxtb	r2, r2
 212 012c 42F00202 		orr	r2, r2, #2
 213 0130 D2B2     		uxtb	r2, r2
 214 0132 1A70     		strb	r2, [r3, #0]
 251:.\Generated_Source\PSoC5/USB.c ****         CyDelayUs(2);
 215              		.loc 1 251 0
 216 0134 4FF00200 		mov	r0, #2
 217 0138 FFF7FEFF 		bl	CyDelayUs
 252:.\Generated_Source\PSoC5/USB.c ****         /* Set the USBIO pull-up enable */
 253:.\Generated_Source\PSoC5/USB.c ****         USB_PM_USB_CR0_REG |= USB_PM_USB_CR0_PD_PULLUP_N;
 218              		.loc 1 253 0
 219 013c 44F29433 		movw	r3, #:lower16:1073759124
 220 0140 C4F20003 		movt	r3, #:upper16:1073759124
 221 0144 44F29432 		movw	r2, #:lower16:1073759124
 222 0148 C4F20002 		movt	r2, #:upper16:1073759124
 223 014c 1278     		ldrb	r2, [r2, #0]
 224 014e D2B2     		uxtb	r2, r2
 225 0150 42F00402 		orr	r2, r2, #4
 226 0154 D2B2     		uxtb	r2, r2
 227 0156 1A70     		strb	r2, [r3, #0]
 254:.\Generated_Source\PSoC5/USB.c **** 
 255:.\Generated_Source\PSoC5/USB.c ****     #endif /* End !CY_PSOC5A */
 256:.\Generated_Source\PSoC5/USB.c **** 
 257:.\Generated_Source\PSoC5/USB.c ****     /* Write WAx */
 258:.\Generated_Source\PSoC5/USB.c ****     CY_SET_REG8(&USB_ARB_RW1_WA_PTR[0u],     0u);
 228              		.loc 1 258 0
 229 0158 46F28403 		movw	r3, #:lower16:1073766532
 230 015c C4F20003 		movt	r3, #:upper16:1073766532
 231 0160 4FF00002 		mov	r2, #0
 232 0164 1A70     		strb	r2, [r3, #0]
 259:.\Generated_Source\PSoC5/USB.c ****     CY_SET_REG8(&USB_ARB_RW1_WA_MSB_PTR[0u], 0u);
 233              		.loc 1 259 0
 234 0166 46F28503 		movw	r3, #:lower16:1073766533
 235 016a C4F20003 		movt	r3, #:upper16:1073766533
 236 016e 4FF00002 		mov	r2, #0
 237 0172 1A70     		strb	r2, [r3, #0]
 260:.\Generated_Source\PSoC5/USB.c **** 
 261:.\Generated_Source\PSoC5/USB.c ****     #if(USB_EP_MM != USB__EP_MANUAL)
 262:.\Generated_Source\PSoC5/USB.c ****         /* Init transfer descriptor. This will be used to detect the DMA state - initialized or not
 263:.\Generated_Source\PSoC5/USB.c ****         for (i = 0u; i < USB_MAX_EP; i++)
 264:.\Generated_Source\PSoC5/USB.c ****         {
 265:.\Generated_Source\PSoC5/USB.c ****             USB_DmaTd[i] = DMA_INVALID_TD;
 266:.\Generated_Source\PSoC5/USB.c ****         }
 267:.\Generated_Source\PSoC5/USB.c ****     #endif   /* End USB_EP_MM != USB__EP_MANUAL */
 268:.\Generated_Source\PSoC5/USB.c **** 
 269:.\Generated_Source\PSoC5/USB.c ****     CyExitCriticalSection(enableInterrupts);
 238              		.loc 1 269 0
 239 0174 FB79     		ldrb	r3, [r7, #7]	@ zero_extendqisi2
 240 0176 1846     		mov	r0, r3
ARM GAS  C:\Users\Craig\AppData\Local\Temp\ccXI8V1u.s 			page 10


 241 0178 FFF7FEFF 		bl	CyExitCriticalSection
 270:.\Generated_Source\PSoC5/USB.c **** 
 271:.\Generated_Source\PSoC5/USB.c **** 
 272:.\Generated_Source\PSoC5/USB.c ****     /* Set the bus reset Interrupt. */
 273:.\Generated_Source\PSoC5/USB.c ****     CyIntSetVector(USB_BUS_RESET_VECT_NUM,   USB_BUS_RESET_ISR);
 242              		.loc 1 273 0
 243 017c 4FF01700 		mov	r0, #23
 244 0180 40F20001 		movw	r1, #:lower16:USB_BUS_RESET_ISR
 245 0184 C0F20001 		movt	r1, #:upper16:USB_BUS_RESET_ISR
 246 0188 FFF7FEFF 		bl	CyIntSetVector
 274:.\Generated_Source\PSoC5/USB.c ****     CyIntSetPriority(USB_BUS_RESET_VECT_NUM, USB_BUS_RESET_PRIOR);
 247              		.loc 1 274 0
 248 018c 4FF01700 		mov	r0, #23
 249 0190 4FF00701 		mov	r1, #7
 250 0194 FFF7FEFF 		bl	CyIntSetPriority
 275:.\Generated_Source\PSoC5/USB.c **** 
 276:.\Generated_Source\PSoC5/USB.c ****     /* Set the SOF Interrupt. */
 277:.\Generated_Source\PSoC5/USB.c ****     #if(USB_SOF_ISR_REMOVE == 0u)
 278:.\Generated_Source\PSoC5/USB.c ****         CyIntSetVector(USB_SOF_VECT_NUM,   USB_SOF_ISR);
 251              		.loc 1 278 0
 252 0198 4FF01500 		mov	r0, #21
 253 019c 40F20001 		movw	r1, #:lower16:USB_SOF_ISR
 254 01a0 C0F20001 		movt	r1, #:upper16:USB_SOF_ISR
 255 01a4 FFF7FEFF 		bl	CyIntSetVector
 279:.\Generated_Source\PSoC5/USB.c ****         CyIntSetPriority(USB_SOF_VECT_NUM, USB_SOF_PRIOR);
 256              		.loc 1 279 0
 257 01a8 4FF01500 		mov	r0, #21
 258 01ac 4FF00701 		mov	r1, #7
 259 01b0 FFF7FEFF 		bl	CyIntSetPriority
 280:.\Generated_Source\PSoC5/USB.c ****     #endif   /* End USB_SOF_ISR_REMOVE */
 281:.\Generated_Source\PSoC5/USB.c **** 
 282:.\Generated_Source\PSoC5/USB.c ****     /* Set the Control Endpoint Interrupt. */
 283:.\Generated_Source\PSoC5/USB.c ****     CyIntSetVector(USB_EP_0_VECT_NUM,   USB_EP_0_ISR);
 260              		.loc 1 283 0
 261 01b4 4FF01800 		mov	r0, #24
 262 01b8 40F20001 		movw	r1, #:lower16:USB_EP_0_ISR
 263 01bc C0F20001 		movt	r1, #:upper16:USB_EP_0_ISR
 264 01c0 FFF7FEFF 		bl	CyIntSetVector
 284:.\Generated_Source\PSoC5/USB.c ****     CyIntSetPriority(USB_EP_0_VECT_NUM, USB_EP_0_PRIOR);
 265              		.loc 1 284 0
 266 01c4 4FF01800 		mov	r0, #24
 267 01c8 4FF00701 		mov	r1, #7
 268 01cc FFF7FEFF 		bl	CyIntSetPriority
 285:.\Generated_Source\PSoC5/USB.c **** 
 286:.\Generated_Source\PSoC5/USB.c ****     /* Set the Data Endpoint 1 Interrupt. */
 287:.\Generated_Source\PSoC5/USB.c ****     #if(USB_EP1_ISR_REMOVE == 0u)
 288:.\Generated_Source\PSoC5/USB.c ****         CyIntSetVector(USB_EP_1_VECT_NUM,   USB_EP_1_ISR);
 269              		.loc 1 288 0
 270 01d0 4FF00000 		mov	r0, #0
 271 01d4 40F20001 		movw	r1, #:lower16:USB_EP_1_ISR
 272 01d8 C0F20001 		movt	r1, #:upper16:USB_EP_1_ISR
 273 01dc FFF7FEFF 		bl	CyIntSetVector
 289:.\Generated_Source\PSoC5/USB.c ****         CyIntSetPriority(USB_EP_1_VECT_NUM, USB_EP_1_PRIOR);
 274              		.loc 1 289 0
 275 01e0 4FF00000 		mov	r0, #0
 276 01e4 4FF00701 		mov	r1, #7
 277 01e8 FFF7FEFF 		bl	CyIntSetPriority
ARM GAS  C:\Users\Craig\AppData\Local\Temp\ccXI8V1u.s 			page 11


 290:.\Generated_Source\PSoC5/USB.c ****     #endif   /* End USB_EP1_ISR_REMOVE */
 291:.\Generated_Source\PSoC5/USB.c **** 
 292:.\Generated_Source\PSoC5/USB.c ****     /* Set the Data Endpoint 2 Interrupt. */
 293:.\Generated_Source\PSoC5/USB.c ****     #if(USB_EP2_ISR_REMOVE == 0u)
 294:.\Generated_Source\PSoC5/USB.c ****         CyIntSetVector(USB_EP_2_VECT_NUM,   USB_EP_2_ISR);
 278              		.loc 1 294 0
 279 01ec 4FF00100 		mov	r0, #1
 280 01f0 40F20001 		movw	r1, #:lower16:USB_EP_2_ISR
 281 01f4 C0F20001 		movt	r1, #:upper16:USB_EP_2_ISR
 282 01f8 FFF7FEFF 		bl	CyIntSetVector
 295:.\Generated_Source\PSoC5/USB.c ****         CyIntSetPriority(USB_EP_2_VECT_NUM, USB_EP_2_PRIOR);
 283              		.loc 1 295 0
 284 01fc 4FF00100 		mov	r0, #1
 285 0200 4FF00701 		mov	r1, #7
 286 0204 FFF7FEFF 		bl	CyIntSetPriority
 296:.\Generated_Source\PSoC5/USB.c ****     #endif   /* End USB_EP2_ISR_REMOVE */
 297:.\Generated_Source\PSoC5/USB.c **** 
 298:.\Generated_Source\PSoC5/USB.c ****     /* Set the Data Endpoint 3 Interrupt. */
 299:.\Generated_Source\PSoC5/USB.c ****     #if(USB_EP3_ISR_REMOVE == 0u)
 300:.\Generated_Source\PSoC5/USB.c ****         CyIntSetVector(USB_EP_3_VECT_NUM,   USB_EP_3_ISR);
 301:.\Generated_Source\PSoC5/USB.c ****         CyIntSetPriority(USB_EP_3_VECT_NUM, USB_EP_3_PRIOR);
 302:.\Generated_Source\PSoC5/USB.c ****     #endif   /* End USB_EP3_ISR_REMOVE */
 303:.\Generated_Source\PSoC5/USB.c **** 
 304:.\Generated_Source\PSoC5/USB.c ****     /* Set the Data Endpoint 4 Interrupt. */
 305:.\Generated_Source\PSoC5/USB.c ****     #if(USB_EP4_ISR_REMOVE == 0u)
 306:.\Generated_Source\PSoC5/USB.c ****         CyIntSetVector(USB_EP_4_VECT_NUM,   USB_EP_4_ISR);
 307:.\Generated_Source\PSoC5/USB.c ****         CyIntSetPriority(USB_EP_4_VECT_NUM, USB_EP_4_PRIOR);
 308:.\Generated_Source\PSoC5/USB.c ****     #endif   /* End USB_EP4_ISR_REMOVE */
 309:.\Generated_Source\PSoC5/USB.c **** 
 310:.\Generated_Source\PSoC5/USB.c ****     /* Set the Data Endpoint 5 Interrupt. */
 311:.\Generated_Source\PSoC5/USB.c ****     #if(USB_EP5_ISR_REMOVE == 0u)
 312:.\Generated_Source\PSoC5/USB.c ****         CyIntSetVector(USB_EP_5_VECT_NUM,   USB_EP_5_ISR);
 313:.\Generated_Source\PSoC5/USB.c ****         CyIntSetPriority(USB_EP_5_VECT_NUM, USB_EP_5_PRIOR);
 314:.\Generated_Source\PSoC5/USB.c ****     #endif   /* End USB_EP5_ISR_REMOVE */
 315:.\Generated_Source\PSoC5/USB.c **** 
 316:.\Generated_Source\PSoC5/USB.c ****     /* Set the Data Endpoint 6 Interrupt. */
 317:.\Generated_Source\PSoC5/USB.c ****     #if(USB_EP6_ISR_REMOVE == 0u)
 318:.\Generated_Source\PSoC5/USB.c ****         CyIntSetVector(USB_EP_6_VECT_NUM,   USB_EP_6_ISR);
 319:.\Generated_Source\PSoC5/USB.c ****         CyIntSetPriority(USB_EP_6_VECT_NUM, USB_EP_6_PRIOR);
 320:.\Generated_Source\PSoC5/USB.c ****     #endif   /* End USB_EP6_ISR_REMOVE */
 321:.\Generated_Source\PSoC5/USB.c **** 
 322:.\Generated_Source\PSoC5/USB.c ****      /* Set the Data Endpoint 7 Interrupt. */
 323:.\Generated_Source\PSoC5/USB.c ****     #if(USB_EP7_ISR_REMOVE == 0u)
 324:.\Generated_Source\PSoC5/USB.c ****         CyIntSetVector(USB_EP_7_VECT_NUM,   USB_EP_7_ISR);
 325:.\Generated_Source\PSoC5/USB.c ****         CyIntSetPriority(USB_EP_7_VECT_NUM, USB_EP_7_PRIOR);
 326:.\Generated_Source\PSoC5/USB.c ****     #endif   /* End USB_EP7_ISR_REMOVE */
 327:.\Generated_Source\PSoC5/USB.c **** 
 328:.\Generated_Source\PSoC5/USB.c ****     /* Set the Data Endpoint 8 Interrupt. */
 329:.\Generated_Source\PSoC5/USB.c ****     #if(USB_EP8_ISR_REMOVE == 0u)
 330:.\Generated_Source\PSoC5/USB.c ****         CyIntSetVector(USB_EP_8_VECT_NUM,   USB_EP_8_ISR);
 331:.\Generated_Source\PSoC5/USB.c ****         CyIntSetPriority(USB_EP_8_VECT_NUM, USB_EP_8_PRIOR);
 332:.\Generated_Source\PSoC5/USB.c ****     #endif   /* End USB_EP8_ISR_REMOVE */
 333:.\Generated_Source\PSoC5/USB.c **** 
 334:.\Generated_Source\PSoC5/USB.c ****     #if((USB_EP_MM != USB__EP_MANUAL) && (USB_ARB_ISR_REMOVE == 0u))
 335:.\Generated_Source\PSoC5/USB.c ****         /* Set the ARB Interrupt. */
 336:.\Generated_Source\PSoC5/USB.c ****         CyIntSetVector(USB_ARB_VECT_NUM,   USB_ARB_ISR);
 337:.\Generated_Source\PSoC5/USB.c ****         CyIntSetPriority(USB_ARB_VECT_NUM, USB_ARB_PRIOR);
ARM GAS  C:\Users\Craig\AppData\Local\Temp\ccXI8V1u.s 			page 12


 338:.\Generated_Source\PSoC5/USB.c ****     #endif   /* End USB_EP_MM != USB__EP_MANUAL */
 339:.\Generated_Source\PSoC5/USB.c **** 
 340:.\Generated_Source\PSoC5/USB.c **** }
 287              		.loc 1 340 0
 288 0208 07F10807 		add	r7, r7, #8
 289 020c BD46     		mov	sp, r7
 290 020e 80BD     		pop	{r7, pc}
 291              		.cfi_endproc
 292              	.LFE1:
 293              		.size	USB_Init, .-USB_Init
 294              		.section	.text.USB_InitComponent,"ax",%progbits
 295              		.align	2
 296              		.global	USB_InitComponent
 297              		.thumb
 298              		.thumb_func
 299              		.type	USB_InitComponent, %function
 300              	USB_InitComponent:
 301              	.LFB2:
 341:.\Generated_Source\PSoC5/USB.c **** 
 342:.\Generated_Source\PSoC5/USB.c **** 
 343:.\Generated_Source\PSoC5/USB.c **** /*******************************************************************************
 344:.\Generated_Source\PSoC5/USB.c **** * Function Name: USB_InitComponent
 345:.\Generated_Source\PSoC5/USB.c **** ********************************************************************************
 346:.\Generated_Source\PSoC5/USB.c **** *
 347:.\Generated_Source\PSoC5/USB.c **** * Summary:
 348:.\Generated_Source\PSoC5/USB.c **** *  Initialize the component, except for the HW which is done one time in
 349:.\Generated_Source\PSoC5/USB.c **** *  the Start function.  This function pulls up D+.
 350:.\Generated_Source\PSoC5/USB.c **** *
 351:.\Generated_Source\PSoC5/USB.c **** * Parameters:
 352:.\Generated_Source\PSoC5/USB.c **** *  device: Contains the device number of the desired device descriptor.
 353:.\Generated_Source\PSoC5/USB.c **** *          The device number can be found in the Device Descriptor Tab of 
 354:.\Generated_Source\PSoC5/USB.c **** *          "Configure" dialog, under the settings of desired Device Descriptor,
 355:.\Generated_Source\PSoC5/USB.c **** *          in the "Device Number" field.
 356:.\Generated_Source\PSoC5/USB.c **** *  mode: The operating voltage. This determines whether the voltage regulator
 357:.\Generated_Source\PSoC5/USB.c **** *        is enabled for 5V operation or if pass through mode is used for 3.3V
 358:.\Generated_Source\PSoC5/USB.c **** *        operation. Symbolic names and their associated values are given in the
 359:.\Generated_Source\PSoC5/USB.c **** *        following table.
 360:.\Generated_Source\PSoC5/USB.c **** *       USB_3V_OPERATION - Disable voltage regulator and pass-thru
 361:.\Generated_Source\PSoC5/USB.c **** *                                       Vcc for pull-up
 362:.\Generated_Source\PSoC5/USB.c **** *       USB_5V_OPERATION - Enable voltage regulator and use
 363:.\Generated_Source\PSoC5/USB.c **** *                                       regulator for pull-up
 364:.\Generated_Source\PSoC5/USB.c **** *       USB_DWR_VDDD_OPERATION - Enable or Disable voltage
 365:.\Generated_Source\PSoC5/USB.c **** *                         regulator depend on Vddd Voltage configuration in DWR.
 366:.\Generated_Source\PSoC5/USB.c **** *
 367:.\Generated_Source\PSoC5/USB.c **** * Return:
 368:.\Generated_Source\PSoC5/USB.c **** *   None.
 369:.\Generated_Source\PSoC5/USB.c **** *
 370:.\Generated_Source\PSoC5/USB.c **** * Global variables:
 371:.\Generated_Source\PSoC5/USB.c **** *   USB_device: Contains the device number of the desired device
 372:.\Generated_Source\PSoC5/USB.c **** *       descriptor. The device number can be found in the Device Descriptor Tab 
 373:.\Generated_Source\PSoC5/USB.c **** *       of "Configure" dialog, under the settings of desired Device Descriptor,
 374:.\Generated_Source\PSoC5/USB.c **** *       in the "Device Number" field.
 375:.\Generated_Source\PSoC5/USB.c **** *   USB_transferState: This variable used by the communication
 376:.\Generated_Source\PSoC5/USB.c **** *       functions to handle current transfer state. Initialized to
 377:.\Generated_Source\PSoC5/USB.c **** *       TRANS_STATE_IDLE in this API.
 378:.\Generated_Source\PSoC5/USB.c **** *   USB_configuration: Contains current configuration number
 379:.\Generated_Source\PSoC5/USB.c **** *       which is set by the Host using SET_CONFIGURATION request.
ARM GAS  C:\Users\Craig\AppData\Local\Temp\ccXI8V1u.s 			page 13


 380:.\Generated_Source\PSoC5/USB.c **** *       Initialized to zero in this API.
 381:.\Generated_Source\PSoC5/USB.c **** *   USB_deviceAddress: Contains current device address. This
 382:.\Generated_Source\PSoC5/USB.c **** *       variable is initialized to zero in this API. Host starts to communicate
 383:.\Generated_Source\PSoC5/USB.c **** *      to device with address 0 and then set it to whatever value using
 384:.\Generated_Source\PSoC5/USB.c **** *      SET_ADDRESS request.
 385:.\Generated_Source\PSoC5/USB.c **** *   USB_deviceStatus: initialized to 0.
 386:.\Generated_Source\PSoC5/USB.c **** *       This is two bit variable which contain power status in first bit
 387:.\Generated_Source\PSoC5/USB.c **** *       (DEVICE_STATUS_BUS_POWERED or DEVICE_STATUS_SELF_POWERED) and remote
 388:.\Generated_Source\PSoC5/USB.c **** *       wakeup status (DEVICE_STATUS_REMOTE_WAKEUP) in second bit.
 389:.\Generated_Source\PSoC5/USB.c **** *   USB_lastPacketSize initialized to 0;
 390:.\Generated_Source\PSoC5/USB.c **** *
 391:.\Generated_Source\PSoC5/USB.c **** * Reentrant:
 392:.\Generated_Source\PSoC5/USB.c **** *  No.
 393:.\Generated_Source\PSoC5/USB.c **** *
 394:.\Generated_Source\PSoC5/USB.c **** *******************************************************************************/
 395:.\Generated_Source\PSoC5/USB.c **** void USB_InitComponent(uint8 device, uint8 mode) 
 396:.\Generated_Source\PSoC5/USB.c **** {
 302              		.loc 1 396 0
 303              		.cfi_startproc
 304              		@ args = 0, pretend = 0, frame = 8
 305              		@ frame_needed = 1, uses_anonymous_args = 0
 306 0000 80B5     		push	{r7, lr}
 307              	.LCFI6:
 308              		.cfi_def_cfa_offset 8
 309 0002 82B0     		sub	sp, sp, #8
 310              	.LCFI7:
 311              		.cfi_def_cfa_offset 16
 312 0004 00AF     		add	r7, sp, #0
 313              		.cfi_offset 14, -4
 314              		.cfi_offset 7, -8
 315              	.LCFI8:
 316              		.cfi_def_cfa_register 7
 317 0006 0246     		mov	r2, r0
 318 0008 0B46     		mov	r3, r1
 319 000a FA71     		strb	r2, [r7, #7]
 320 000c BB71     		strb	r3, [r7, #6]
 397:.\Generated_Source\PSoC5/USB.c ****     /* Initialize _hidProtocol variable to comply with
 398:.\Generated_Source\PSoC5/USB.c ****     *  HID 7.2.6 Set_Protocol Request:
 399:.\Generated_Source\PSoC5/USB.c ****     *  "When initialized, all devices default to report protocol."
 400:.\Generated_Source\PSoC5/USB.c ****     */
 401:.\Generated_Source\PSoC5/USB.c ****     #if defined(USB_ENABLE_HID_CLASS)
 402:.\Generated_Source\PSoC5/USB.c ****         uint8 interface;
 403:.\Generated_Source\PSoC5/USB.c **** 
 404:.\Generated_Source\PSoC5/USB.c ****         for (interface = 0u; interface < USB_MAX_INTERFACES_NUMBER; interface++)
 405:.\Generated_Source\PSoC5/USB.c ****         {
 406:.\Generated_Source\PSoC5/USB.c ****             USB_hidProtocol[interface] = USB_PROTOCOL_REPORT;
 407:.\Generated_Source\PSoC5/USB.c ****         }
 408:.\Generated_Source\PSoC5/USB.c ****     #endif /* USB_ENABLE_HID_CLASS */
 409:.\Generated_Source\PSoC5/USB.c **** 
 410:.\Generated_Source\PSoC5/USB.c ****     /* Enable Interrupts. */
 411:.\Generated_Source\PSoC5/USB.c ****     CyIntEnable(USB_BUS_RESET_VECT_NUM);
 321              		.loc 1 411 0
 322 000e 4EF20013 		movw	r3, #:lower16:-536813312
 323 0012 CEF20003 		movt	r3, #:upper16:-536813312
 324 0016 4FF40002 		mov	r2, #8388608
 325 001a 1A60     		str	r2, [r3, #0]
 412:.\Generated_Source\PSoC5/USB.c ****     CyIntEnable(USB_EP_0_VECT_NUM);
ARM GAS  C:\Users\Craig\AppData\Local\Temp\ccXI8V1u.s 			page 14


 326              		.loc 1 412 0
 327 001c 4EF20013 		movw	r3, #:lower16:-536813312
 328 0020 CEF20003 		movt	r3, #:upper16:-536813312
 329 0024 4FF08072 		mov	r2, #16777216
 330 0028 1A60     		str	r2, [r3, #0]
 413:.\Generated_Source\PSoC5/USB.c ****     #if(USB_EP1_ISR_REMOVE == 0u)
 414:.\Generated_Source\PSoC5/USB.c ****         CyIntEnable(USB_EP_1_VECT_NUM);
 331              		.loc 1 414 0
 332 002a 4EF20013 		movw	r3, #:lower16:-536813312
 333 002e CEF20003 		movt	r3, #:upper16:-536813312
 334 0032 4FF00102 		mov	r2, #1
 335 0036 1A60     		str	r2, [r3, #0]
 415:.\Generated_Source\PSoC5/USB.c ****     #endif   /* End USB_EP1_ISR_REMOVE */
 416:.\Generated_Source\PSoC5/USB.c ****     #if(USB_EP2_ISR_REMOVE == 0u)
 417:.\Generated_Source\PSoC5/USB.c ****         CyIntEnable(USB_EP_2_VECT_NUM);
 336              		.loc 1 417 0
 337 0038 4EF20013 		movw	r3, #:lower16:-536813312
 338 003c CEF20003 		movt	r3, #:upper16:-536813312
 339 0040 4FF00202 		mov	r2, #2
 340 0044 1A60     		str	r2, [r3, #0]
 418:.\Generated_Source\PSoC5/USB.c ****     #endif   /* End USB_EP2_ISR_REMOVE */
 419:.\Generated_Source\PSoC5/USB.c ****     #if(USB_EP3_ISR_REMOVE == 0u)
 420:.\Generated_Source\PSoC5/USB.c ****         CyIntEnable(USB_EP_3_VECT_NUM);
 421:.\Generated_Source\PSoC5/USB.c ****     #endif   /* End USB_EP3_ISR_REMOVE */
 422:.\Generated_Source\PSoC5/USB.c ****     #if(USB_EP4_ISR_REMOVE == 0u)
 423:.\Generated_Source\PSoC5/USB.c ****         CyIntEnable(USB_EP_4_VECT_NUM);
 424:.\Generated_Source\PSoC5/USB.c ****     #endif   /* End USB_EP4_ISR_REMOVE */
 425:.\Generated_Source\PSoC5/USB.c ****     #if(USB_EP5_ISR_REMOVE == 0u)
 426:.\Generated_Source\PSoC5/USB.c ****         CyIntEnable(USB_EP_5_VECT_NUM);
 427:.\Generated_Source\PSoC5/USB.c ****     #endif   /* End USB_EP5_ISR_REMOVE */
 428:.\Generated_Source\PSoC5/USB.c ****     #if(USB_EP6_ISR_REMOVE == 0u)
 429:.\Generated_Source\PSoC5/USB.c ****         CyIntEnable(USB_EP_6_VECT_NUM);
 430:.\Generated_Source\PSoC5/USB.c ****     #endif   /* End USB_EP6_ISR_REMOVE */
 431:.\Generated_Source\PSoC5/USB.c ****     #if(USB_EP7_ISR_REMOVE == 0u)
 432:.\Generated_Source\PSoC5/USB.c ****         CyIntEnable(USB_EP_7_VECT_NUM);
 433:.\Generated_Source\PSoC5/USB.c ****     #endif   /* End USB_EP7_ISR_REMOVE */
 434:.\Generated_Source\PSoC5/USB.c ****     #if(USB_EP8_ISR_REMOVE == 0u)
 435:.\Generated_Source\PSoC5/USB.c ****         CyIntEnable(USB_EP_8_VECT_NUM);
 436:.\Generated_Source\PSoC5/USB.c ****     #endif   /* End USB_EP8_ISR_REMOVE */
 437:.\Generated_Source\PSoC5/USB.c ****     #if((USB_EP_MM != USB__EP_MANUAL) && (USB_ARB_ISR_REMOVE == 0u))
 438:.\Generated_Source\PSoC5/USB.c ****         /* usb arb interrupt enable */
 439:.\Generated_Source\PSoC5/USB.c ****         USB_ARB_INT_EN_REG = USB_ARB_INT_MASK;
 440:.\Generated_Source\PSoC5/USB.c ****         CyIntEnable(USB_ARB_VECT_NUM);
 441:.\Generated_Source\PSoC5/USB.c ****     #endif   /* End USB_EP_MM != USB__EP_MANUAL */
 442:.\Generated_Source\PSoC5/USB.c **** 
 443:.\Generated_Source\PSoC5/USB.c ****     /* Arbiter congiguration for DMA transfers */
 444:.\Generated_Source\PSoC5/USB.c ****     #if(USB_EP_MM != USB__EP_MANUAL)
 445:.\Generated_Source\PSoC5/USB.c **** 
 446:.\Generated_Source\PSoC5/USB.c ****         #if(USB_EP_MM == USB__EP_DMAMANUAL)
 447:.\Generated_Source\PSoC5/USB.c ****             USB_ARB_CFG_REG = USB_ARB_CFG_MANUAL_DMA;
 448:.\Generated_Source\PSoC5/USB.c ****         #endif   /* End USB_EP_MM == USB__EP_DMAMANUAL */
 449:.\Generated_Source\PSoC5/USB.c ****         #if(USB_EP_MM == USB__EP_DMAAUTO)
 450:.\Generated_Source\PSoC5/USB.c ****             /*Set cfg cmplt this rises DMA request when the full configuration is done */
 451:.\Generated_Source\PSoC5/USB.c ****             USB_ARB_CFG_REG = USB_ARB_CFG_AUTO_DMA | USB_ARB_CFG_AUTO_MEM;
 452:.\Generated_Source\PSoC5/USB.c ****         #endif   /* End USB_EP_MM == USB__EP_DMAAUTO */
 453:.\Generated_Source\PSoC5/USB.c ****     #endif   /* End USB_EP_MM != USB__EP_MANUAL */
 454:.\Generated_Source\PSoC5/USB.c **** 
ARM GAS  C:\Users\Craig\AppData\Local\Temp\ccXI8V1u.s 			page 15


 455:.\Generated_Source\PSoC5/USB.c ****     USB_transferState = USB_TRANS_STATE_IDLE;
 341              		.loc 1 455 0
 342 0046 40F20003 		movw	r3, #:lower16:USB_transferState
 343 004a C0F20003 		movt	r3, #:upper16:USB_transferState
 344 004e 4FF00002 		mov	r2, #0
 345 0052 1A70     		strb	r2, [r3, #0]
 456:.\Generated_Source\PSoC5/USB.c **** 
 457:.\Generated_Source\PSoC5/USB.c ****     /* USB Locking: Enabled, VRegulator: depend on mode or DWR Voltage configuration*/
 458:.\Generated_Source\PSoC5/USB.c ****     switch(mode)
 346              		.loc 1 458 0
 347 0054 BB79     		ldrb	r3, [r7, #6]	@ zero_extendqisi2
 348 0056 002B     		cmp	r3, #0
 349 0058 02D0     		beq	.L8
 350 005a 012B     		cmp	r3, #1
 351 005c 08D0     		beq	.L9
 352 005e 0FE0     		b	.L12
 353              	.L8:
 459:.\Generated_Source\PSoC5/USB.c ****     {
 460:.\Generated_Source\PSoC5/USB.c ****         case USB_3V_OPERATION:
 461:.\Generated_Source\PSoC5/USB.c ****             USB_CR1_REG = USB_CR1_ENABLE_LOCK;
 354              		.loc 1 461 0
 355 0060 46F20903 		movw	r3, #:lower16:1073766409
 356 0064 C4F20003 		movt	r3, #:upper16:1073766409
 357 0068 4FF00202 		mov	r2, #2
 358 006c 1A70     		strb	r2, [r3, #0]
 462:.\Generated_Source\PSoC5/USB.c ****             break;
 359              		.loc 1 462 0
 360 006e 0EE0     		b	.L10
 361              	.L9:
 463:.\Generated_Source\PSoC5/USB.c ****         case USB_5V_OPERATION:
 464:.\Generated_Source\PSoC5/USB.c ****             USB_CR1_REG = USB_CR1_ENABLE_LOCK | USB_CR1_REG_ENABLE;
 362              		.loc 1 464 0
 363 0070 46F20903 		movw	r3, #:lower16:1073766409
 364 0074 C4F20003 		movt	r3, #:upper16:1073766409
 365 0078 4FF00302 		mov	r2, #3
 366 007c 1A70     		strb	r2, [r3, #0]
 465:.\Generated_Source\PSoC5/USB.c ****             break;
 367              		.loc 1 465 0
 368 007e 06E0     		b	.L10
 369              	.L12:
 466:.\Generated_Source\PSoC5/USB.c ****         default:   /*USB_DWR_VDDD_OPERATION */
 467:.\Generated_Source\PSoC5/USB.c ****             #if(USB_VDDD_MV < USB_3500MV)
 468:.\Generated_Source\PSoC5/USB.c ****                 USB_CR1_REG = USB_CR1_ENABLE_LOCK;
 469:.\Generated_Source\PSoC5/USB.c ****             #else
 470:.\Generated_Source\PSoC5/USB.c ****                 USB_CR1_REG = USB_CR1_ENABLE_LOCK | USB_CR1_REG_ENABLE;
 370              		.loc 1 470 0
 371 0080 46F20903 		movw	r3, #:lower16:1073766409
 372 0084 C4F20003 		movt	r3, #:upper16:1073766409
 373 0088 4FF00302 		mov	r2, #3
 374 008c 1A70     		strb	r2, [r3, #0]
 375              	.L10:
 471:.\Generated_Source\PSoC5/USB.c ****             #endif /* End USB_VDDD_MV < USB_3500MV */
 472:.\Generated_Source\PSoC5/USB.c ****             break;
 473:.\Generated_Source\PSoC5/USB.c ****     }
 474:.\Generated_Source\PSoC5/USB.c **** 
 475:.\Generated_Source\PSoC5/USB.c ****     /* Record the descriptor selection */
 476:.\Generated_Source\PSoC5/USB.c ****     USB_device = device;
ARM GAS  C:\Users\Craig\AppData\Local\Temp\ccXI8V1u.s 			page 16


 376              		.loc 1 476 0
 377 008e 40F20003 		movw	r3, #:lower16:USB_device
 378 0092 C0F20003 		movt	r3, #:upper16:USB_device
 379 0096 FA79     		ldrb	r2, [r7, #7]
 380 0098 1A70     		strb	r2, [r3, #0]
 477:.\Generated_Source\PSoC5/USB.c **** 
 478:.\Generated_Source\PSoC5/USB.c ****     /* Clear all of the component data */
 479:.\Generated_Source\PSoC5/USB.c ****     USB_configuration = 0u;
 381              		.loc 1 479 0
 382 009a 40F20003 		movw	r3, #:lower16:USB_configuration
 383 009e C0F20003 		movt	r3, #:upper16:USB_configuration
 384 00a2 4FF00002 		mov	r2, #0
 385 00a6 1A70     		strb	r2, [r3, #0]
 480:.\Generated_Source\PSoC5/USB.c ****     USB_interfaceNumber = 0u;
 386              		.loc 1 480 0
 387 00a8 40F20003 		movw	r3, #:lower16:USB_interfaceNumber
 388 00ac C0F20003 		movt	r3, #:upper16:USB_interfaceNumber
 389 00b0 4FF00002 		mov	r2, #0
 390 00b4 1A70     		strb	r2, [r3, #0]
 481:.\Generated_Source\PSoC5/USB.c ****     USB_configurationChanged = 0u;
 391              		.loc 1 481 0
 392 00b6 40F20003 		movw	r3, #:lower16:USB_configurationChanged
 393 00ba C0F20003 		movt	r3, #:upper16:USB_configurationChanged
 394 00be 4FF00002 		mov	r2, #0
 395 00c2 1A70     		strb	r2, [r3, #0]
 482:.\Generated_Source\PSoC5/USB.c ****     USB_deviceAddress  = 0u;
 396              		.loc 1 482 0
 397 00c4 40F20003 		movw	r3, #:lower16:USB_deviceAddress
 398 00c8 C0F20003 		movt	r3, #:upper16:USB_deviceAddress
 399 00cc 4FF00002 		mov	r2, #0
 400 00d0 1A70     		strb	r2, [r3, #0]
 483:.\Generated_Source\PSoC5/USB.c ****     USB_deviceStatus = 0u;
 401              		.loc 1 483 0
 402 00d2 40F20003 		movw	r3, #:lower16:USB_deviceStatus
 403 00d6 C0F20003 		movt	r3, #:upper16:USB_deviceStatus
 404 00da 4FF00002 		mov	r2, #0
 405 00de 1A70     		strb	r2, [r3, #0]
 484:.\Generated_Source\PSoC5/USB.c **** 
 485:.\Generated_Source\PSoC5/USB.c ****     USB_lastPacketSize = 0u;
 406              		.loc 1 485 0
 407 00e0 40F20003 		movw	r3, #:lower16:USB_lastPacketSize
 408 00e4 C0F20003 		movt	r3, #:upper16:USB_lastPacketSize
 409 00e8 4FF00002 		mov	r2, #0
 410 00ec 1A70     		strb	r2, [r3, #0]
 486:.\Generated_Source\PSoC5/USB.c **** 
 487:.\Generated_Source\PSoC5/USB.c ****     /*  ACK Setup, Stall IN/OUT */
 488:.\Generated_Source\PSoC5/USB.c ****     CY_SET_REG8(USB_EP0_CR_PTR, USB_MODE_STALL_IN_OUT);
 411              		.loc 1 488 0
 412 00ee 46F22803 		movw	r3, #:lower16:1073766440
 413 00f2 C4F20003 		movt	r3, #:upper16:1073766440
 414 00f6 4FF00302 		mov	r2, #3
 415 00fa 1A70     		strb	r2, [r3, #0]
 489:.\Generated_Source\PSoC5/USB.c **** 
 490:.\Generated_Source\PSoC5/USB.c ****     /* Enable the SIE with an address 0 */
 491:.\Generated_Source\PSoC5/USB.c ****     CY_SET_REG8(USB_CR0_PTR, USB_CR0_ENABLE);
 416              		.loc 1 491 0
 417 00fc 46F20803 		movw	r3, #:lower16:1073766408
ARM GAS  C:\Users\Craig\AppData\Local\Temp\ccXI8V1u.s 			page 17


 418 0100 C4F20003 		movt	r3, #:upper16:1073766408
 419 0104 6FF07F02 		mvn	r2, #127
 420 0108 1A70     		strb	r2, [r3, #0]
 492:.\Generated_Source\PSoC5/USB.c **** 
 493:.\Generated_Source\PSoC5/USB.c ****     /* Workarond for PSOC5LP */
 494:.\Generated_Source\PSoC5/USB.c ****     CyDelayCycles(1);
 421              		.loc 1 494 0
 422 010a 4FF00100 		mov	r0, #1
 423 010e FFF7FEFF 		bl	CyDelayCycles
 495:.\Generated_Source\PSoC5/USB.c ****     
 496:.\Generated_Source\PSoC5/USB.c ****     /* Finally, Enable d+ pullup and select iomode to USB mode*/
 497:.\Generated_Source\PSoC5/USB.c ****     CY_SET_REG8(USB_USBIO_CR1_PTR, USB_USBIO_CR1_USBPUEN);
 424              		.loc 1 497 0
 425 0112 46F21203 		movw	r3, #:lower16:1073766418
 426 0116 C4F20003 		movt	r3, #:upper16:1073766418
 427 011a 4FF00402 		mov	r2, #4
 428 011e 1A70     		strb	r2, [r3, #0]
 498:.\Generated_Source\PSoC5/USB.c **** }
 429              		.loc 1 498 0
 430 0120 07F10807 		add	r7, r7, #8
 431 0124 BD46     		mov	sp, r7
 432 0126 80BD     		pop	{r7, pc}
 433              		.cfi_endproc
 434              	.LFE2:
 435              		.size	USB_InitComponent, .-USB_InitComponent
 436              		.section	.text.USB_ReInitComponent,"ax",%progbits
 437              		.align	2
 438              		.global	USB_ReInitComponent
 439              		.thumb
 440              		.thumb_func
 441              		.type	USB_ReInitComponent, %function
 442              	USB_ReInitComponent:
 443              	.LFB3:
 499:.\Generated_Source\PSoC5/USB.c **** 
 500:.\Generated_Source\PSoC5/USB.c **** 
 501:.\Generated_Source\PSoC5/USB.c **** /*******************************************************************************
 502:.\Generated_Source\PSoC5/USB.c **** * Function Name: USB_ReInitComponent
 503:.\Generated_Source\PSoC5/USB.c **** ********************************************************************************
 504:.\Generated_Source\PSoC5/USB.c **** *
 505:.\Generated_Source\PSoC5/USB.c **** * Summary:
 506:.\Generated_Source\PSoC5/USB.c **** *  This function reinitialize the component configuration and is
 507:.\Generated_Source\PSoC5/USB.c **** *  intend to be called from the Reset interrupt.
 508:.\Generated_Source\PSoC5/USB.c **** *
 509:.\Generated_Source\PSoC5/USB.c **** * Parameters:
 510:.\Generated_Source\PSoC5/USB.c **** *  None.
 511:.\Generated_Source\PSoC5/USB.c **** *
 512:.\Generated_Source\PSoC5/USB.c **** * Return:
 513:.\Generated_Source\PSoC5/USB.c **** *   None.
 514:.\Generated_Source\PSoC5/USB.c **** *
 515:.\Generated_Source\PSoC5/USB.c **** * Global variables:
 516:.\Generated_Source\PSoC5/USB.c **** *   USB_device: Contains the device number of the desired device 
 517:.\Generated_Source\PSoC5/USB.c **** *		descriptor. The device number can be found in the Device Descriptor Tab 
 518:.\Generated_Source\PSoC5/USB.c **** *       of "Configure" dialog, under the settings of desired Device Descriptor,
 519:.\Generated_Source\PSoC5/USB.c **** *       in the "Device Number" field.
 520:.\Generated_Source\PSoC5/USB.c **** *   USB_transferState: This variable used by the communication
 521:.\Generated_Source\PSoC5/USB.c **** *       functions to handle current transfer state. Initialized to
 522:.\Generated_Source\PSoC5/USB.c **** *       TRANS_STATE_IDLE in this API.
ARM GAS  C:\Users\Craig\AppData\Local\Temp\ccXI8V1u.s 			page 18


 523:.\Generated_Source\PSoC5/USB.c **** *   USB_configuration: Contains current configuration number
 524:.\Generated_Source\PSoC5/USB.c **** *       which is set by the Host using SET_CONFIGURATION request.
 525:.\Generated_Source\PSoC5/USB.c **** *       Initialized to zero in this API.
 526:.\Generated_Source\PSoC5/USB.c **** *   USB_deviceAddress: Contains current device address. This
 527:.\Generated_Source\PSoC5/USB.c **** *       variable is initialized to zero in this API. Host starts to communicate
 528:.\Generated_Source\PSoC5/USB.c **** *      to device with address 0 and then set it to whatever value using
 529:.\Generated_Source\PSoC5/USB.c **** *      SET_ADDRESS request.
 530:.\Generated_Source\PSoC5/USB.c **** *   USB_deviceStatus: initialized to 0.
 531:.\Generated_Source\PSoC5/USB.c **** *       This is two bit variable which contain power status in first bit
 532:.\Generated_Source\PSoC5/USB.c **** *       (DEVICE_STATUS_BUS_POWERED or DEVICE_STATUS_SELF_POWERED) and remote
 533:.\Generated_Source\PSoC5/USB.c **** *       wakeup status (DEVICE_STATUS_REMOTE_WAKEUP) in second bit.
 534:.\Generated_Source\PSoC5/USB.c **** *   USB_lastPacketSize initialized to 0;
 535:.\Generated_Source\PSoC5/USB.c **** *
 536:.\Generated_Source\PSoC5/USB.c **** * Reentrant:
 537:.\Generated_Source\PSoC5/USB.c **** *  No.
 538:.\Generated_Source\PSoC5/USB.c **** *
 539:.\Generated_Source\PSoC5/USB.c **** *******************************************************************************/
 540:.\Generated_Source\PSoC5/USB.c **** void USB_ReInitComponent() 
 541:.\Generated_Source\PSoC5/USB.c **** {
 444              		.loc 1 541 0
 445              		.cfi_startproc
 446              		@ args = 0, pretend = 0, frame = 0
 447              		@ frame_needed = 1, uses_anonymous_args = 0
 448              		@ link register save eliminated.
 449 0000 80B4     		push	{r7}
 450              	.LCFI9:
 451              		.cfi_def_cfa_offset 4
 452 0002 00AF     		add	r7, sp, #0
 453              		.cfi_offset 7, -4
 454              	.LCFI10:
 455              		.cfi_def_cfa_register 7
 542:.\Generated_Source\PSoC5/USB.c ****     /* Initialize _hidProtocol variable to comply with HID 7.2.6 Set_Protocol
 543:.\Generated_Source\PSoC5/USB.c ****     *  Request: "When initialized, all devices default to report protocol."
 544:.\Generated_Source\PSoC5/USB.c ****     */
 545:.\Generated_Source\PSoC5/USB.c ****     #if defined(USB_ENABLE_HID_CLASS)
 546:.\Generated_Source\PSoC5/USB.c ****         uint8 interface;
 547:.\Generated_Source\PSoC5/USB.c **** 
 548:.\Generated_Source\PSoC5/USB.c ****         for (interface = 0u; interface < USB_MAX_INTERFACES_NUMBER; interface++)
 549:.\Generated_Source\PSoC5/USB.c ****         {
 550:.\Generated_Source\PSoC5/USB.c ****             USB_hidProtocol[interface] = USB_PROTOCOL_REPORT;
 551:.\Generated_Source\PSoC5/USB.c ****         }
 552:.\Generated_Source\PSoC5/USB.c ****     #endif /* USB_ENABLE_HID_CLASS */
 553:.\Generated_Source\PSoC5/USB.c **** 
 554:.\Generated_Source\PSoC5/USB.c ****     USB_transferState = USB_TRANS_STATE_IDLE;
 456              		.loc 1 554 0
 457 0004 40F20003 		movw	r3, #:lower16:USB_transferState
 458 0008 C0F20003 		movt	r3, #:upper16:USB_transferState
 459 000c 4FF00002 		mov	r2, #0
 460 0010 1A70     		strb	r2, [r3, #0]
 555:.\Generated_Source\PSoC5/USB.c **** 
 556:.\Generated_Source\PSoC5/USB.c ****     /* Clear all of the component data */
 557:.\Generated_Source\PSoC5/USB.c ****     USB_configuration = 0u;
 461              		.loc 1 557 0
 462 0012 40F20003 		movw	r3, #:lower16:USB_configuration
 463 0016 C0F20003 		movt	r3, #:upper16:USB_configuration
 464 001a 4FF00002 		mov	r2, #0
 465 001e 1A70     		strb	r2, [r3, #0]
ARM GAS  C:\Users\Craig\AppData\Local\Temp\ccXI8V1u.s 			page 19


 558:.\Generated_Source\PSoC5/USB.c ****     USB_interfaceNumber = 0u;
 466              		.loc 1 558 0
 467 0020 40F20003 		movw	r3, #:lower16:USB_interfaceNumber
 468 0024 C0F20003 		movt	r3, #:upper16:USB_interfaceNumber
 469 0028 4FF00002 		mov	r2, #0
 470 002c 1A70     		strb	r2, [r3, #0]
 559:.\Generated_Source\PSoC5/USB.c ****     USB_configurationChanged = 0u;
 471              		.loc 1 559 0
 472 002e 40F20003 		movw	r3, #:lower16:USB_configurationChanged
 473 0032 C0F20003 		movt	r3, #:upper16:USB_configurationChanged
 474 0036 4FF00002 		mov	r2, #0
 475 003a 1A70     		strb	r2, [r3, #0]
 560:.\Generated_Source\PSoC5/USB.c ****     USB_deviceAddress  = 0u;
 476              		.loc 1 560 0
 477 003c 40F20003 		movw	r3, #:lower16:USB_deviceAddress
 478 0040 C0F20003 		movt	r3, #:upper16:USB_deviceAddress
 479 0044 4FF00002 		mov	r2, #0
 480 0048 1A70     		strb	r2, [r3, #0]
 561:.\Generated_Source\PSoC5/USB.c ****     USB_deviceStatus = 0u;
 481              		.loc 1 561 0
 482 004a 40F20003 		movw	r3, #:lower16:USB_deviceStatus
 483 004e C0F20003 		movt	r3, #:upper16:USB_deviceStatus
 484 0052 4FF00002 		mov	r2, #0
 485 0056 1A70     		strb	r2, [r3, #0]
 562:.\Generated_Source\PSoC5/USB.c **** 
 563:.\Generated_Source\PSoC5/USB.c ****     USB_lastPacketSize = 0u;
 486              		.loc 1 563 0
 487 0058 40F20003 		movw	r3, #:lower16:USB_lastPacketSize
 488 005c C0F20003 		movt	r3, #:upper16:USB_lastPacketSize
 489 0060 4FF00002 		mov	r2, #0
 490 0064 1A70     		strb	r2, [r3, #0]
 564:.\Generated_Source\PSoC5/USB.c **** 
 565:.\Generated_Source\PSoC5/USB.c **** 
 566:.\Generated_Source\PSoC5/USB.c ****     /*  ACK Setup, Stall IN/OUT */
 567:.\Generated_Source\PSoC5/USB.c ****     CY_SET_REG8(USB_EP0_CR_PTR, USB_MODE_STALL_IN_OUT);
 491              		.loc 1 567 0
 492 0066 46F22803 		movw	r3, #:lower16:1073766440
 493 006a C4F20003 		movt	r3, #:upper16:1073766440
 494 006e 4FF00302 		mov	r2, #3
 495 0072 1A70     		strb	r2, [r3, #0]
 568:.\Generated_Source\PSoC5/USB.c **** 
 569:.\Generated_Source\PSoC5/USB.c ****     /* Enable the SIE with an address 0 */
 570:.\Generated_Source\PSoC5/USB.c ****     CY_SET_REG8(USB_CR0_PTR, USB_CR0_ENABLE);
 496              		.loc 1 570 0
 497 0074 46F20803 		movw	r3, #:lower16:1073766408
 498 0078 C4F20003 		movt	r3, #:upper16:1073766408
 499 007c 6FF07F02 		mvn	r2, #127
 500 0080 1A70     		strb	r2, [r3, #0]
 571:.\Generated_Source\PSoC5/USB.c **** 
 572:.\Generated_Source\PSoC5/USB.c **** }
 501              		.loc 1 572 0
 502 0082 BD46     		mov	sp, r7
 503 0084 80BC     		pop	{r7}
 504 0086 7047     		bx	lr
 505              		.cfi_endproc
 506              	.LFE3:
 507              		.size	USB_ReInitComponent, .-USB_ReInitComponent
ARM GAS  C:\Users\Craig\AppData\Local\Temp\ccXI8V1u.s 			page 20


 508              		.section	.text.USB_Stop,"ax",%progbits
 509              		.align	2
 510              		.global	USB_Stop
 511              		.thumb
 512              		.thumb_func
 513              		.type	USB_Stop, %function
 514              	USB_Stop:
 515              	.LFB4:
 573:.\Generated_Source\PSoC5/USB.c **** 
 574:.\Generated_Source\PSoC5/USB.c **** 
 575:.\Generated_Source\PSoC5/USB.c **** /*******************************************************************************
 576:.\Generated_Source\PSoC5/USB.c **** * Function Name: USB_Stop
 577:.\Generated_Source\PSoC5/USB.c **** ********************************************************************************
 578:.\Generated_Source\PSoC5/USB.c **** *
 579:.\Generated_Source\PSoC5/USB.c **** * Summary:
 580:.\Generated_Source\PSoC5/USB.c **** *  This function shuts down the USB function including to release
 581:.\Generated_Source\PSoC5/USB.c **** *  the D+ Pullup and disabling the SIE.
 582:.\Generated_Source\PSoC5/USB.c **** *
 583:.\Generated_Source\PSoC5/USB.c **** * Parameters:
 584:.\Generated_Source\PSoC5/USB.c **** *  None.
 585:.\Generated_Source\PSoC5/USB.c **** *
 586:.\Generated_Source\PSoC5/USB.c **** * Return:
 587:.\Generated_Source\PSoC5/USB.c **** *  None.
 588:.\Generated_Source\PSoC5/USB.c **** *
 589:.\Generated_Source\PSoC5/USB.c **** * Global variables:
 590:.\Generated_Source\PSoC5/USB.c **** *   USB_configuration: Contains current configuration number
 591:.\Generated_Source\PSoC5/USB.c **** *       which is set by the Host using SET_CONFIGURATION request.
 592:.\Generated_Source\PSoC5/USB.c **** *       Initialized to zero in this API.
 593:.\Generated_Source\PSoC5/USB.c **** *   USB_deviceAddress: Contains current device address. This
 594:.\Generated_Source\PSoC5/USB.c **** *       variable is initialized to zero in this API. Host starts to communicate
 595:.\Generated_Source\PSoC5/USB.c **** *      to device with address 0 and then set it to whatever value using
 596:.\Generated_Source\PSoC5/USB.c **** *      SET_ADDRESS request.
 597:.\Generated_Source\PSoC5/USB.c **** *   USB_deviceStatus: initialized to 0.
 598:.\Generated_Source\PSoC5/USB.c **** *       This is two bit variable which contain power status in first bit
 599:.\Generated_Source\PSoC5/USB.c **** *       (DEVICE_STATUS_BUS_POWERED or DEVICE_STATUS_SELF_POWERED) and remote
 600:.\Generated_Source\PSoC5/USB.c **** *       wakeup status (DEVICE_STATUS_REMOTE_WAKEUP) in second bit.
 601:.\Generated_Source\PSoC5/USB.c **** *   USB_configurationChanged: This variable is set to one after
 602:.\Generated_Source\PSoC5/USB.c **** *       SET_CONFIGURATION request and cleared in this function.
 603:.\Generated_Source\PSoC5/USB.c **** *   USB_intiVar variable is set to zero
 604:.\Generated_Source\PSoC5/USB.c **** *
 605:.\Generated_Source\PSoC5/USB.c **** *******************************************************************************/
 606:.\Generated_Source\PSoC5/USB.c **** void USB_Stop(void) 
 607:.\Generated_Source\PSoC5/USB.c **** {
 516              		.loc 1 607 0
 517              		.cfi_startproc
 518              		@ args = 0, pretend = 0, frame = 0
 519              		@ frame_needed = 1, uses_anonymous_args = 0
 520              		@ link register save eliminated.
 521 0000 80B4     		push	{r7}
 522              	.LCFI11:
 523              		.cfi_def_cfa_offset 4
 524 0002 00AF     		add	r7, sp, #0
 525              		.cfi_offset 7, -4
 526              	.LCFI12:
 527              		.cfi_def_cfa_register 7
 608:.\Generated_Source\PSoC5/USB.c **** 
 609:.\Generated_Source\PSoC5/USB.c ****     #if(USB_EP_MM != USB__EP_MANUAL)
ARM GAS  C:\Users\Craig\AppData\Local\Temp\ccXI8V1u.s 			page 21


 610:.\Generated_Source\PSoC5/USB.c ****         USB_Stop_DMA(USB_MAX_EP);     /* Stop all DMAs */
 611:.\Generated_Source\PSoC5/USB.c ****     #endif   /* End USB_EP_MM != USB__EP_MANUAL */
 612:.\Generated_Source\PSoC5/USB.c **** 
 613:.\Generated_Source\PSoC5/USB.c ****     /* Disable the SIE */
 614:.\Generated_Source\PSoC5/USB.c ****     USB_CR0_REG &= ~USB_CR0_ENABLE;
 528              		.loc 1 614 0
 529 0004 46F20803 		movw	r3, #:lower16:1073766408
 530 0008 C4F20003 		movt	r3, #:upper16:1073766408
 531 000c 46F20802 		movw	r2, #:lower16:1073766408
 532 0010 C4F20002 		movt	r2, #:upper16:1073766408
 533 0014 1278     		ldrb	r2, [r2, #0]
 534 0016 D2B2     		uxtb	r2, r2
 535 0018 02F07F02 		and	r2, r2, #127
 536 001c 1A70     		strb	r2, [r3, #0]
 615:.\Generated_Source\PSoC5/USB.c ****     /* Disable the d+ pullup */
 616:.\Generated_Source\PSoC5/USB.c ****     USB_USBIO_CR1_REG &= ~USB_USBIO_CR1_USBPUEN;
 537              		.loc 1 616 0
 538 001e 46F21203 		movw	r3, #:lower16:1073766418
 539 0022 C4F20003 		movt	r3, #:upper16:1073766418
 540 0026 46F21202 		movw	r2, #:lower16:1073766418
 541 002a C4F20002 		movt	r2, #:upper16:1073766418
 542 002e 1278     		ldrb	r2, [r2, #0]
 543 0030 D2B2     		uxtb	r2, r2
 544 0032 02F0FB02 		and	r2, r2, #251
 545 0036 1A70     		strb	r2, [r3, #0]
 617:.\Generated_Source\PSoC5/USB.c ****     #if(CY_PSOC5A)
 618:.\Generated_Source\PSoC5/USB.c ****         /* Disable USBIO block*/
 619:.\Generated_Source\PSoC5/USB.c ****         USB_PM_AVAIL_CR_REG &= ~USB_PM_AVAIL_EN_FSUSBIO;
 620:.\Generated_Source\PSoC5/USB.c ****     #endif /* End CY_PSOC5A */    
 621:.\Generated_Source\PSoC5/USB.c ****     /* Disable USB in ACT PM */
 622:.\Generated_Source\PSoC5/USB.c ****     USB_PM_ACT_CFG_REG &= ~USB_PM_ACT_EN_FSUSB;
 546              		.loc 1 622 0
 547 0038 44F2A533 		movw	r3, #:lower16:1073759141
 548 003c C4F20003 		movt	r3, #:upper16:1073759141
 549 0040 44F2A532 		movw	r2, #:lower16:1073759141
 550 0044 C4F20002 		movt	r2, #:upper16:1073759141
 551 0048 1278     		ldrb	r2, [r2, #0]
 552 004a D2B2     		uxtb	r2, r2
 553 004c 02F0FE02 		and	r2, r2, #254
 554 0050 1A70     		strb	r2, [r3, #0]
 623:.\Generated_Source\PSoC5/USB.c ****     /* Disable USB block for Standby Power Mode */
 624:.\Generated_Source\PSoC5/USB.c ****     USB_PM_STBY_CFG_REG &= ~USB_PM_STBY_EN_FSUSB;
 555              		.loc 1 624 0
 556 0052 44F2B533 		movw	r3, #:lower16:1073759157
 557 0056 C4F20003 		movt	r3, #:upper16:1073759157
 558 005a 44F2B532 		movw	r2, #:lower16:1073759157
 559 005e C4F20002 		movt	r2, #:upper16:1073759157
 560 0062 1278     		ldrb	r2, [r2, #0]
 561 0064 D2B2     		uxtb	r2, r2
 562 0066 02F0FE02 		and	r2, r2, #254
 563 006a 1A70     		strb	r2, [r3, #0]
 625:.\Generated_Source\PSoC5/USB.c **** 
 626:.\Generated_Source\PSoC5/USB.c ****     /* Disable the reset and EP interrupts */
 627:.\Generated_Source\PSoC5/USB.c ****     CyIntDisable(USB_BUS_RESET_VECT_NUM);
 564              		.loc 1 627 0
 565 006c 4EF28013 		movw	r3, #:lower16:-536813184
 566 0070 CEF20003 		movt	r3, #:upper16:-536813184
ARM GAS  C:\Users\Craig\AppData\Local\Temp\ccXI8V1u.s 			page 22


 567 0074 4FF40002 		mov	r2, #8388608
 568 0078 1A60     		str	r2, [r3, #0]
 628:.\Generated_Source\PSoC5/USB.c ****     CyIntDisable(USB_EP_0_VECT_NUM);
 569              		.loc 1 628 0
 570 007a 4EF28013 		movw	r3, #:lower16:-536813184
 571 007e CEF20003 		movt	r3, #:upper16:-536813184
 572 0082 4FF08072 		mov	r2, #16777216
 573 0086 1A60     		str	r2, [r3, #0]
 629:.\Generated_Source\PSoC5/USB.c ****     #if(USB_EP1_ISR_REMOVE == 0u)
 630:.\Generated_Source\PSoC5/USB.c ****         CyIntDisable(USB_EP_1_VECT_NUM);
 574              		.loc 1 630 0
 575 0088 4EF28013 		movw	r3, #:lower16:-536813184
 576 008c CEF20003 		movt	r3, #:upper16:-536813184
 577 0090 4FF00102 		mov	r2, #1
 578 0094 1A60     		str	r2, [r3, #0]
 631:.\Generated_Source\PSoC5/USB.c ****     #endif   /* End USB_EP1_ISR_REMOVE */
 632:.\Generated_Source\PSoC5/USB.c ****     #if(USB_EP2_ISR_REMOVE == 0u)
 633:.\Generated_Source\PSoC5/USB.c ****         CyIntDisable(USB_EP_2_VECT_NUM);
 579              		.loc 1 633 0
 580 0096 4EF28013 		movw	r3, #:lower16:-536813184
 581 009a CEF20003 		movt	r3, #:upper16:-536813184
 582 009e 4FF00202 		mov	r2, #2
 583 00a2 1A60     		str	r2, [r3, #0]
 634:.\Generated_Source\PSoC5/USB.c ****     #endif   /* End USB_EP2_ISR_REMOVE */
 635:.\Generated_Source\PSoC5/USB.c ****     #if(USB_EP3_ISR_REMOVE == 0u)
 636:.\Generated_Source\PSoC5/USB.c ****         CyIntDisable(USB_EP_3_VECT_NUM);
 637:.\Generated_Source\PSoC5/USB.c ****     #endif   /* End USB_EP3_ISR_REMOVE */
 638:.\Generated_Source\PSoC5/USB.c ****     #if(USB_EP4_ISR_REMOVE == 0u)
 639:.\Generated_Source\PSoC5/USB.c ****         CyIntDisable(USB_EP_4_VECT_NUM);
 640:.\Generated_Source\PSoC5/USB.c ****     #endif   /* End USB_EP4_ISR_REMOVE */
 641:.\Generated_Source\PSoC5/USB.c ****     #if(USB_EP5_ISR_REMOVE == 0u)
 642:.\Generated_Source\PSoC5/USB.c ****         CyIntDisable(USB_EP_5_VECT_NUM);
 643:.\Generated_Source\PSoC5/USB.c ****     #endif   /* End USB_EP5_ISR_REMOVE */
 644:.\Generated_Source\PSoC5/USB.c ****     #if(USB_EP6_ISR_REMOVE == 0u)
 645:.\Generated_Source\PSoC5/USB.c ****         CyIntDisable(USB_EP_6_VECT_NUM);
 646:.\Generated_Source\PSoC5/USB.c ****     #endif   /* End USB_EP6_ISR_REMOVE */
 647:.\Generated_Source\PSoC5/USB.c ****     #if(USB_EP7_ISR_REMOVE == 0u)
 648:.\Generated_Source\PSoC5/USB.c ****         CyIntDisable(USB_EP_7_VECT_NUM);
 649:.\Generated_Source\PSoC5/USB.c ****     #endif   /* End USB_EP7_ISR_REMOVE */
 650:.\Generated_Source\PSoC5/USB.c ****     #if(USB_EP8_ISR_REMOVE == 0u)
 651:.\Generated_Source\PSoC5/USB.c ****         CyIntDisable(USB_EP_8_VECT_NUM);
 652:.\Generated_Source\PSoC5/USB.c ****     #endif   /* End USB_EP8_ISR_REMOVE */
 653:.\Generated_Source\PSoC5/USB.c **** 
 654:.\Generated_Source\PSoC5/USB.c ****     /* Clear all of the component data */
 655:.\Generated_Source\PSoC5/USB.c ****     USB_configuration = 0u;
 584              		.loc 1 655 0
 585 00a4 40F20003 		movw	r3, #:lower16:USB_configuration
 586 00a8 C0F20003 		movt	r3, #:upper16:USB_configuration
 587 00ac 4FF00002 		mov	r2, #0
 588 00b0 1A70     		strb	r2, [r3, #0]
 656:.\Generated_Source\PSoC5/USB.c ****     USB_interfaceNumber = 0u;
 589              		.loc 1 656 0
 590 00b2 40F20003 		movw	r3, #:lower16:USB_interfaceNumber
 591 00b6 C0F20003 		movt	r3, #:upper16:USB_interfaceNumber
 592 00ba 4FF00002 		mov	r2, #0
 593 00be 1A70     		strb	r2, [r3, #0]
 657:.\Generated_Source\PSoC5/USB.c ****     USB_configurationChanged = 0u;
ARM GAS  C:\Users\Craig\AppData\Local\Temp\ccXI8V1u.s 			page 23


 594              		.loc 1 657 0
 595 00c0 40F20003 		movw	r3, #:lower16:USB_configurationChanged
 596 00c4 C0F20003 		movt	r3, #:upper16:USB_configurationChanged
 597 00c8 4FF00002 		mov	r2, #0
 598 00cc 1A70     		strb	r2, [r3, #0]
 658:.\Generated_Source\PSoC5/USB.c ****     USB_deviceAddress  = 0u;
 599              		.loc 1 658 0
 600 00ce 40F20003 		movw	r3, #:lower16:USB_deviceAddress
 601 00d2 C0F20003 		movt	r3, #:upper16:USB_deviceAddress
 602 00d6 4FF00002 		mov	r2, #0
 603 00da 1A70     		strb	r2, [r3, #0]
 659:.\Generated_Source\PSoC5/USB.c ****     USB_deviceStatus = 0u;
 604              		.loc 1 659 0
 605 00dc 40F20003 		movw	r3, #:lower16:USB_deviceStatus
 606 00e0 C0F20003 		movt	r3, #:upper16:USB_deviceStatus
 607 00e4 4FF00002 		mov	r2, #0
 608 00e8 1A70     		strb	r2, [r3, #0]
 660:.\Generated_Source\PSoC5/USB.c ****     USB_initVar = 0u;
 609              		.loc 1 660 0
 610 00ea 40F20003 		movw	r3, #:lower16:USB_initVar
 611 00ee C0F20003 		movt	r3, #:upper16:USB_initVar
 612 00f2 4FF00002 		mov	r2, #0
 613 00f6 1A70     		strb	r2, [r3, #0]
 661:.\Generated_Source\PSoC5/USB.c **** 
 662:.\Generated_Source\PSoC5/USB.c **** }
 614              		.loc 1 662 0
 615 00f8 BD46     		mov	sp, r7
 616 00fa 80BC     		pop	{r7}
 617 00fc 7047     		bx	lr
 618              		.cfi_endproc
 619              	.LFE4:
 620              		.size	USB_Stop, .-USB_Stop
 621 00fe 00BF     		.section	.text.USB_CheckActivity,"ax",%progbits
 622              		.align	2
 623              		.global	USB_CheckActivity
 624              		.thumb
 625              		.thumb_func
 626              		.type	USB_CheckActivity, %function
 627              	USB_CheckActivity:
 628              	.LFB5:
 663:.\Generated_Source\PSoC5/USB.c **** 
 664:.\Generated_Source\PSoC5/USB.c **** 
 665:.\Generated_Source\PSoC5/USB.c **** /*******************************************************************************
 666:.\Generated_Source\PSoC5/USB.c **** * Function Name: USB_CheckActivity
 667:.\Generated_Source\PSoC5/USB.c **** ********************************************************************************
 668:.\Generated_Source\PSoC5/USB.c **** *
 669:.\Generated_Source\PSoC5/USB.c **** * Summary:
 670:.\Generated_Source\PSoC5/USB.c **** *  Returns the activity status of the bus.  Clears the status hardware to
 671:.\Generated_Source\PSoC5/USB.c **** *  provide fresh activity status on the next call of this routine.
 672:.\Generated_Source\PSoC5/USB.c **** *
 673:.\Generated_Source\PSoC5/USB.c **** * Parameters:
 674:.\Generated_Source\PSoC5/USB.c **** *  None.
 675:.\Generated_Source\PSoC5/USB.c **** *
 676:.\Generated_Source\PSoC5/USB.c **** * Return:
 677:.\Generated_Source\PSoC5/USB.c **** *  1 - If bus activity was detected since the last call to this function
 678:.\Generated_Source\PSoC5/USB.c **** *  0 - If bus activity not was detected since the last call to this function
 679:.\Generated_Source\PSoC5/USB.c **** *
ARM GAS  C:\Users\Craig\AppData\Local\Temp\ccXI8V1u.s 			page 24


 680:.\Generated_Source\PSoC5/USB.c **** *******************************************************************************/
 681:.\Generated_Source\PSoC5/USB.c **** uint8 USB_CheckActivity(void) 
 682:.\Generated_Source\PSoC5/USB.c **** {
 629              		.loc 1 682 0
 630              		.cfi_startproc
 631              		@ args = 0, pretend = 0, frame = 8
 632              		@ frame_needed = 1, uses_anonymous_args = 0
 633              		@ link register save eliminated.
 634 0000 80B4     		push	{r7}
 635              	.LCFI13:
 636              		.cfi_def_cfa_offset 4
 637 0002 83B0     		sub	sp, sp, #12
 638              	.LCFI14:
 639              		.cfi_def_cfa_offset 16
 640 0004 00AF     		add	r7, sp, #0
 641              		.cfi_offset 7, -4
 642              	.LCFI15:
 643              		.cfi_def_cfa_register 7
 683:.\Generated_Source\PSoC5/USB.c ****     uint8 r;
 684:.\Generated_Source\PSoC5/USB.c **** 
 685:.\Generated_Source\PSoC5/USB.c ****     r = CY_GET_REG8(USB_CR1_PTR);
 644              		.loc 1 685 0
 645 0006 46F20903 		movw	r3, #:lower16:1073766409
 646 000a C4F20003 		movt	r3, #:upper16:1073766409
 647 000e 1B78     		ldrb	r3, [r3, #0]
 648 0010 FB71     		strb	r3, [r7, #7]
 686:.\Generated_Source\PSoC5/USB.c ****     CY_SET_REG8(USB_CR1_PTR, (r & ~USB_CR1_BUS_ACTIVITY));
 649              		.loc 1 686 0
 650 0012 46F20903 		movw	r3, #:lower16:1073766409
 651 0016 C4F20003 		movt	r3, #:upper16:1073766409
 652 001a FA79     		ldrb	r2, [r7, #7]	@ zero_extendqisi2
 653 001c 02F0FB02 		and	r2, r2, #251
 654 0020 1A70     		strb	r2, [r3, #0]
 687:.\Generated_Source\PSoC5/USB.c **** 
 688:.\Generated_Source\PSoC5/USB.c ****     return((r & USB_CR1_BUS_ACTIVITY) >> USB_CR1_BUS_ACTIVITY_SHIFT);
 655              		.loc 1 688 0
 656 0022 FB79     		ldrb	r3, [r7, #7]	@ zero_extendqisi2
 657 0024 03F00403 		and	r3, r3, #4
 658 0028 4FEA9303 		lsr	r3, r3, #2
 659 002c DBB2     		uxtb	r3, r3
 689:.\Generated_Source\PSoC5/USB.c **** }
 660              		.loc 1 689 0
 661 002e 1846     		mov	r0, r3
 662 0030 07F10C07 		add	r7, r7, #12
 663 0034 BD46     		mov	sp, r7
 664 0036 80BC     		pop	{r7}
 665 0038 7047     		bx	lr
 666              		.cfi_endproc
 667              	.LFE5:
 668              		.size	USB_CheckActivity, .-USB_CheckActivity
 669 003a 00BF     		.section	.text.USB_GetConfiguration,"ax",%progbits
 670              		.align	2
 671              		.global	USB_GetConfiguration
 672              		.thumb
 673              		.thumb_func
 674              		.type	USB_GetConfiguration, %function
 675              	USB_GetConfiguration:
ARM GAS  C:\Users\Craig\AppData\Local\Temp\ccXI8V1u.s 			page 25


 676              	.LFB6:
 690:.\Generated_Source\PSoC5/USB.c **** 
 691:.\Generated_Source\PSoC5/USB.c **** 
 692:.\Generated_Source\PSoC5/USB.c **** /*******************************************************************************
 693:.\Generated_Source\PSoC5/USB.c **** * Function Name: USB_GetConfiguration
 694:.\Generated_Source\PSoC5/USB.c **** ********************************************************************************
 695:.\Generated_Source\PSoC5/USB.c **** *
 696:.\Generated_Source\PSoC5/USB.c **** * Summary:
 697:.\Generated_Source\PSoC5/USB.c **** *  Returns the current configuration setting
 698:.\Generated_Source\PSoC5/USB.c **** *
 699:.\Generated_Source\PSoC5/USB.c **** * Parameters:
 700:.\Generated_Source\PSoC5/USB.c **** *  None.
 701:.\Generated_Source\PSoC5/USB.c **** *
 702:.\Generated_Source\PSoC5/USB.c **** * Return:
 703:.\Generated_Source\PSoC5/USB.c **** *  configuration.
 704:.\Generated_Source\PSoC5/USB.c **** *
 705:.\Generated_Source\PSoC5/USB.c **** *******************************************************************************/
 706:.\Generated_Source\PSoC5/USB.c **** uint8 USB_GetConfiguration(void) 
 707:.\Generated_Source\PSoC5/USB.c **** {
 677              		.loc 1 707 0
 678              		.cfi_startproc
 679              		@ args = 0, pretend = 0, frame = 0
 680              		@ frame_needed = 1, uses_anonymous_args = 0
 681              		@ link register save eliminated.
 682 0000 80B4     		push	{r7}
 683              	.LCFI16:
 684              		.cfi_def_cfa_offset 4
 685 0002 00AF     		add	r7, sp, #0
 686              		.cfi_offset 7, -4
 687              	.LCFI17:
 688              		.cfi_def_cfa_register 7
 708:.\Generated_Source\PSoC5/USB.c ****     return(USB_configuration);
 689              		.loc 1 708 0
 690 0004 40F20003 		movw	r3, #:lower16:USB_configuration
 691 0008 C0F20003 		movt	r3, #:upper16:USB_configuration
 692 000c 1B78     		ldrb	r3, [r3, #0]
 693 000e DBB2     		uxtb	r3, r3
 709:.\Generated_Source\PSoC5/USB.c **** }
 694              		.loc 1 709 0
 695 0010 1846     		mov	r0, r3
 696 0012 BD46     		mov	sp, r7
 697 0014 80BC     		pop	{r7}
 698 0016 7047     		bx	lr
 699              		.cfi_endproc
 700              	.LFE6:
 701              		.size	USB_GetConfiguration, .-USB_GetConfiguration
 702              		.section	.text.USB_IsConfigurationChanged,"ax",%progbits
 703              		.align	2
 704              		.global	USB_IsConfigurationChanged
 705              		.thumb
 706              		.thumb_func
 707              		.type	USB_IsConfigurationChanged, %function
 708              	USB_IsConfigurationChanged:
 709              	.LFB7:
 710:.\Generated_Source\PSoC5/USB.c **** 
 711:.\Generated_Source\PSoC5/USB.c **** 
 712:.\Generated_Source\PSoC5/USB.c **** /*******************************************************************************
ARM GAS  C:\Users\Craig\AppData\Local\Temp\ccXI8V1u.s 			page 26


 713:.\Generated_Source\PSoC5/USB.c **** * Function Name: USB_IsConfigurationChanged
 714:.\Generated_Source\PSoC5/USB.c **** ********************************************************************************
 715:.\Generated_Source\PSoC5/USB.c **** *
 716:.\Generated_Source\PSoC5/USB.c **** * Summary:
 717:.\Generated_Source\PSoC5/USB.c **** *  Returns the clear on read configuration state. It is usefull when PC send
 718:.\Generated_Source\PSoC5/USB.c **** *  double SET_CONFIGURATION request with same configuration number.
 719:.\Generated_Source\PSoC5/USB.c **** *
 720:.\Generated_Source\PSoC5/USB.c **** * Parameters:
 721:.\Generated_Source\PSoC5/USB.c **** *  None.
 722:.\Generated_Source\PSoC5/USB.c **** *
 723:.\Generated_Source\PSoC5/USB.c **** * Return:
 724:.\Generated_Source\PSoC5/USB.c **** *  Not zero value when new configuration has been changed, otherwise zero is
 725:.\Generated_Source\PSoC5/USB.c **** *  returned.
 726:.\Generated_Source\PSoC5/USB.c **** *
 727:.\Generated_Source\PSoC5/USB.c **** * Global variables:
 728:.\Generated_Source\PSoC5/USB.c **** *   USB_configurationChanged: This variable is set to one after
 729:.\Generated_Source\PSoC5/USB.c **** *       SET_CONFIGURATION request and cleared in this function.
 730:.\Generated_Source\PSoC5/USB.c **** *
 731:.\Generated_Source\PSoC5/USB.c **** *******************************************************************************/
 732:.\Generated_Source\PSoC5/USB.c **** uint8 USB_IsConfigurationChanged(void) 
 733:.\Generated_Source\PSoC5/USB.c **** {
 710              		.loc 1 733 0
 711              		.cfi_startproc
 712              		@ args = 0, pretend = 0, frame = 8
 713              		@ frame_needed = 1, uses_anonymous_args = 0
 714              		@ link register save eliminated.
 715 0000 80B4     		push	{r7}
 716              	.LCFI18:
 717              		.cfi_def_cfa_offset 4
 718 0002 83B0     		sub	sp, sp, #12
 719              	.LCFI19:
 720              		.cfi_def_cfa_offset 16
 721 0004 00AF     		add	r7, sp, #0
 722              		.cfi_offset 7, -4
 723              	.LCFI20:
 724              		.cfi_def_cfa_register 7
 734:.\Generated_Source\PSoC5/USB.c ****     uint8 res = 0u;
 725              		.loc 1 734 0
 726 0006 4FF00003 		mov	r3, #0
 727 000a FB71     		strb	r3, [r7, #7]
 735:.\Generated_Source\PSoC5/USB.c **** 
 736:.\Generated_Source\PSoC5/USB.c ****     if(USB_configurationChanged != 0u)
 728              		.loc 1 736 0
 729 000c 40F20003 		movw	r3, #:lower16:USB_configurationChanged
 730 0010 C0F20003 		movt	r3, #:upper16:USB_configurationChanged
 731 0014 1B78     		ldrb	r3, [r3, #0]
 732 0016 DBB2     		uxtb	r3, r3
 733 0018 002B     		cmp	r3, #0
 734 001a 0CD0     		beq	.L22
 737:.\Generated_Source\PSoC5/USB.c ****     {
 738:.\Generated_Source\PSoC5/USB.c ****         res = USB_configurationChanged;
 735              		.loc 1 738 0
 736 001c 40F20003 		movw	r3, #:lower16:USB_configurationChanged
 737 0020 C0F20003 		movt	r3, #:upper16:USB_configurationChanged
 738 0024 1B78     		ldrb	r3, [r3, #0]
 739 0026 FB71     		strb	r3, [r7, #7]
 739:.\Generated_Source\PSoC5/USB.c ****         USB_configurationChanged = 0u;
ARM GAS  C:\Users\Craig\AppData\Local\Temp\ccXI8V1u.s 			page 27


 740              		.loc 1 739 0
 741 0028 40F20003 		movw	r3, #:lower16:USB_configurationChanged
 742 002c C0F20003 		movt	r3, #:upper16:USB_configurationChanged
 743 0030 4FF00002 		mov	r2, #0
 744 0034 1A70     		strb	r2, [r3, #0]
 745              	.L22:
 740:.\Generated_Source\PSoC5/USB.c ****     }
 741:.\Generated_Source\PSoC5/USB.c **** 
 742:.\Generated_Source\PSoC5/USB.c ****     return(res);
 746              		.loc 1 742 0
 747 0036 FB79     		ldrb	r3, [r7, #7]	@ zero_extendqisi2
 743:.\Generated_Source\PSoC5/USB.c **** }
 748              		.loc 1 743 0
 749 0038 1846     		mov	r0, r3
 750 003a 07F10C07 		add	r7, r7, #12
 751 003e BD46     		mov	sp, r7
 752 0040 80BC     		pop	{r7}
 753 0042 7047     		bx	lr
 754              		.cfi_endproc
 755              	.LFE7:
 756              		.size	USB_IsConfigurationChanged, .-USB_IsConfigurationChanged
 757              		.section	.text.USB_GetInterfaceSetting,"ax",%progbits
 758              		.align	2
 759              		.global	USB_GetInterfaceSetting
 760              		.thumb
 761              		.thumb_func
 762              		.type	USB_GetInterfaceSetting, %function
 763              	USB_GetInterfaceSetting:
 764              	.LFB8:
 744:.\Generated_Source\PSoC5/USB.c **** 
 745:.\Generated_Source\PSoC5/USB.c **** 
 746:.\Generated_Source\PSoC5/USB.c **** /*******************************************************************************
 747:.\Generated_Source\PSoC5/USB.c **** * Function Name: USB_GetInterfaceSetting
 748:.\Generated_Source\PSoC5/USB.c **** ********************************************************************************
 749:.\Generated_Source\PSoC5/USB.c **** *
 750:.\Generated_Source\PSoC5/USB.c **** * Summary:
 751:.\Generated_Source\PSoC5/USB.c **** *  Returns the alternate setting from current interface
 752:.\Generated_Source\PSoC5/USB.c **** *
 753:.\Generated_Source\PSoC5/USB.c **** * Parameters:
 754:.\Generated_Source\PSoC5/USB.c **** *  uint8 interfaceNumber, interface number
 755:.\Generated_Source\PSoC5/USB.c **** *
 756:.\Generated_Source\PSoC5/USB.c **** * Return:
 757:.\Generated_Source\PSoC5/USB.c **** *  Alternate setting.
 758:.\Generated_Source\PSoC5/USB.c **** *
 759:.\Generated_Source\PSoC5/USB.c **** *******************************************************************************/
 760:.\Generated_Source\PSoC5/USB.c **** uint8  USB_GetInterfaceSetting(uint8 interfaceNumber)
 761:.\Generated_Source\PSoC5/USB.c ****                                                     
 762:.\Generated_Source\PSoC5/USB.c **** {
 765              		.loc 1 762 0
 766              		.cfi_startproc
 767              		@ args = 0, pretend = 0, frame = 8
 768              		@ frame_needed = 1, uses_anonymous_args = 0
 769              		@ link register save eliminated.
 770 0000 80B4     		push	{r7}
 771              	.LCFI21:
 772              		.cfi_def_cfa_offset 4
 773 0002 83B0     		sub	sp, sp, #12
ARM GAS  C:\Users\Craig\AppData\Local\Temp\ccXI8V1u.s 			page 28


 774              	.LCFI22:
 775              		.cfi_def_cfa_offset 16
 776 0004 00AF     		add	r7, sp, #0
 777              		.cfi_offset 7, -4
 778              	.LCFI23:
 779              		.cfi_def_cfa_register 7
 780 0006 0346     		mov	r3, r0
 781 0008 FB71     		strb	r3, [r7, #7]
 763:.\Generated_Source\PSoC5/USB.c ****     return(USB_interfaceSetting[interfaceNumber]);
 782              		.loc 1 763 0
 783 000a FA79     		ldrb	r2, [r7, #7]	@ zero_extendqisi2
 784 000c 40F20003 		movw	r3, #:lower16:USB_interfaceSetting
 785 0010 C0F20003 		movt	r3, #:upper16:USB_interfaceSetting
 786 0014 9B5C     		ldrb	r3, [r3, r2]
 787 0016 DBB2     		uxtb	r3, r3
 764:.\Generated_Source\PSoC5/USB.c **** }
 788              		.loc 1 764 0
 789 0018 1846     		mov	r0, r3
 790 001a 07F10C07 		add	r7, r7, #12
 791 001e BD46     		mov	sp, r7
 792 0020 80BC     		pop	{r7}
 793 0022 7047     		bx	lr
 794              		.cfi_endproc
 795              	.LFE8:
 796              		.size	USB_GetInterfaceSetting, .-USB_GetInterfaceSetting
 797              		.section	.text.USB_GetEPState,"ax",%progbits
 798              		.align	2
 799              		.global	USB_GetEPState
 800              		.thumb
 801              		.thumb_func
 802              		.type	USB_GetEPState, %function
 803              	USB_GetEPState:
 804              	.LFB9:
 765:.\Generated_Source\PSoC5/USB.c **** 
 766:.\Generated_Source\PSoC5/USB.c **** 
 767:.\Generated_Source\PSoC5/USB.c **** /*******************************************************************************
 768:.\Generated_Source\PSoC5/USB.c **** * Function Name: USB_GetEPState
 769:.\Generated_Source\PSoC5/USB.c **** ********************************************************************************
 770:.\Generated_Source\PSoC5/USB.c **** *
 771:.\Generated_Source\PSoC5/USB.c **** * Summary:
 772:.\Generated_Source\PSoC5/USB.c **** *  Returned the state of the requested endpoint.
 773:.\Generated_Source\PSoC5/USB.c **** *
 774:.\Generated_Source\PSoC5/USB.c **** * Parameters:
 775:.\Generated_Source\PSoC5/USB.c **** *  epNumber: Endpoint Number
 776:.\Generated_Source\PSoC5/USB.c **** *
 777:.\Generated_Source\PSoC5/USB.c **** * Return:
 778:.\Generated_Source\PSoC5/USB.c **** *  State of the requested endpoint.
 779:.\Generated_Source\PSoC5/USB.c **** *
 780:.\Generated_Source\PSoC5/USB.c **** *******************************************************************************/
 781:.\Generated_Source\PSoC5/USB.c **** uint8 USB_GetEPState(uint8 epNumber) 
 782:.\Generated_Source\PSoC5/USB.c **** {
 805              		.loc 1 782 0
 806              		.cfi_startproc
 807              		@ args = 0, pretend = 0, frame = 8
 808              		@ frame_needed = 1, uses_anonymous_args = 0
 809              		@ link register save eliminated.
 810 0000 80B4     		push	{r7}
ARM GAS  C:\Users\Craig\AppData\Local\Temp\ccXI8V1u.s 			page 29


 811              	.LCFI24:
 812              		.cfi_def_cfa_offset 4
 813 0002 83B0     		sub	sp, sp, #12
 814              	.LCFI25:
 815              		.cfi_def_cfa_offset 16
 816 0004 00AF     		add	r7, sp, #0
 817              		.cfi_offset 7, -4
 818              	.LCFI26:
 819              		.cfi_def_cfa_register 7
 820 0006 0346     		mov	r3, r0
 821 0008 FB71     		strb	r3, [r7, #7]
 783:.\Generated_Source\PSoC5/USB.c ****     return(USB_EP[epNumber].apiEpState);
 822              		.loc 1 783 0
 823 000a F979     		ldrb	r1, [r7, #7]	@ zero_extendqisi2
 824 000c 40F20002 		movw	r2, #:lower16:USB_EP
 825 0010 C0F20002 		movt	r2, #:upper16:USB_EP
 826 0014 0B46     		mov	r3, r1
 827 0016 4FEA4303 		lsl	r3, r3, #1
 828 001a 0B44     		add	r3, r3, r1
 829 001c 4FEA8303 		lsl	r3, r3, #2
 830 0020 1344     		add	r3, r3, r2
 831 0022 5B78     		ldrb	r3, [r3, #1]
 832 0024 DBB2     		uxtb	r3, r3
 784:.\Generated_Source\PSoC5/USB.c **** }
 833              		.loc 1 784 0
 834 0026 1846     		mov	r0, r3
 835 0028 07F10C07 		add	r7, r7, #12
 836 002c BD46     		mov	sp, r7
 837 002e 80BC     		pop	{r7}
 838 0030 7047     		bx	lr
 839              		.cfi_endproc
 840              	.LFE9:
 841              		.size	USB_GetEPState, .-USB_GetEPState
 842 0032 00BF     		.section	.text.USB_GetEPCount,"ax",%progbits
 843              		.align	2
 844              		.global	USB_GetEPCount
 845              		.thumb
 846              		.thumb_func
 847              		.type	USB_GetEPCount, %function
 848              	USB_GetEPCount:
 849              	.LFB10:
 785:.\Generated_Source\PSoC5/USB.c **** 
 786:.\Generated_Source\PSoC5/USB.c **** 
 787:.\Generated_Source\PSoC5/USB.c **** /*******************************************************************************
 788:.\Generated_Source\PSoC5/USB.c **** * Function Name: USB_GetEPCount
 789:.\Generated_Source\PSoC5/USB.c **** ********************************************************************************
 790:.\Generated_Source\PSoC5/USB.c **** *
 791:.\Generated_Source\PSoC5/USB.c **** * Summary:
 792:.\Generated_Source\PSoC5/USB.c **** *  This function supports Data Endpoints only(EP1-EP8).
 793:.\Generated_Source\PSoC5/USB.c **** *  Returns the transfer count for the requested endpoint.  The value from
 794:.\Generated_Source\PSoC5/USB.c **** *  the count registers includes 2 counts for the two byte checksum of the
 795:.\Generated_Source\PSoC5/USB.c **** *  packet.  This function subtracts the two counts.
 796:.\Generated_Source\PSoC5/USB.c **** *
 797:.\Generated_Source\PSoC5/USB.c **** * Parameters:
 798:.\Generated_Source\PSoC5/USB.c **** *  epNumber: Data Endpoint Number.
 799:.\Generated_Source\PSoC5/USB.c **** *            Valid values are between 1 and 8.
 800:.\Generated_Source\PSoC5/USB.c **** *
ARM GAS  C:\Users\Craig\AppData\Local\Temp\ccXI8V1u.s 			page 30


 801:.\Generated_Source\PSoC5/USB.c **** * Return:
 802:.\Generated_Source\PSoC5/USB.c **** *  Returns the current byte count from the specified endpoin or 0 for an
 803:.\Generated_Source\PSoC5/USB.c **** *  invalid endpoint.
 804:.\Generated_Source\PSoC5/USB.c **** *
 805:.\Generated_Source\PSoC5/USB.c **** *******************************************************************************/
 806:.\Generated_Source\PSoC5/USB.c **** uint16 USB_GetEPCount(uint8 epNumber) 
 807:.\Generated_Source\PSoC5/USB.c **** {
 850              		.loc 1 807 0
 851              		.cfi_startproc
 852              		@ args = 0, pretend = 0, frame = 16
 853              		@ frame_needed = 1, uses_anonymous_args = 0
 854              		@ link register save eliminated.
 855 0000 80B4     		push	{r7}
 856              	.LCFI27:
 857              		.cfi_def_cfa_offset 4
 858 0002 85B0     		sub	sp, sp, #20
 859              	.LCFI28:
 860              		.cfi_def_cfa_offset 24
 861 0004 00AF     		add	r7, sp, #0
 862              		.cfi_offset 7, -4
 863              	.LCFI29:
 864              		.cfi_def_cfa_register 7
 865 0006 0346     		mov	r3, r0
 866 0008 FB71     		strb	r3, [r7, #7]
 808:.\Generated_Source\PSoC5/USB.c ****     uint8 ri;
 809:.\Generated_Source\PSoC5/USB.c ****     uint16 count = 0u;
 867              		.loc 1 809 0
 868 000a 4FF00003 		mov	r3, #0
 869 000e FB81     		strh	r3, [r7, #14]	@ movhi
 810:.\Generated_Source\PSoC5/USB.c **** 
 811:.\Generated_Source\PSoC5/USB.c ****     if((epNumber > USB_EP0) && (epNumber < USB_MAX_EP))
 870              		.loc 1 811 0
 871 0010 FB79     		ldrb	r3, [r7, #7]	@ zero_extendqisi2
 872 0012 002B     		cmp	r3, #0
 873 0014 24D0     		beq	.L29
 874 0016 FB79     		ldrb	r3, [r7, #7]	@ zero_extendqisi2
 875 0018 082B     		cmp	r3, #8
 876 001a 21D8     		bhi	.L29
 812:.\Generated_Source\PSoC5/USB.c ****     {
 813:.\Generated_Source\PSoC5/USB.c ****         ri = ((epNumber - USB_EP1) << USB_EPX_CNTX_ADDR_SHIFT);
 877              		.loc 1 813 0
 878 001c FB79     		ldrb	r3, [r7, #7]
 879 001e 03F1FF33 		add	r3, r3, #-1
 880 0022 DBB2     		uxtb	r3, r3
 881 0024 4FEA0313 		lsl	r3, r3, #4
 882 0028 7B73     		strb	r3, [r7, #13]
 814:.\Generated_Source\PSoC5/USB.c **** 
 815:.\Generated_Source\PSoC5/USB.c ****         count = ((uint16)((CY_GET_REG8(&USB_SIE_EP1_CNT0_PTR[ri]) & USB_EPX_CNT0_MASK) << 8u)
 883              		.loc 1 815 0
 884 002a 7A7B     		ldrb	r2, [r7, #13]	@ zero_extendqisi2
 885 002c 46F20C03 		movw	r3, #:lower16:1073766412
 886 0030 C4F20003 		movt	r3, #:upper16:1073766412
 887 0034 1344     		add	r3, r2, r3
 888 0036 1B78     		ldrb	r3, [r3, #0]
 889 0038 DBB2     		uxtb	r3, r3
 890 003a 03F00703 		and	r3, r3, #7
 891 003e 4FEA0323 		lsl	r3, r3, #8
ARM GAS  C:\Users\Craig\AppData\Local\Temp\ccXI8V1u.s 			page 31


 892 0042 9AB2     		uxth	r2, r3
 816:.\Generated_Source\PSoC5/USB.c ****                          | CY_GET_REG8(&USB_SIE_EP1_CNT1_PTR[ri]))
 893              		.loc 1 816 0
 894 0044 797B     		ldrb	r1, [r7, #13]	@ zero_extendqisi2
 895 0046 46F20D03 		movw	r3, #:lower16:1073766413
 896 004a C4F20003 		movt	r3, #:upper16:1073766413
 897 004e 0B44     		add	r3, r1, r3
 898 0050 1B78     		ldrb	r3, [r3, #0]
 899 0052 DBB2     		uxtb	r3, r3
 900              		.loc 1 815 0
 901 0054 42EA0303 		orr	r3, r2, r3
 902 0058 9BB2     		uxth	r3, r3
 903 005a A3F10203 		sub	r3, r3, #2
 904 005e FB81     		strh	r3, [r7, #14]	@ movhi
 905              	.L29:
 817:.\Generated_Source\PSoC5/USB.c ****                          - USB_EPX_CNTX_CRC_COUNT;
 818:.\Generated_Source\PSoC5/USB.c ****     }
 819:.\Generated_Source\PSoC5/USB.c ****     return(count);
 906              		.loc 1 819 0
 907 0060 FB89     		ldrh	r3, [r7, #14]
 820:.\Generated_Source\PSoC5/USB.c **** }
 908              		.loc 1 820 0
 909 0062 1846     		mov	r0, r3
 910 0064 07F11407 		add	r7, r7, #20
 911 0068 BD46     		mov	sp, r7
 912 006a 80BC     		pop	{r7}
 913 006c 7047     		bx	lr
 914              		.cfi_endproc
 915              	.LFE10:
 916              		.size	USB_GetEPCount, .-USB_GetEPCount
 917 006e 00BF     		.section	.text.USB_LoadInEP,"ax",%progbits
 918              		.align	2
 919              		.global	USB_LoadInEP
 920              		.thumb
 921              		.thumb_func
 922              		.type	USB_LoadInEP, %function
 923              	USB_LoadInEP:
 924              	.LFB11:
 821:.\Generated_Source\PSoC5/USB.c **** 
 822:.\Generated_Source\PSoC5/USB.c **** 
 823:.\Generated_Source\PSoC5/USB.c **** #if(USB_EP_MM != USB__EP_MANUAL)
 824:.\Generated_Source\PSoC5/USB.c **** 
 825:.\Generated_Source\PSoC5/USB.c **** 
 826:.\Generated_Source\PSoC5/USB.c ****     /*******************************************************************************
 827:.\Generated_Source\PSoC5/USB.c ****     * Function Name: USB_InitEP_DMA
 828:.\Generated_Source\PSoC5/USB.c ****     ********************************************************************************
 829:.\Generated_Source\PSoC5/USB.c ****     *
 830:.\Generated_Source\PSoC5/USB.c ****     * Summary: This function allocate and initializes a EP DMA chanel to be used
 831:.\Generated_Source\PSoC5/USB.c ****     *     by the USB_LoadInEP() or USB_ReadOutEP() APIs.
 832:.\Generated_Source\PSoC5/USB.c ****     *
 833:.\Generated_Source\PSoC5/USB.c ****     * Parameters:
 834:.\Generated_Source\PSoC5/USB.c ****     *  epNumber: Contains the data endpoint number.
 835:.\Generated_Source\PSoC5/USB.c ****     *            Valid values are between 1 and 8.
 836:.\Generated_Source\PSoC5/USB.c ****     *  *pData: A pointer to a data array which will be related to the EP transfers
 837:.\Generated_Source\PSoC5/USB.c ****     *
 838:.\Generated_Source\PSoC5/USB.c ****     * Return:
 839:.\Generated_Source\PSoC5/USB.c ****     *  None.
ARM GAS  C:\Users\Craig\AppData\Local\Temp\ccXI8V1u.s 			page 32


 840:.\Generated_Source\PSoC5/USB.c ****     *
 841:.\Generated_Source\PSoC5/USB.c ****     * Reentrant:
 842:.\Generated_Source\PSoC5/USB.c ****     *  No.
 843:.\Generated_Source\PSoC5/USB.c ****     *
 844:.\Generated_Source\PSoC5/USB.c ****     *******************************************************************************/
 845:.\Generated_Source\PSoC5/USB.c ****     void USB_InitEP_DMA(uint8 epNumber, uint8 *pData) 
 846:.\Generated_Source\PSoC5/USB.c ****     {
 847:.\Generated_Source\PSoC5/USB.c ****         uint16 src;
 848:.\Generated_Source\PSoC5/USB.c ****         uint16 dst;
 849:.\Generated_Source\PSoC5/USB.c ****         #if (defined(__C51__))          /* PSoC 3 - Source is Flash */
 850:.\Generated_Source\PSoC5/USB.c ****             src = HI16(CYDEV_SRAM_BASE);
 851:.\Generated_Source\PSoC5/USB.c ****             dst = HI16(CYDEV_PERIPH_BASE);
 852:.\Generated_Source\PSoC5/USB.c ****             pData = pData;
 853:.\Generated_Source\PSoC5/USB.c ****         #else                           /* PSoC 5 */
 854:.\Generated_Source\PSoC5/USB.c ****             if((USB_EP[epNumber].addr & USB_DIR_IN) != 0u )
 855:.\Generated_Source\PSoC5/USB.c ****             {   /* for the IN EP source is the flash memory buffer */
 856:.\Generated_Source\PSoC5/USB.c ****                 src = HI16(pData);
 857:.\Generated_Source\PSoC5/USB.c ****                 dst = HI16(CYDEV_PERIPH_BASE);
 858:.\Generated_Source\PSoC5/USB.c ****             }
 859:.\Generated_Source\PSoC5/USB.c ****             else
 860:.\Generated_Source\PSoC5/USB.c ****             {   /* for the OUT EP source is the SIE register */
 861:.\Generated_Source\PSoC5/USB.c ****                 src = HI16(CYDEV_PERIPH_BASE);
 862:.\Generated_Source\PSoC5/USB.c ****                 dst = HI16(pData);
 863:.\Generated_Source\PSoC5/USB.c ****             }
 864:.\Generated_Source\PSoC5/USB.c ****         #endif  /* End C51 */
 865:.\Generated_Source\PSoC5/USB.c ****         switch(epNumber)
 866:.\Generated_Source\PSoC5/USB.c ****         {
 867:.\Generated_Source\PSoC5/USB.c ****             case USB_EP1:
 868:.\Generated_Source\PSoC5/USB.c ****                 #if(USB_DMA1_REMOVE == 0u)
 869:.\Generated_Source\PSoC5/USB.c ****                     USB_DmaChan[epNumber] = USB_ep1_DmaInitialize(
 870:.\Generated_Source\PSoC5/USB.c ****                         USB_DMA_BYTES_PER_BURST, USB_DMA_REQUEST_PER_BURST, src, dst);
 871:.\Generated_Source\PSoC5/USB.c ****                 #endif   /* End USB_DMA1_REMOVE */
 872:.\Generated_Source\PSoC5/USB.c ****                 break;
 873:.\Generated_Source\PSoC5/USB.c ****             case USB_EP2:
 874:.\Generated_Source\PSoC5/USB.c ****                 #if(USB_DMA2_REMOVE == 0u)
 875:.\Generated_Source\PSoC5/USB.c ****                     USB_DmaChan[epNumber] = USB_ep2_DmaInitialize(
 876:.\Generated_Source\PSoC5/USB.c ****                         USB_DMA_BYTES_PER_BURST, USB_DMA_REQUEST_PER_BURST, src, dst);
 877:.\Generated_Source\PSoC5/USB.c ****                 #endif   /* End USB_DMA2_REMOVE */
 878:.\Generated_Source\PSoC5/USB.c ****                 break;
 879:.\Generated_Source\PSoC5/USB.c ****             case USB_EP3:
 880:.\Generated_Source\PSoC5/USB.c ****                 #if(USB_DMA3_REMOVE == 0u)
 881:.\Generated_Source\PSoC5/USB.c ****                     USB_DmaChan[epNumber] = USB_ep3_DmaInitialize(
 882:.\Generated_Source\PSoC5/USB.c ****                         USB_DMA_BYTES_PER_BURST, USB_DMA_REQUEST_PER_BURST, src, dst);
 883:.\Generated_Source\PSoC5/USB.c ****                 #endif   /* End USB_DMA3_REMOVE */
 884:.\Generated_Source\PSoC5/USB.c ****                 break;
 885:.\Generated_Source\PSoC5/USB.c ****             case USB_EP4:
 886:.\Generated_Source\PSoC5/USB.c ****                 #if(USB_DMA4_REMOVE == 0u)
 887:.\Generated_Source\PSoC5/USB.c ****                     USB_DmaChan[epNumber] = USB_ep4_DmaInitialize(
 888:.\Generated_Source\PSoC5/USB.c ****                         USB_DMA_BYTES_PER_BURST, USB_DMA_REQUEST_PER_BURST, src, dst);
 889:.\Generated_Source\PSoC5/USB.c ****                 #endif   /* End USB_DMA4_REMOVE */
 890:.\Generated_Source\PSoC5/USB.c ****                 break;
 891:.\Generated_Source\PSoC5/USB.c ****             case USB_EP5:
 892:.\Generated_Source\PSoC5/USB.c ****                 #if(USB_DMA5_REMOVE == 0u)
 893:.\Generated_Source\PSoC5/USB.c ****                     USB_DmaChan[epNumber] = USB_ep5_DmaInitialize(
 894:.\Generated_Source\PSoC5/USB.c ****                         USB_DMA_BYTES_PER_BURST, USB_DMA_REQUEST_PER_BURST, src, dst);
 895:.\Generated_Source\PSoC5/USB.c ****                 #endif   /* End USB_DMA5_REMOVE */
 896:.\Generated_Source\PSoC5/USB.c ****                 break;
ARM GAS  C:\Users\Craig\AppData\Local\Temp\ccXI8V1u.s 			page 33


 897:.\Generated_Source\PSoC5/USB.c ****             case USB_EP6:
 898:.\Generated_Source\PSoC5/USB.c ****                 #if(USB_DMA6_REMOVE == 0u)
 899:.\Generated_Source\PSoC5/USB.c ****                     USB_DmaChan[epNumber] = USB_ep6_DmaInitialize(
 900:.\Generated_Source\PSoC5/USB.c ****                         USB_DMA_BYTES_PER_BURST, USB_DMA_REQUEST_PER_BURST, src, dst);
 901:.\Generated_Source\PSoC5/USB.c ****                 #endif   /* End USB_DMA6_REMOVE */
 902:.\Generated_Source\PSoC5/USB.c ****                 break;
 903:.\Generated_Source\PSoC5/USB.c ****             case USB_EP7:
 904:.\Generated_Source\PSoC5/USB.c ****                 #if(USB_DMA7_REMOVE == 0u)
 905:.\Generated_Source\PSoC5/USB.c ****                     USB_DmaChan[epNumber] = USB_ep7_DmaInitialize(
 906:.\Generated_Source\PSoC5/USB.c ****                         USB_DMA_BYTES_PER_BURST, USB_DMA_REQUEST_PER_BURST, src, dst);
 907:.\Generated_Source\PSoC5/USB.c ****                 #endif   /* End USB_DMA7_REMOVE */
 908:.\Generated_Source\PSoC5/USB.c ****                 break;
 909:.\Generated_Source\PSoC5/USB.c ****             case USB_EP8:
 910:.\Generated_Source\PSoC5/USB.c ****                 #if(USB_DMA8_REMOVE == 0u)
 911:.\Generated_Source\PSoC5/USB.c ****                     USB_DmaChan[epNumber] = USB_ep8_DmaInitialize(
 912:.\Generated_Source\PSoC5/USB.c ****                         USB_DMA_BYTES_PER_BURST, USB_DMA_REQUEST_PER_BURST, src, dst);
 913:.\Generated_Source\PSoC5/USB.c ****                 #endif   /* End USB_DMA8_REMOVE */
 914:.\Generated_Source\PSoC5/USB.c ****                 break;
 915:.\Generated_Source\PSoC5/USB.c ****             default:
 916:.\Generated_Source\PSoC5/USB.c ****                 /* Do not support EP0 DMA transfers */
 917:.\Generated_Source\PSoC5/USB.c ****                 break;
 918:.\Generated_Source\PSoC5/USB.c ****         }
 919:.\Generated_Source\PSoC5/USB.c ****         if((epNumber > USB_EP0) && (epNumber < USB_MAX_EP))
 920:.\Generated_Source\PSoC5/USB.c ****         {
 921:.\Generated_Source\PSoC5/USB.c ****             USB_DmaTd[epNumber] = CyDmaTdAllocate();
 922:.\Generated_Source\PSoC5/USB.c ****         }
 923:.\Generated_Source\PSoC5/USB.c ****     }
 924:.\Generated_Source\PSoC5/USB.c **** 
 925:.\Generated_Source\PSoC5/USB.c **** 
 926:.\Generated_Source\PSoC5/USB.c ****     /*******************************************************************************
 927:.\Generated_Source\PSoC5/USB.c ****     * Function Name: USB_Stop_DMA
 928:.\Generated_Source\PSoC5/USB.c ****     ********************************************************************************
 929:.\Generated_Source\PSoC5/USB.c ****     *
 930:.\Generated_Source\PSoC5/USB.c ****     * Summary: Stops and free DMA
 931:.\Generated_Source\PSoC5/USB.c ****     *
 932:.\Generated_Source\PSoC5/USB.c ****     * Parameters:
 933:.\Generated_Source\PSoC5/USB.c ****     *  epNumber: Contains the data endpoint number or
 934:.\Generated_Source\PSoC5/USB.c ****     *           USB_MAX_EP to stop all DMAs
 935:.\Generated_Source\PSoC5/USB.c ****     *
 936:.\Generated_Source\PSoC5/USB.c ****     * Return:
 937:.\Generated_Source\PSoC5/USB.c ****     *  None.
 938:.\Generated_Source\PSoC5/USB.c ****     *
 939:.\Generated_Source\PSoC5/USB.c ****     * Reentrant:
 940:.\Generated_Source\PSoC5/USB.c ****     *  No.
 941:.\Generated_Source\PSoC5/USB.c ****     *
 942:.\Generated_Source\PSoC5/USB.c ****     *******************************************************************************/
 943:.\Generated_Source\PSoC5/USB.c ****     void USB_Stop_DMA(uint8 epNumber) 
 944:.\Generated_Source\PSoC5/USB.c ****     {
 945:.\Generated_Source\PSoC5/USB.c ****         uint8 i;
 946:.\Generated_Source\PSoC5/USB.c ****         i = (epNumber < USB_MAX_EP) ? epNumber : USB_EP1;
 947:.\Generated_Source\PSoC5/USB.c ****         do
 948:.\Generated_Source\PSoC5/USB.c ****         {
 949:.\Generated_Source\PSoC5/USB.c ****             if(USB_DmaTd[i] != DMA_INVALID_TD)
 950:.\Generated_Source\PSoC5/USB.c ****             {
 951:.\Generated_Source\PSoC5/USB.c ****                 CyDmaChDisable(USB_DmaChan[i]);
 952:.\Generated_Source\PSoC5/USB.c ****                 CyDmaTdFree(USB_DmaTd[i]);
 953:.\Generated_Source\PSoC5/USB.c ****                 USB_DmaTd[i] = DMA_INVALID_TD;
ARM GAS  C:\Users\Craig\AppData\Local\Temp\ccXI8V1u.s 			page 34


 954:.\Generated_Source\PSoC5/USB.c ****             }
 955:.\Generated_Source\PSoC5/USB.c ****             i++;
 956:.\Generated_Source\PSoC5/USB.c ****         }while((i < USB_MAX_EP) && (epNumber == USB_MAX_EP));
 957:.\Generated_Source\PSoC5/USB.c ****     }
 958:.\Generated_Source\PSoC5/USB.c **** 
 959:.\Generated_Source\PSoC5/USB.c **** #endif /* End USB_EP_MM != USB__EP_MANUAL */
 960:.\Generated_Source\PSoC5/USB.c **** 
 961:.\Generated_Source\PSoC5/USB.c **** 
 962:.\Generated_Source\PSoC5/USB.c **** /*******************************************************************************
 963:.\Generated_Source\PSoC5/USB.c **** * Function Name: USB_LoadInEP
 964:.\Generated_Source\PSoC5/USB.c **** ********************************************************************************
 965:.\Generated_Source\PSoC5/USB.c **** *
 966:.\Generated_Source\PSoC5/USB.c **** * Summary:
 967:.\Generated_Source\PSoC5/USB.c **** *  Loads and enables the specified USB data endpoint for an IN interrupt or bulk
 968:.\Generated_Source\PSoC5/USB.c **** *  transfer.
 969:.\Generated_Source\PSoC5/USB.c **** *
 970:.\Generated_Source\PSoC5/USB.c **** * Parameters:
 971:.\Generated_Source\PSoC5/USB.c **** *  epNumber: Contains the data endpoint number.
 972:.\Generated_Source\PSoC5/USB.c **** *            Valid values are between 1 and 8.
 973:.\Generated_Source\PSoC5/USB.c **** *  *pData: A pointer to a data array from which the data for the endpoint space
 974:.\Generated_Source\PSoC5/USB.c **** *          is loaded.
 975:.\Generated_Source\PSoC5/USB.c **** *  length: The number of bytes to transfer from the array and then send as a
 976:.\Generated_Source\PSoC5/USB.c **** *          result of an IN request. Valid values are between 0 and 512.
 977:.\Generated_Source\PSoC5/USB.c **** *
 978:.\Generated_Source\PSoC5/USB.c **** * Return:
 979:.\Generated_Source\PSoC5/USB.c **** *  None.
 980:.\Generated_Source\PSoC5/USB.c **** *
 981:.\Generated_Source\PSoC5/USB.c **** * Reentrant:
 982:.\Generated_Source\PSoC5/USB.c **** *  No.
 983:.\Generated_Source\PSoC5/USB.c **** *
 984:.\Generated_Source\PSoC5/USB.c **** *******************************************************************************/
 985:.\Generated_Source\PSoC5/USB.c **** void USB_LoadInEP(uint8 epNumber, uint8 *pData, uint16 length)
 986:.\Generated_Source\PSoC5/USB.c ****                                                                         
 987:.\Generated_Source\PSoC5/USB.c **** {
 925              		.loc 1 987 0
 926              		.cfi_startproc
 927              		@ args = 0, pretend = 0, frame = 32
 928              		@ frame_needed = 1, uses_anonymous_args = 0
 929              		@ link register save eliminated.
 930 0000 80B4     		push	{r7}
 931              	.LCFI30:
 932              		.cfi_def_cfa_offset 4
 933 0002 89B0     		sub	sp, sp, #36
 934              	.LCFI31:
 935              		.cfi_def_cfa_offset 40
 936 0004 00AF     		add	r7, sp, #0
 937              		.cfi_offset 7, -4
 938              	.LCFI32:
 939              		.cfi_def_cfa_register 7
 940 0006 B960     		str	r1, [r7, #8]
 941 0008 1346     		mov	r3, r2
 942 000a 0246     		mov	r2, r0
 943 000c FA73     		strb	r2, [r7, #15]
 944 000e FB80     		strh	r3, [r7, #6]	@ movhi
 988:.\Generated_Source\PSoC5/USB.c ****     uint8 ri;
 989:.\Generated_Source\PSoC5/USB.c ****     uint8 *p;
 990:.\Generated_Source\PSoC5/USB.c ****     #if(USB_EP_MM == USB__EP_MANUAL)
ARM GAS  C:\Users\Craig\AppData\Local\Temp\ccXI8V1u.s 			page 35


 991:.\Generated_Source\PSoC5/USB.c ****         uint16 i;
 992:.\Generated_Source\PSoC5/USB.c ****     #endif /* End USB_EP_MM == USB__EP_MANUAL */
 993:.\Generated_Source\PSoC5/USB.c **** 
 994:.\Generated_Source\PSoC5/USB.c ****     if((epNumber > USB_EP0) && (epNumber < USB_MAX_EP))
 945              		.loc 1 994 0
 946 0010 FB7B     		ldrb	r3, [r7, #15]	@ zero_extendqisi2
 947 0012 002B     		cmp	r3, #0
 948 0014 00F09A80 		beq	.L37
 949 0018 FB7B     		ldrb	r3, [r7, #15]	@ zero_extendqisi2
 950 001a 082B     		cmp	r3, #8
 951 001c 00F29680 		bhi	.L37
 995:.\Generated_Source\PSoC5/USB.c ****     {
 996:.\Generated_Source\PSoC5/USB.c ****         ri = ((epNumber - USB_EP1) << USB_EPX_CNTX_ADDR_SHIFT);
 952              		.loc 1 996 0
 953 0020 FB7B     		ldrb	r3, [r7, #15]
 954 0022 03F1FF33 		add	r3, r3, #-1
 955 0026 DBB2     		uxtb	r3, r3
 956 0028 4FEA0313 		lsl	r3, r3, #4
 957 002c FB75     		strb	r3, [r7, #23]
 997:.\Generated_Source\PSoC5/USB.c ****         p = (uint8 *)&USB_ARB_RW1_DR_PTR[ri];
 958              		.loc 1 997 0
 959 002e FA7D     		ldrb	r2, [r7, #23]	@ zero_extendqisi2
 960 0030 46F28803 		movw	r3, #:lower16:1073766536
 961 0034 C4F20003 		movt	r3, #:upper16:1073766536
 962 0038 1344     		add	r3, r2, r3
 963 003a BB61     		str	r3, [r7, #24]
 998:.\Generated_Source\PSoC5/USB.c **** 
 999:.\Generated_Source\PSoC5/USB.c ****         #if(USB_EP_MM != USB__EP_DMAAUTO)
1000:.\Generated_Source\PSoC5/USB.c ****             /* Limits length to available buffer space, auto MM could send packets up to 1024 bytes
1001:.\Generated_Source\PSoC5/USB.c ****             if(length > USB_EPX_DATA_BUF_MAX - USB_EP[epNumber].buffOffset)
 964              		.loc 1 1001 0
 965 003c F888     		ldrh	r0, [r7, #6]
 966 003e F97B     		ldrb	r1, [r7, #15]	@ zero_extendqisi2
 967 0040 40F20002 		movw	r2, #:lower16:USB_EP
 968 0044 C0F20002 		movt	r2, #:upper16:USB_EP
 969 0048 0B46     		mov	r3, r1
 970 004a 4FEA4303 		lsl	r3, r3, #1
 971 004e 0B44     		add	r3, r3, r1
 972 0050 4FEA8303 		lsl	r3, r3, #2
 973 0054 1344     		add	r3, r3, r2
 974 0056 03F10603 		add	r3, r3, #6
 975 005a 1B88     		ldrh	r3, [r3, #0]	@ movhi
 976 005c 9BB2     		uxth	r3, r3
 977 005e C3F50073 		rsb	r3, r3, #512
 978 0062 9842     		cmp	r0, r3
 979 0064 12D9     		bls	.L33
1002:.\Generated_Source\PSoC5/USB.c ****             {
1003:.\Generated_Source\PSoC5/USB.c ****                 length = USB_EPX_DATA_BUF_MAX - USB_EP[epNumber].buffOffset;
 980              		.loc 1 1003 0
 981 0066 F97B     		ldrb	r1, [r7, #15]	@ zero_extendqisi2
 982 0068 40F20002 		movw	r2, #:lower16:USB_EP
 983 006c C0F20002 		movt	r2, #:upper16:USB_EP
 984 0070 0B46     		mov	r3, r1
 985 0072 4FEA4303 		lsl	r3, r3, #1
 986 0076 0B44     		add	r3, r3, r1
 987 0078 4FEA8303 		lsl	r3, r3, #2
 988 007c 1344     		add	r3, r3, r2
ARM GAS  C:\Users\Craig\AppData\Local\Temp\ccXI8V1u.s 			page 36


 989 007e 03F10603 		add	r3, r3, #6
 990 0082 1B88     		ldrh	r3, [r3, #0]	@ movhi
 991 0084 9BB2     		uxth	r3, r3
 992 0086 C3F50073 		rsb	r3, r3, #512
 993 008a FB80     		strh	r3, [r7, #6]	@ movhi
 994              	.L33:
1004:.\Generated_Source\PSoC5/USB.c ****             }
1005:.\Generated_Source\PSoC5/USB.c ****         #endif /* End USB_EP_MM != USB__EP_DMAAUTO */
1006:.\Generated_Source\PSoC5/USB.c **** 
1007:.\Generated_Source\PSoC5/USB.c ****         /* Set the count and data toggle */
1008:.\Generated_Source\PSoC5/USB.c ****         CY_SET_REG8(&USB_SIE_EP1_CNT0_PTR[ri], (length >> 8u) | (USB_EP[epNumber].epToggle));
 995              		.loc 1 1008 0
 996 008c FA7D     		ldrb	r2, [r7, #23]	@ zero_extendqisi2
 997 008e 46F20C03 		movw	r3, #:lower16:1073766412
 998 0092 C4F20003 		movt	r3, #:upper16:1073766412
 999 0096 1344     		add	r3, r2, r3
 1000 0098 FA88     		ldrh	r2, [r7, #6]
 1001 009a 4FEA1222 		lsr	r2, r2, #8
 1002 009e 92B2     		uxth	r2, r2
 1003 00a0 5FFA82FC 		uxtb	ip, r2
 1004 00a4 F87B     		ldrb	r0, [r7, #15]	@ zero_extendqisi2
 1005 00a6 40F20001 		movw	r1, #:lower16:USB_EP
 1006 00aa C0F20001 		movt	r1, #:upper16:USB_EP
 1007 00ae 0246     		mov	r2, r0
 1008 00b0 4FEA4202 		lsl	r2, r2, #1
 1009 00b4 0244     		add	r2, r2, r0
 1010 00b6 4FEA8202 		lsl	r2, r2, #2
 1011 00ba 0A44     		add	r2, r2, r1
 1012 00bc D278     		ldrb	r2, [r2, #3]
 1013 00be D2B2     		uxtb	r2, r2
 1014 00c0 4CEA0202 		orr	r2, ip, r2
 1015 00c4 D2B2     		uxtb	r2, r2
 1016 00c6 1A70     		strb	r2, [r3, #0]
1009:.\Generated_Source\PSoC5/USB.c ****         CY_SET_REG8(&USB_SIE_EP1_CNT1_PTR[ri],  length & 0xFFu);
 1017              		.loc 1 1009 0
 1018 00c8 FA7D     		ldrb	r2, [r7, #23]	@ zero_extendqisi2
 1019 00ca 46F20D03 		movw	r3, #:lower16:1073766413
 1020 00ce C4F20003 		movt	r3, #:upper16:1073766413
 1021 00d2 1344     		add	r3, r2, r3
 1022 00d4 FA88     		ldrh	r2, [r7, #6]	@ movhi
 1023 00d6 D2B2     		uxtb	r2, r2
 1024 00d8 1A70     		strb	r2, [r3, #0]
1010:.\Generated_Source\PSoC5/USB.c **** 
1011:.\Generated_Source\PSoC5/USB.c ****         #if(USB_EP_MM == USB__EP_MANUAL)
1012:.\Generated_Source\PSoC5/USB.c ****             if(pData != NULL)
 1025              		.loc 1 1012 0
 1026 00da BB68     		ldr	r3, [r7, #8]
 1027 00dc 002B     		cmp	r3, #0
 1028 00de 11D0     		beq	.L34
1013:.\Generated_Source\PSoC5/USB.c ****             {
1014:.\Generated_Source\PSoC5/USB.c ****                 /* Copy the data using the arbiter data register */
1015:.\Generated_Source\PSoC5/USB.c ****                 for (i = 0u; i < length; i++)
 1029              		.loc 1 1015 0
 1030 00e0 4FF00003 		mov	r3, #0
 1031 00e4 FB83     		strh	r3, [r7, #30]	@ movhi
 1032 00e6 09E0     		b	.L35
 1033              	.L36:
ARM GAS  C:\Users\Craig\AppData\Local\Temp\ccXI8V1u.s 			page 37


1016:.\Generated_Source\PSoC5/USB.c ****                 {
1017:.\Generated_Source\PSoC5/USB.c ****                     CY_SET_REG8(p, pData[i]);
 1034              		.loc 1 1017 0
 1035 00e8 BB69     		ldr	r3, [r7, #24]
 1036 00ea F98B     		ldrh	r1, [r7, #30]
 1037 00ec BA68     		ldr	r2, [r7, #8]
 1038 00ee 0A44     		add	r2, r1, r2
 1039 00f0 1278     		ldrb	r2, [r2, #0]	@ zero_extendqisi2
 1040 00f2 1A70     		strb	r2, [r3, #0]
 1041              		.loc 1 1015 0
 1042 00f4 FB8B     		ldrh	r3, [r7, #30]	@ movhi
 1043 00f6 03F10103 		add	r3, r3, #1
 1044 00fa FB83     		strh	r3, [r7, #30]	@ movhi
 1045              	.L35:
 1046 00fc FA8B     		ldrh	r2, [r7, #30]
 1047 00fe FB88     		ldrh	r3, [r7, #6]
 1048 0100 9A42     		cmp	r2, r3
 1049 0102 F1D3     		bcc	.L36
 1050              	.L34:
1018:.\Generated_Source\PSoC5/USB.c ****                 }
1019:.\Generated_Source\PSoC5/USB.c ****             }
1020:.\Generated_Source\PSoC5/USB.c ****             USB_EP[epNumber].apiEpState = USB_NO_EVENT_PENDING;
 1051              		.loc 1 1020 0
 1052 0104 F97B     		ldrb	r1, [r7, #15]	@ zero_extendqisi2
 1053 0106 40F20002 		movw	r2, #:lower16:USB_EP
 1054 010a C0F20002 		movt	r2, #:upper16:USB_EP
 1055 010e 0B46     		mov	r3, r1
 1056 0110 4FEA4303 		lsl	r3, r3, #1
 1057 0114 0B44     		add	r3, r3, r1
 1058 0116 4FEA8303 		lsl	r3, r3, #2
 1059 011a 1344     		add	r3, r3, r2
 1060 011c 4FF00002 		mov	r2, #0
 1061 0120 5A70     		strb	r2, [r3, #1]
1021:.\Generated_Source\PSoC5/USB.c ****             /* Write the Mode register */
1022:.\Generated_Source\PSoC5/USB.c ****             USB_SIE_EP1_CR0_PTR[ri] = USB_EP[epNumber].epMode;
 1062              		.loc 1 1022 0
 1063 0122 FA7D     		ldrb	r2, [r7, #23]	@ zero_extendqisi2
 1064 0124 46F20E03 		movw	r3, #:lower16:1073766414
 1065 0128 C4F20003 		movt	r3, #:upper16:1073766414
 1066 012c 1344     		add	r3, r2, r3
 1067 012e F87B     		ldrb	r0, [r7, #15]	@ zero_extendqisi2
 1068 0130 40F20001 		movw	r1, #:lower16:USB_EP
 1069 0134 C0F20001 		movt	r1, #:upper16:USB_EP
 1070 0138 0246     		mov	r2, r0
 1071 013a 4FEA4202 		lsl	r2, r2, #1
 1072 013e 0244     		add	r2, r2, r0
 1073 0140 4FEA8202 		lsl	r2, r2, #2
 1074 0144 0A44     		add	r2, r2, r1
 1075 0146 5279     		ldrb	r2, [r2, #5]
 1076 0148 D2B2     		uxtb	r2, r2
 1077 014a 1A70     		strb	r2, [r3, #0]
 1078              	.L37:
1023:.\Generated_Source\PSoC5/USB.c ****         #else
1024:.\Generated_Source\PSoC5/USB.c ****             /*Init DMA if it was not initialized */
1025:.\Generated_Source\PSoC5/USB.c ****             if(USB_DmaTd[epNumber] == DMA_INVALID_TD)
1026:.\Generated_Source\PSoC5/USB.c ****             {
1027:.\Generated_Source\PSoC5/USB.c ****                 USB_InitEP_DMA(epNumber, pData);
ARM GAS  C:\Users\Craig\AppData\Local\Temp\ccXI8V1u.s 			page 38


1028:.\Generated_Source\PSoC5/USB.c ****             }
1029:.\Generated_Source\PSoC5/USB.c ****         #endif /* End USB_EP_MM == USB__EP_MANUAL */
1030:.\Generated_Source\PSoC5/USB.c **** 
1031:.\Generated_Source\PSoC5/USB.c ****         #if(USB_EP_MM == USB__EP_DMAMANUAL)
1032:.\Generated_Source\PSoC5/USB.c ****             if((pData != NULL) && (length > 0))
1033:.\Generated_Source\PSoC5/USB.c ****             {
1034:.\Generated_Source\PSoC5/USB.c **** 
1035:.\Generated_Source\PSoC5/USB.c ****                 /* Enable DMA in mode2 for transfering data */
1036:.\Generated_Source\PSoC5/USB.c ****                 CyDmaChDisable(USB_DmaChan[epNumber]);
1037:.\Generated_Source\PSoC5/USB.c ****                 CyDmaTdSetConfiguration(USB_DmaTd[epNumber], length, DMA_INVALID_TD,\
1038:.\Generated_Source\PSoC5/USB.c ****                                                                                     TD_TERMIN_EN | 
1039:.\Generated_Source\PSoC5/USB.c ****                 CyDmaTdSetAddress(USB_DmaTd[epNumber],  LO16((uint32)pData), LO16((uint32)p));
1040:.\Generated_Source\PSoC5/USB.c ****                 /* Enable the DMA */
1041:.\Generated_Source\PSoC5/USB.c ****                 CyDmaChSetInitialTd(USB_DmaChan[epNumber], USB_DmaTd[epNumber]);
1042:.\Generated_Source\PSoC5/USB.c ****                 CyDmaChEnable(USB_DmaChan[epNumber], 1);
1043:.\Generated_Source\PSoC5/USB.c ****                 /* Generate DMA request */
1044:.\Generated_Source\PSoC5/USB.c ****                 USB_ARB_EP1_CFG_PTR[ri] |= USB_ARB_EPX_CFG_DMA_REQ;
1045:.\Generated_Source\PSoC5/USB.c ****                 USB_ARB_EP1_CFG_PTR[ri] &= ~USB_ARB_EPX_CFG_DMA_REQ;
1046:.\Generated_Source\PSoC5/USB.c ****                 /* Mode register will be writen in arb ISR after DMA transfer copmlete */
1047:.\Generated_Source\PSoC5/USB.c ****             }
1048:.\Generated_Source\PSoC5/USB.c ****             else
1049:.\Generated_Source\PSoC5/USB.c ****             {
1050:.\Generated_Source\PSoC5/USB.c ****                 /* When zero-length packet - write the Mode register directly */
1051:.\Generated_Source\PSoC5/USB.c ****                 USB_SIE_EP1_CR0_PTR[ri] = USB_EP[epNumber].epMode;
1052:.\Generated_Source\PSoC5/USB.c ****             }
1053:.\Generated_Source\PSoC5/USB.c ****         #endif /* End USB_EP_MM == USB__EP_DMAMANUAL */
1054:.\Generated_Source\PSoC5/USB.c **** 
1055:.\Generated_Source\PSoC5/USB.c ****         #if(USB_EP_MM == USB__EP_DMAAUTO)
1056:.\Generated_Source\PSoC5/USB.c ****             if(pData != NULL)
1057:.\Generated_Source\PSoC5/USB.c ****             {
1058:.\Generated_Source\PSoC5/USB.c ****                 /* Enable DMA in mode3 for transfering data */
1059:.\Generated_Source\PSoC5/USB.c ****                 CyDmaChDisable(USB_DmaChan[epNumber]);
1060:.\Generated_Source\PSoC5/USB.c ****                 CyDmaTdSetConfiguration(USB_DmaTd[epNumber], length, USB_DmaTd[epNumber],\
1061:.\Generated_Source\PSoC5/USB.c ****                                                                                     TD_TERMIN_EN | 
1062:.\Generated_Source\PSoC5/USB.c ****                 CyDmaTdSetAddress(USB_DmaTd[epNumber],  LO16((uint32)pData), LO16((uint32)p));
1063:.\Generated_Source\PSoC5/USB.c ****                 /* Clear Any potential pending DMA requests before starting the DMA channel to tran
1064:.\Generated_Source\PSoC5/USB.c ****                 CyDmaClearPendingDrq(USB_DmaChan[epNumber]);
1065:.\Generated_Source\PSoC5/USB.c ****                 /* Enable the DMA */
1066:.\Generated_Source\PSoC5/USB.c ****                 CyDmaChSetInitialTd(USB_DmaChan[epNumber], USB_DmaTd[epNumber]);
1067:.\Generated_Source\PSoC5/USB.c ****                 CyDmaChEnable(USB_DmaChan[epNumber], 1);
1068:.\Generated_Source\PSoC5/USB.c ****             }
1069:.\Generated_Source\PSoC5/USB.c ****             else
1070:.\Generated_Source\PSoC5/USB.c ****             {
1071:.\Generated_Source\PSoC5/USB.c ****                 USB_EP[epNumber].apiEpState = USB_NO_EVENT_PENDING;
1072:.\Generated_Source\PSoC5/USB.c ****                 if(length > 0)
1073:.\Generated_Source\PSoC5/USB.c ****                 {
1074:.\Generated_Source\PSoC5/USB.c ****                     /* Set Data ready status, This will generate DMA request */
1075:.\Generated_Source\PSoC5/USB.c ****                     USB_ARB_EP1_CFG_PTR[ri] |= USB_ARB_EPX_CFG_IN_DATA_RDY;
1076:.\Generated_Source\PSoC5/USB.c ****                     /* Mode register will be writen in arb ISR(In Buffer Full) after first DMA tran
1077:.\Generated_Source\PSoC5/USB.c ****                 }
1078:.\Generated_Source\PSoC5/USB.c ****                 else
1079:.\Generated_Source\PSoC5/USB.c ****                 {
1080:.\Generated_Source\PSoC5/USB.c ****                     /* When zero-length packet - write the Mode register directly */
1081:.\Generated_Source\PSoC5/USB.c ****                     USB_SIE_EP1_CR0_PTR[ri] = USB_EP[epNumber].epMode;
1082:.\Generated_Source\PSoC5/USB.c ****                 }
1083:.\Generated_Source\PSoC5/USB.c ****             }
1084:.\Generated_Source\PSoC5/USB.c ****         #endif /* End USB_EP_MM == USB__EP_DMAAUTO */
ARM GAS  C:\Users\Craig\AppData\Local\Temp\ccXI8V1u.s 			page 39


1085:.\Generated_Source\PSoC5/USB.c **** 
1086:.\Generated_Source\PSoC5/USB.c ****     }
1087:.\Generated_Source\PSoC5/USB.c **** }
 1079              		.loc 1 1087 0
 1080 014c 07F12407 		add	r7, r7, #36
 1081 0150 BD46     		mov	sp, r7
 1082 0152 80BC     		pop	{r7}
 1083 0154 7047     		bx	lr
 1084              		.cfi_endproc
 1085              	.LFE11:
 1086              		.size	USB_LoadInEP, .-USB_LoadInEP
 1087 0156 00BF     		.section	.text.USB_ReadOutEP,"ax",%progbits
 1088              		.align	2
 1089              		.global	USB_ReadOutEP
 1090              		.thumb
 1091              		.thumb_func
 1092              		.type	USB_ReadOutEP, %function
 1093              	USB_ReadOutEP:
 1094              	.LFB12:
1088:.\Generated_Source\PSoC5/USB.c **** 
1089:.\Generated_Source\PSoC5/USB.c **** 
1090:.\Generated_Source\PSoC5/USB.c **** /*******************************************************************************
1091:.\Generated_Source\PSoC5/USB.c **** * Function Name: USB_ReadOutEP
1092:.\Generated_Source\PSoC5/USB.c **** ********************************************************************************
1093:.\Generated_Source\PSoC5/USB.c **** *
1094:.\Generated_Source\PSoC5/USB.c **** * Summary:
1095:.\Generated_Source\PSoC5/USB.c **** *  Read data from an endpoint.  The application must call
1096:.\Generated_Source\PSoC5/USB.c **** *  USB_GetEPState to see if an event is pending.
1097:.\Generated_Source\PSoC5/USB.c **** *
1098:.\Generated_Source\PSoC5/USB.c **** * Parameters:
1099:.\Generated_Source\PSoC5/USB.c **** *  epNumber: Contains the data endpoint number.
1100:.\Generated_Source\PSoC5/USB.c **** *            Valid values are between 1 and 8.
1101:.\Generated_Source\PSoC5/USB.c **** *  pData: A pointer to a data array from which the data for the endpoint space
1102:.\Generated_Source\PSoC5/USB.c **** *         is loaded.
1103:.\Generated_Source\PSoC5/USB.c **** *  length: The number of bytes to transfer from the USB Out enpoint and loads
1104:.\Generated_Source\PSoC5/USB.c **** *          it into data array. Valid values are between 0 and 1023. The function
1105:.\Generated_Source\PSoC5/USB.c **** *          moves fewer than the requested number of bytes if the host sends
1106:.\Generated_Source\PSoC5/USB.c **** *          fewer bytes than requested.
1107:.\Generated_Source\PSoC5/USB.c **** *
1108:.\Generated_Source\PSoC5/USB.c **** * Returns:
1109:.\Generated_Source\PSoC5/USB.c **** *  Number of bytes received, 0 for an invalid endpoint.
1110:.\Generated_Source\PSoC5/USB.c **** *
1111:.\Generated_Source\PSoC5/USB.c **** * Reentrant:
1112:.\Generated_Source\PSoC5/USB.c **** *  No.
1113:.\Generated_Source\PSoC5/USB.c **** *
1114:.\Generated_Source\PSoC5/USB.c **** *******************************************************************************/
1115:.\Generated_Source\PSoC5/USB.c **** uint16 USB_ReadOutEP(uint8 epNumber, uint8 *pData, uint16 length)
1116:.\Generated_Source\PSoC5/USB.c ****                                                                         
1117:.\Generated_Source\PSoC5/USB.c **** {
 1095              		.loc 1 1117 0
 1096              		.cfi_startproc
 1097              		@ args = 0, pretend = 0, frame = 32
 1098              		@ frame_needed = 1, uses_anonymous_args = 0
 1099 0000 80B5     		push	{r7, lr}
 1100              	.LCFI33:
 1101              		.cfi_def_cfa_offset 8
 1102 0002 88B0     		sub	sp, sp, #32
ARM GAS  C:\Users\Craig\AppData\Local\Temp\ccXI8V1u.s 			page 40


 1103              	.LCFI34:
 1104              		.cfi_def_cfa_offset 40
 1105 0004 00AF     		add	r7, sp, #0
 1106              		.cfi_offset 14, -4
 1107              		.cfi_offset 7, -8
 1108              	.LCFI35:
 1109              		.cfi_def_cfa_register 7
 1110 0006 B960     		str	r1, [r7, #8]
 1111 0008 1346     		mov	r3, r2
 1112 000a 0246     		mov	r2, r0
 1113 000c FA73     		strb	r2, [r7, #15]
 1114 000e FB80     		strh	r3, [r7, #6]	@ movhi
1118:.\Generated_Source\PSoC5/USB.c ****     uint8 ri;
1119:.\Generated_Source\PSoC5/USB.c ****     uint8 *p;
1120:.\Generated_Source\PSoC5/USB.c ****     #if(USB_EP_MM == USB__EP_MANUAL)
1121:.\Generated_Source\PSoC5/USB.c ****         uint16 i;
1122:.\Generated_Source\PSoC5/USB.c ****     #endif /* End USB_EP_MM == USB__EP_MANUAL */
1123:.\Generated_Source\PSoC5/USB.c ****     #if(USB_EP_MM != USB__EP_DMAAUTO)
1124:.\Generated_Source\PSoC5/USB.c ****         uint16 xferCount;
1125:.\Generated_Source\PSoC5/USB.c ****     #endif /* End USB_EP_MM != $INSTANCE_NAME`__EP_DMAAUTO */
1126:.\Generated_Source\PSoC5/USB.c **** 
1127:.\Generated_Source\PSoC5/USB.c ****     if((epNumber > USB_EP0) && (epNumber < USB_MAX_EP) && (pData != NULL))
 1115              		.loc 1 1127 0
 1116 0010 FB7B     		ldrb	r3, [r7, #15]	@ zero_extendqisi2
 1117 0012 002B     		cmp	r3, #0
 1118 0014 37D0     		beq	.L39
 1119 0016 FB7B     		ldrb	r3, [r7, #15]	@ zero_extendqisi2
 1120 0018 082B     		cmp	r3, #8
 1121 001a 34D8     		bhi	.L39
 1122 001c BB68     		ldr	r3, [r7, #8]
 1123 001e 002B     		cmp	r3, #0
 1124 0020 31D0     		beq	.L39
1128:.\Generated_Source\PSoC5/USB.c ****     {
1129:.\Generated_Source\PSoC5/USB.c ****         ri = ((epNumber - USB_EP1) << USB_EPX_CNTX_ADDR_SHIFT);
 1125              		.loc 1 1129 0
 1126 0022 FB7B     		ldrb	r3, [r7, #15]
 1127 0024 03F1FF33 		add	r3, r3, #-1
 1128 0028 DBB2     		uxtb	r3, r3
 1129 002a 4FEA0313 		lsl	r3, r3, #4
 1130 002e FB75     		strb	r3, [r7, #23]
1130:.\Generated_Source\PSoC5/USB.c ****         p = (uint8 *)&USB_ARB_RW1_DR_PTR[ri];
 1131              		.loc 1 1130 0
 1132 0030 FA7D     		ldrb	r2, [r7, #23]	@ zero_extendqisi2
 1133 0032 46F28803 		movw	r3, #:lower16:1073766536
 1134 0036 C4F20003 		movt	r3, #:upper16:1073766536
 1135 003a 1344     		add	r3, r2, r3
 1136 003c BB61     		str	r3, [r7, #24]
1131:.\Generated_Source\PSoC5/USB.c **** 
1132:.\Generated_Source\PSoC5/USB.c ****         #if(USB_EP_MM != USB__EP_DMAAUTO)
1133:.\Generated_Source\PSoC5/USB.c ****             /* Determine which is smaller the requested data or the available data */
1134:.\Generated_Source\PSoC5/USB.c ****             xferCount = USB_GetEPCount(epNumber);
 1137              		.loc 1 1134 0
 1138 003e FB7B     		ldrb	r3, [r7, #15]	@ zero_extendqisi2
 1139 0040 1846     		mov	r0, r3
 1140 0042 FFF7FEFF 		bl	USB_GetEPCount
 1141 0046 0346     		mov	r3, r0
 1142 0048 FB83     		strh	r3, [r7, #30]	@ movhi
ARM GAS  C:\Users\Craig\AppData\Local\Temp\ccXI8V1u.s 			page 41


1135:.\Generated_Source\PSoC5/USB.c ****             if (length > xferCount)
 1143              		.loc 1 1135 0
 1144 004a FA88     		ldrh	r2, [r7, #6]
 1145 004c FB8B     		ldrh	r3, [r7, #30]
 1146 004e 9A42     		cmp	r2, r3
 1147 0050 01D9     		bls	.L40
1136:.\Generated_Source\PSoC5/USB.c ****             {
1137:.\Generated_Source\PSoC5/USB.c ****                 length = xferCount;
 1148              		.loc 1 1137 0
 1149 0052 FB8B     		ldrh	r3, [r7, #30]	@ movhi
 1150 0054 FB80     		strh	r3, [r7, #6]	@ movhi
 1151              	.L40:
1138:.\Generated_Source\PSoC5/USB.c ****             }
1139:.\Generated_Source\PSoC5/USB.c ****         #endif /* End USB_EP_MM != USB__EP_DMAAUTO */
1140:.\Generated_Source\PSoC5/USB.c **** 
1141:.\Generated_Source\PSoC5/USB.c ****         #if(USB_EP_MM == USB__EP_MANUAL)
1142:.\Generated_Source\PSoC5/USB.c ****             /* Copy the data using the arbiter data register */
1143:.\Generated_Source\PSoC5/USB.c ****             for (i = 0u; i < length; i++)
 1152              		.loc 1 1143 0
 1153 0056 4FF00003 		mov	r3, #0
 1154 005a BB83     		strh	r3, [r7, #28]	@ movhi
 1155 005c 0AE0     		b	.L41
 1156              	.L42:
1144:.\Generated_Source\PSoC5/USB.c ****             {
1145:.\Generated_Source\PSoC5/USB.c ****                 pData[i] = CY_GET_REG8(p);
 1157              		.loc 1 1145 0
 1158 005e BA8B     		ldrh	r2, [r7, #28]
 1159 0060 BB68     		ldr	r3, [r7, #8]
 1160 0062 1344     		add	r3, r2, r3
 1161 0064 BA69     		ldr	r2, [r7, #24]
 1162 0066 1278     		ldrb	r2, [r2, #0]
 1163 0068 D2B2     		uxtb	r2, r2
 1164 006a 1A70     		strb	r2, [r3, #0]
 1165              		.loc 1 1143 0
 1166 006c BB8B     		ldrh	r3, [r7, #28]	@ movhi
 1167 006e 03F10103 		add	r3, r3, #1
 1168 0072 BB83     		strh	r3, [r7, #28]	@ movhi
 1169              	.L41:
 1170 0074 BA8B     		ldrh	r2, [r7, #28]
 1171 0076 FB88     		ldrh	r3, [r7, #6]
 1172 0078 9A42     		cmp	r2, r3
 1173 007a F0D3     		bcc	.L42
1146:.\Generated_Source\PSoC5/USB.c ****             }
1147:.\Generated_Source\PSoC5/USB.c **** 
1148:.\Generated_Source\PSoC5/USB.c ****             /* (re)arming of OUT endpoint */
1149:.\Generated_Source\PSoC5/USB.c ****             USB_EnableOutEP(epNumber);
 1174              		.loc 1 1149 0
 1175 007c FB7B     		ldrb	r3, [r7, #15]	@ zero_extendqisi2
 1176 007e 1846     		mov	r0, r3
 1177 0080 FFF7FEFF 		bl	USB_EnableOutEP
 1178              		.loc 1 1127 0
 1179 0084 02E0     		b	.L43
 1180              	.L39:
1150:.\Generated_Source\PSoC5/USB.c ****         #else
1151:.\Generated_Source\PSoC5/USB.c ****             /*Init DMA if it was not initialized */
1152:.\Generated_Source\PSoC5/USB.c ****             if(USB_DmaTd[epNumber] == DMA_INVALID_TD)
1153:.\Generated_Source\PSoC5/USB.c ****             {
ARM GAS  C:\Users\Craig\AppData\Local\Temp\ccXI8V1u.s 			page 42


1154:.\Generated_Source\PSoC5/USB.c ****                 USB_InitEP_DMA(epNumber, pData);
1155:.\Generated_Source\PSoC5/USB.c ****             }
1156:.\Generated_Source\PSoC5/USB.c ****         #endif /* End USB_EP_MM == USB__EP_MANUAL */
1157:.\Generated_Source\PSoC5/USB.c **** 
1158:.\Generated_Source\PSoC5/USB.c ****         #if(USB_EP_MM == USB__EP_DMAMANUAL)
1159:.\Generated_Source\PSoC5/USB.c ****             /* Enable DMA in mode2 for transfering data */
1160:.\Generated_Source\PSoC5/USB.c ****             CyDmaChDisable(USB_DmaChan[epNumber]);
1161:.\Generated_Source\PSoC5/USB.c ****             CyDmaTdSetConfiguration(USB_DmaTd[epNumber], length, DMA_INVALID_TD,
1162:.\Generated_Source\PSoC5/USB.c ****                                                                                 TD_TERMIN_EN | TD_I
1163:.\Generated_Source\PSoC5/USB.c ****             CyDmaTdSetAddress(USB_DmaTd[epNumber],  LO16((uint32)p), LO16((uint32)pData));
1164:.\Generated_Source\PSoC5/USB.c ****             /* Enable the DMA */
1165:.\Generated_Source\PSoC5/USB.c ****             CyDmaChSetInitialTd(USB_DmaChan[epNumber], USB_DmaTd[epNumber]);
1166:.\Generated_Source\PSoC5/USB.c ****             CyDmaChEnable(USB_DmaChan[epNumber], 1);
1167:.\Generated_Source\PSoC5/USB.c **** 
1168:.\Generated_Source\PSoC5/USB.c ****             /* Generate DMA request */
1169:.\Generated_Source\PSoC5/USB.c ****             USB_ARB_EP1_CFG_PTR[ri] |= USB_ARB_EPX_CFG_DMA_REQ;
1170:.\Generated_Source\PSoC5/USB.c ****             USB_ARB_EP1_CFG_PTR[ri] &= ~USB_ARB_EPX_CFG_DMA_REQ;
1171:.\Generated_Source\PSoC5/USB.c ****             /* Out EP will be (re)armed in arb ISR after transfer complete */
1172:.\Generated_Source\PSoC5/USB.c ****         #endif /* End USB_EP_MM == USB__EP_DMAMANUAL */
1173:.\Generated_Source\PSoC5/USB.c **** 
1174:.\Generated_Source\PSoC5/USB.c ****         #if(USB_EP_MM == USB__EP_DMAAUTO)
1175:.\Generated_Source\PSoC5/USB.c ****             /* Enable DMA in mode3 for transfering data */
1176:.\Generated_Source\PSoC5/USB.c ****             CyDmaChDisable(USB_DmaChan[epNumber]);
1177:.\Generated_Source\PSoC5/USB.c ****             CyDmaTdSetConfiguration(USB_DmaTd[epNumber], length, USB_DmaTd[epNumber],
1178:.\Generated_Source\PSoC5/USB.c ****                                                                                 TD_TERMIN_EN | TD_I
1179:.\Generated_Source\PSoC5/USB.c ****             CyDmaTdSetAddress(USB_DmaTd[epNumber],  LO16((uint32)p), LO16((uint32)pData));
1180:.\Generated_Source\PSoC5/USB.c **** 
1181:.\Generated_Source\PSoC5/USB.c ****             /* Clear Any potential pending DMA requests before starting the DMA channel to transfer
1182:.\Generated_Source\PSoC5/USB.c ****             CyDmaClearPendingDrq(USB_DmaChan[epNumber]);
1183:.\Generated_Source\PSoC5/USB.c ****             /* Enable the DMA */
1184:.\Generated_Source\PSoC5/USB.c ****             CyDmaChSetInitialTd(USB_DmaChan[epNumber], USB_DmaTd[epNumber]);
1185:.\Generated_Source\PSoC5/USB.c ****             CyDmaChEnable(USB_DmaChan[epNumber], 1);
1186:.\Generated_Source\PSoC5/USB.c ****             /* Out EP will be (re)armed in arb ISR after transfer complete */
1187:.\Generated_Source\PSoC5/USB.c ****         #endif /* End USB_EP_MM == USB__EP_DMAAUTO */
1188:.\Generated_Source\PSoC5/USB.c **** 
1189:.\Generated_Source\PSoC5/USB.c ****     }
1190:.\Generated_Source\PSoC5/USB.c ****     else
1191:.\Generated_Source\PSoC5/USB.c ****     {
1192:.\Generated_Source\PSoC5/USB.c ****         length = 0;
 1181              		.loc 1 1192 0
 1182 0086 4FF00003 		mov	r3, #0
 1183 008a FB80     		strh	r3, [r7, #6]	@ movhi
 1184              	.L43:
1193:.\Generated_Source\PSoC5/USB.c ****     }
1194:.\Generated_Source\PSoC5/USB.c **** 
1195:.\Generated_Source\PSoC5/USB.c ****     return(length);
 1185              		.loc 1 1195 0
 1186 008c FB88     		ldrh	r3, [r7, #6]
1196:.\Generated_Source\PSoC5/USB.c **** }
 1187              		.loc 1 1196 0
 1188 008e 1846     		mov	r0, r3
 1189 0090 07F12007 		add	r7, r7, #32
 1190 0094 BD46     		mov	sp, r7
 1191 0096 80BD     		pop	{r7, pc}
 1192              		.cfi_endproc
 1193              	.LFE12:
 1194              		.size	USB_ReadOutEP, .-USB_ReadOutEP
ARM GAS  C:\Users\Craig\AppData\Local\Temp\ccXI8V1u.s 			page 43


 1195              		.section	.text.USB_EnableOutEP,"ax",%progbits
 1196              		.align	2
 1197              		.global	USB_EnableOutEP
 1198              		.thumb
 1199              		.thumb_func
 1200              		.type	USB_EnableOutEP, %function
 1201              	USB_EnableOutEP:
 1202              	.LFB13:
1197:.\Generated_Source\PSoC5/USB.c **** 
1198:.\Generated_Source\PSoC5/USB.c **** 
1199:.\Generated_Source\PSoC5/USB.c **** /*******************************************************************************
1200:.\Generated_Source\PSoC5/USB.c **** * Function Name: USB_EnableOutEP
1201:.\Generated_Source\PSoC5/USB.c **** ********************************************************************************
1202:.\Generated_Source\PSoC5/USB.c **** *
1203:.\Generated_Source\PSoC5/USB.c **** * Summary:
1204:.\Generated_Source\PSoC5/USB.c **** *  This function enables an OUT endpoint.  It should not be
1205:.\Generated_Source\PSoC5/USB.c **** *  called for an IN endpoint.
1206:.\Generated_Source\PSoC5/USB.c **** *
1207:.\Generated_Source\PSoC5/USB.c **** * Parameters:
1208:.\Generated_Source\PSoC5/USB.c **** *  epNumber: Endpoint Number
1209:.\Generated_Source\PSoC5/USB.c **** *            Valid values are between 1 and 8.
1210:.\Generated_Source\PSoC5/USB.c **** *
1211:.\Generated_Source\PSoC5/USB.c **** * Return:
1212:.\Generated_Source\PSoC5/USB.c **** *   None.
1213:.\Generated_Source\PSoC5/USB.c **** *
1214:.\Generated_Source\PSoC5/USB.c **** * Global variables:
1215:.\Generated_Source\PSoC5/USB.c **** *  USB_EP[epNumber].apiEpState - set to NO_EVENT_PENDING
1216:.\Generated_Source\PSoC5/USB.c **** *
1217:.\Generated_Source\PSoC5/USB.c **** * Reentrant:
1218:.\Generated_Source\PSoC5/USB.c **** *  No.
1219:.\Generated_Source\PSoC5/USB.c **** *
1220:.\Generated_Source\PSoC5/USB.c **** *******************************************************************************/
1221:.\Generated_Source\PSoC5/USB.c **** void USB_EnableOutEP(uint8 epNumber) 
1222:.\Generated_Source\PSoC5/USB.c **** {
 1203              		.loc 1 1222 0
 1204              		.cfi_startproc
 1205              		@ args = 0, pretend = 0, frame = 16
 1206              		@ frame_needed = 1, uses_anonymous_args = 0
 1207              		@ link register save eliminated.
 1208 0000 80B4     		push	{r7}
 1209              	.LCFI36:
 1210              		.cfi_def_cfa_offset 4
 1211 0002 85B0     		sub	sp, sp, #20
 1212              	.LCFI37:
 1213              		.cfi_def_cfa_offset 24
 1214 0004 00AF     		add	r7, sp, #0
 1215              		.cfi_offset 7, -4
 1216              	.LCFI38:
 1217              		.cfi_def_cfa_register 7
 1218 0006 0346     		mov	r3, r0
 1219 0008 FB71     		strb	r3, [r7, #7]
1223:.\Generated_Source\PSoC5/USB.c ****     uint8 ri;
1224:.\Generated_Source\PSoC5/USB.c **** 
1225:.\Generated_Source\PSoC5/USB.c ****     if((epNumber > USB_EP0) && (epNumber < USB_MAX_EP))
 1220              		.loc 1 1225 0
 1221 000a FB79     		ldrb	r3, [r7, #7]	@ zero_extendqisi2
 1222 000c 002B     		cmp	r3, #0
ARM GAS  C:\Users\Craig\AppData\Local\Temp\ccXI8V1u.s 			page 44


 1223 000e 2DD0     		beq	.L47
 1224 0010 FB79     		ldrb	r3, [r7, #7]	@ zero_extendqisi2
 1225 0012 082B     		cmp	r3, #8
 1226 0014 2AD8     		bhi	.L47
1226:.\Generated_Source\PSoC5/USB.c ****     {
1227:.\Generated_Source\PSoC5/USB.c ****         ri = ((epNumber - USB_EP1) << USB_EPX_CNTX_ADDR_SHIFT);
 1227              		.loc 1 1227 0
 1228 0016 FB79     		ldrb	r3, [r7, #7]
 1229 0018 03F1FF33 		add	r3, r3, #-1
 1230 001c DBB2     		uxtb	r3, r3
 1231 001e 4FEA0313 		lsl	r3, r3, #4
 1232 0022 FB73     		strb	r3, [r7, #15]
1228:.\Generated_Source\PSoC5/USB.c ****         USB_EP[epNumber].apiEpState = USB_NO_EVENT_PENDING;
 1233              		.loc 1 1228 0
 1234 0024 F979     		ldrb	r1, [r7, #7]	@ zero_extendqisi2
 1235 0026 40F20002 		movw	r2, #:lower16:USB_EP
 1236 002a C0F20002 		movt	r2, #:upper16:USB_EP
 1237 002e 0B46     		mov	r3, r1
 1238 0030 4FEA4303 		lsl	r3, r3, #1
 1239 0034 0B44     		add	r3, r3, r1
 1240 0036 4FEA8303 		lsl	r3, r3, #2
 1241 003a 1344     		add	r3, r3, r2
 1242 003c 4FF00002 		mov	r2, #0
 1243 0040 5A70     		strb	r2, [r3, #1]
1229:.\Generated_Source\PSoC5/USB.c ****         /* Write the Mode register */
1230:.\Generated_Source\PSoC5/USB.c ****         CY_SET_REG8(&USB_SIE_EP1_CR0_PTR[ri], USB_EP[epNumber].epMode);
 1244              		.loc 1 1230 0
 1245 0042 FA7B     		ldrb	r2, [r7, #15]	@ zero_extendqisi2
 1246 0044 46F20E03 		movw	r3, #:lower16:1073766414
 1247 0048 C4F20003 		movt	r3, #:upper16:1073766414
 1248 004c 1344     		add	r3, r2, r3
 1249 004e F879     		ldrb	r0, [r7, #7]	@ zero_extendqisi2
 1250 0050 40F20001 		movw	r1, #:lower16:USB_EP
 1251 0054 C0F20001 		movt	r1, #:upper16:USB_EP
 1252 0058 0246     		mov	r2, r0
 1253 005a 4FEA4202 		lsl	r2, r2, #1
 1254 005e 0244     		add	r2, r2, r0
 1255 0060 4FEA8202 		lsl	r2, r2, #2
 1256 0064 0A44     		add	r2, r2, r1
 1257 0066 5279     		ldrb	r2, [r2, #5]
 1258 0068 D2B2     		uxtb	r2, r2
 1259 006a 1A70     		strb	r2, [r3, #0]
 1260              	.L47:
1231:.\Generated_Source\PSoC5/USB.c ****     }
1232:.\Generated_Source\PSoC5/USB.c **** }
 1261              		.loc 1 1232 0
 1262 006c 07F11407 		add	r7, r7, #20
 1263 0070 BD46     		mov	sp, r7
 1264 0072 80BC     		pop	{r7}
 1265 0074 7047     		bx	lr
 1266              		.cfi_endproc
 1267              	.LFE13:
 1268              		.size	USB_EnableOutEP, .-USB_EnableOutEP
 1269 0076 00BF     		.section	.text.USB_DisableOutEP,"ax",%progbits
 1270              		.align	2
 1271              		.global	USB_DisableOutEP
 1272              		.thumb
ARM GAS  C:\Users\Craig\AppData\Local\Temp\ccXI8V1u.s 			page 45


 1273              		.thumb_func
 1274              		.type	USB_DisableOutEP, %function
 1275              	USB_DisableOutEP:
 1276              	.LFB14:
1233:.\Generated_Source\PSoC5/USB.c **** 
1234:.\Generated_Source\PSoC5/USB.c **** 
1235:.\Generated_Source\PSoC5/USB.c **** /*******************************************************************************
1236:.\Generated_Source\PSoC5/USB.c **** * Function Name: USB_DisableOutEP
1237:.\Generated_Source\PSoC5/USB.c **** ********************************************************************************
1238:.\Generated_Source\PSoC5/USB.c **** *
1239:.\Generated_Source\PSoC5/USB.c **** * Summary:
1240:.\Generated_Source\PSoC5/USB.c **** *  This function disables an OUT endpoint.  It should not be
1241:.\Generated_Source\PSoC5/USB.c **** *  called for an IN endpoint.
1242:.\Generated_Source\PSoC5/USB.c **** *
1243:.\Generated_Source\PSoC5/USB.c **** * Parameters:
1244:.\Generated_Source\PSoC5/USB.c **** *  epNumber: Endpoint Number
1245:.\Generated_Source\PSoC5/USB.c **** *            Valid values are between 1 and 8.
1246:.\Generated_Source\PSoC5/USB.c **** *
1247:.\Generated_Source\PSoC5/USB.c **** * Return:
1248:.\Generated_Source\PSoC5/USB.c **** *  None.
1249:.\Generated_Source\PSoC5/USB.c **** *
1250:.\Generated_Source\PSoC5/USB.c **** *******************************************************************************/
1251:.\Generated_Source\PSoC5/USB.c **** void USB_DisableOutEP(uint8 epNumber) 
1252:.\Generated_Source\PSoC5/USB.c **** {
 1277              		.loc 1 1252 0
 1278              		.cfi_startproc
 1279              		@ args = 0, pretend = 0, frame = 16
 1280              		@ frame_needed = 1, uses_anonymous_args = 0
 1281              		@ link register save eliminated.
 1282 0000 80B4     		push	{r7}
 1283              	.LCFI39:
 1284              		.cfi_def_cfa_offset 4
 1285 0002 85B0     		sub	sp, sp, #20
 1286              	.LCFI40:
 1287              		.cfi_def_cfa_offset 24
 1288 0004 00AF     		add	r7, sp, #0
 1289              		.cfi_offset 7, -4
 1290              	.LCFI41:
 1291              		.cfi_def_cfa_register 7
 1292 0006 0346     		mov	r3, r0
 1293 0008 FB71     		strb	r3, [r7, #7]
1253:.\Generated_Source\PSoC5/USB.c ****     uint8 ri ;
1254:.\Generated_Source\PSoC5/USB.c **** 
1255:.\Generated_Source\PSoC5/USB.c ****     if((epNumber > USB_EP0) && (epNumber < USB_MAX_EP))
 1294              		.loc 1 1255 0
 1295 000a FB79     		ldrb	r3, [r7, #7]	@ zero_extendqisi2
 1296 000c 002B     		cmp	r3, #0
 1297 000e 12D0     		beq	.L50
 1298 0010 FB79     		ldrb	r3, [r7, #7]	@ zero_extendqisi2
 1299 0012 082B     		cmp	r3, #8
 1300 0014 0FD8     		bhi	.L50
1256:.\Generated_Source\PSoC5/USB.c ****     {
1257:.\Generated_Source\PSoC5/USB.c ****         ri = ((epNumber - USB_EP1) << USB_EPX_CNTX_ADDR_SHIFT);
 1301              		.loc 1 1257 0
 1302 0016 FB79     		ldrb	r3, [r7, #7]
 1303 0018 03F1FF33 		add	r3, r3, #-1
 1304 001c DBB2     		uxtb	r3, r3
ARM GAS  C:\Users\Craig\AppData\Local\Temp\ccXI8V1u.s 			page 46


 1305 001e 4FEA0313 		lsl	r3, r3, #4
 1306 0022 FB73     		strb	r3, [r7, #15]
1258:.\Generated_Source\PSoC5/USB.c ****         /* Write the Mode register */
1259:.\Generated_Source\PSoC5/USB.c ****         CY_SET_REG8(&USB_SIE_EP1_CR0_PTR[ri], USB_MODE_NAK_OUT);
 1307              		.loc 1 1259 0
 1308 0024 FA7B     		ldrb	r2, [r7, #15]	@ zero_extendqisi2
 1309 0026 46F20E03 		movw	r3, #:lower16:1073766414
 1310 002a C4F20003 		movt	r3, #:upper16:1073766414
 1311 002e 1344     		add	r3, r2, r3
 1312 0030 4FF00802 		mov	r2, #8
 1313 0034 1A70     		strb	r2, [r3, #0]
 1314              	.L50:
1260:.\Generated_Source\PSoC5/USB.c ****     }
1261:.\Generated_Source\PSoC5/USB.c **** }
 1315              		.loc 1 1261 0
 1316 0036 07F11407 		add	r7, r7, #20
 1317 003a BD46     		mov	sp, r7
 1318 003c 80BC     		pop	{r7}
 1319 003e 7047     		bx	lr
 1320              		.cfi_endproc
 1321              	.LFE14:
 1322              		.size	USB_DisableOutEP, .-USB_DisableOutEP
 1323              		.section	.text.USB_Force,"ax",%progbits
 1324              		.align	2
 1325              		.global	USB_Force
 1326              		.thumb
 1327              		.thumb_func
 1328              		.type	USB_Force, %function
 1329              	USB_Force:
 1330              	.LFB15:
1262:.\Generated_Source\PSoC5/USB.c **** 
1263:.\Generated_Source\PSoC5/USB.c **** 
1264:.\Generated_Source\PSoC5/USB.c **** /*******************************************************************************
1265:.\Generated_Source\PSoC5/USB.c **** * Function Name: USB_Force
1266:.\Generated_Source\PSoC5/USB.c **** ********************************************************************************
1267:.\Generated_Source\PSoC5/USB.c **** *
1268:.\Generated_Source\PSoC5/USB.c **** * Summary:
1269:.\Generated_Source\PSoC5/USB.c **** *  Forces the bus state
1270:.\Generated_Source\PSoC5/USB.c **** *
1271:.\Generated_Source\PSoC5/USB.c **** * Parameters:
1272:.\Generated_Source\PSoC5/USB.c **** *  bState
1273:.\Generated_Source\PSoC5/USB.c **** *    USB_FORCE_J
1274:.\Generated_Source\PSoC5/USB.c **** *    USB_FORCE_K
1275:.\Generated_Source\PSoC5/USB.c **** *    USB_FORCE_SE0
1276:.\Generated_Source\PSoC5/USB.c **** *    USB_FORCE_NONE
1277:.\Generated_Source\PSoC5/USB.c **** *
1278:.\Generated_Source\PSoC5/USB.c **** * Return:
1279:.\Generated_Source\PSoC5/USB.c **** *  None.
1280:.\Generated_Source\PSoC5/USB.c **** *
1281:.\Generated_Source\PSoC5/USB.c **** *******************************************************************************/
1282:.\Generated_Source\PSoC5/USB.c **** void USB_Force(uint8 bState) 
1283:.\Generated_Source\PSoC5/USB.c **** {
 1331              		.loc 1 1283 0
 1332              		.cfi_startproc
 1333              		@ args = 0, pretend = 0, frame = 8
 1334              		@ frame_needed = 1, uses_anonymous_args = 0
 1335              		@ link register save eliminated.
ARM GAS  C:\Users\Craig\AppData\Local\Temp\ccXI8V1u.s 			page 47


 1336 0000 80B4     		push	{r7}
 1337              	.LCFI42:
 1338              		.cfi_def_cfa_offset 4
 1339 0002 83B0     		sub	sp, sp, #12
 1340              	.LCFI43:
 1341              		.cfi_def_cfa_offset 16
 1342 0004 00AF     		add	r7, sp, #0
 1343              		.cfi_offset 7, -4
 1344              	.LCFI44:
 1345              		.cfi_def_cfa_register 7
 1346 0006 0346     		mov	r3, r0
 1347 0008 FB71     		strb	r3, [r7, #7]
1284:.\Generated_Source\PSoC5/USB.c ****     CY_SET_REG8(USB_USBIO_CR0_PTR, bState);
 1348              		.loc 1 1284 0
 1349 000a 46F21003 		movw	r3, #:lower16:1073766416
 1350 000e C4F20003 		movt	r3, #:upper16:1073766416
 1351 0012 FA79     		ldrb	r2, [r7, #7]
 1352 0014 1A70     		strb	r2, [r3, #0]
1285:.\Generated_Source\PSoC5/USB.c **** }
 1353              		.loc 1 1285 0
 1354 0016 07F10C07 		add	r7, r7, #12
 1355 001a BD46     		mov	sp, r7
 1356 001c 80BC     		pop	{r7}
 1357 001e 7047     		bx	lr
 1358              		.cfi_endproc
 1359              	.LFE15:
 1360              		.size	USB_Force, .-USB_Force
 1361              		.section	.text.USB_GetEPAckState,"ax",%progbits
 1362              		.align	2
 1363              		.global	USB_GetEPAckState
 1364              		.thumb
 1365              		.thumb_func
 1366              		.type	USB_GetEPAckState, %function
 1367              	USB_GetEPAckState:
 1368              	.LFB16:
1286:.\Generated_Source\PSoC5/USB.c **** 
1287:.\Generated_Source\PSoC5/USB.c **** 
1288:.\Generated_Source\PSoC5/USB.c **** /*******************************************************************************
1289:.\Generated_Source\PSoC5/USB.c **** * Function Name: USB_GetEPAckState
1290:.\Generated_Source\PSoC5/USB.c **** ********************************************************************************
1291:.\Generated_Source\PSoC5/USB.c **** *
1292:.\Generated_Source\PSoC5/USB.c **** * Summary:
1293:.\Generated_Source\PSoC5/USB.c **** *  Returns the ACK of the CR0 Register (ACKD)
1294:.\Generated_Source\PSoC5/USB.c **** *
1295:.\Generated_Source\PSoC5/USB.c **** * Parameters:
1296:.\Generated_Source\PSoC5/USB.c **** *  epNumber: Endpoint Number
1297:.\Generated_Source\PSoC5/USB.c **** *            Valid values are between 1 and 8.
1298:.\Generated_Source\PSoC5/USB.c **** *
1299:.\Generated_Source\PSoC5/USB.c **** * Returns
1300:.\Generated_Source\PSoC5/USB.c **** *  0 if nothing has been ACKD, non-=zero something has been ACKD
1301:.\Generated_Source\PSoC5/USB.c **** *
1302:.\Generated_Source\PSoC5/USB.c **** *******************************************************************************/
1303:.\Generated_Source\PSoC5/USB.c **** uint8 USB_GetEPAckState(uint8 epNumber) 
1304:.\Generated_Source\PSoC5/USB.c **** {
 1369              		.loc 1 1304 0
 1370              		.cfi_startproc
 1371              		@ args = 0, pretend = 0, frame = 16
ARM GAS  C:\Users\Craig\AppData\Local\Temp\ccXI8V1u.s 			page 48


 1372              		@ frame_needed = 1, uses_anonymous_args = 0
 1373              		@ link register save eliminated.
 1374 0000 80B4     		push	{r7}
 1375              	.LCFI45:
 1376              		.cfi_def_cfa_offset 4
 1377 0002 85B0     		sub	sp, sp, #20
 1378              	.LCFI46:
 1379              		.cfi_def_cfa_offset 24
 1380 0004 00AF     		add	r7, sp, #0
 1381              		.cfi_offset 7, -4
 1382              	.LCFI47:
 1383              		.cfi_def_cfa_register 7
 1384 0006 0346     		mov	r3, r0
 1385 0008 FB71     		strb	r3, [r7, #7]
1305:.\Generated_Source\PSoC5/USB.c ****     uint8 ri;
1306:.\Generated_Source\PSoC5/USB.c ****     uint8 cr = 0;
 1386              		.loc 1 1306 0
 1387 000a 4FF00003 		mov	r3, #0
 1388 000e FB73     		strb	r3, [r7, #15]
1307:.\Generated_Source\PSoC5/USB.c **** 
1308:.\Generated_Source\PSoC5/USB.c ****     if((epNumber > USB_EP0) && (epNumber < USB_MAX_EP))
 1389              		.loc 1 1308 0
 1390 0010 FB79     		ldrb	r3, [r7, #7]	@ zero_extendqisi2
 1391 0012 002B     		cmp	r3, #0
 1392 0014 14D0     		beq	.L54
 1393 0016 FB79     		ldrb	r3, [r7, #7]	@ zero_extendqisi2
 1394 0018 082B     		cmp	r3, #8
 1395 001a 11D8     		bhi	.L54
1309:.\Generated_Source\PSoC5/USB.c ****     {
1310:.\Generated_Source\PSoC5/USB.c ****         ri = ((epNumber - USB_EP1) << USB_EPX_CNTX_ADDR_SHIFT);
 1396              		.loc 1 1310 0
 1397 001c FB79     		ldrb	r3, [r7, #7]
 1398 001e 03F1FF33 		add	r3, r3, #-1
 1399 0022 DBB2     		uxtb	r3, r3
 1400 0024 4FEA0313 		lsl	r3, r3, #4
 1401 0028 BB73     		strb	r3, [r7, #14]
1311:.\Generated_Source\PSoC5/USB.c ****         cr = CY_GET_REG8(&USB_SIE_EP1_CR0_PTR[ri]) & USB_MODE_ACKD;
 1402              		.loc 1 1311 0
 1403 002a BA7B     		ldrb	r2, [r7, #14]	@ zero_extendqisi2
 1404 002c 46F20E03 		movw	r3, #:lower16:1073766414
 1405 0030 C4F20003 		movt	r3, #:upper16:1073766414
 1406 0034 1344     		add	r3, r2, r3
 1407 0036 1B78     		ldrb	r3, [r3, #0]
 1408 0038 DBB2     		uxtb	r3, r3
 1409 003a 03F01003 		and	r3, r3, #16
 1410 003e FB73     		strb	r3, [r7, #15]
 1411              	.L54:
1312:.\Generated_Source\PSoC5/USB.c ****     }
1313:.\Generated_Source\PSoC5/USB.c **** 
1314:.\Generated_Source\PSoC5/USB.c ****     return(cr);
 1412              		.loc 1 1314 0
 1413 0040 FB7B     		ldrb	r3, [r7, #15]	@ zero_extendqisi2
1315:.\Generated_Source\PSoC5/USB.c **** }
 1414              		.loc 1 1315 0
 1415 0042 1846     		mov	r0, r3
 1416 0044 07F11407 		add	r7, r7, #20
 1417 0048 BD46     		mov	sp, r7
ARM GAS  C:\Users\Craig\AppData\Local\Temp\ccXI8V1u.s 			page 49


 1418 004a 80BC     		pop	{r7}
 1419 004c 7047     		bx	lr
 1420              		.cfi_endproc
 1421              	.LFE16:
 1422              		.size	USB_GetEPAckState, .-USB_GetEPAckState
 1423 004e 00BF     		.section	.text.USB_SetPowerStatus,"ax",%progbits
 1424              		.align	2
 1425              		.global	USB_SetPowerStatus
 1426              		.thumb
 1427              		.thumb_func
 1428              		.type	USB_SetPowerStatus, %function
 1429              	USB_SetPowerStatus:
 1430              	.LFB17:
1316:.\Generated_Source\PSoC5/USB.c **** 
1317:.\Generated_Source\PSoC5/USB.c **** 
1318:.\Generated_Source\PSoC5/USB.c **** /*******************************************************************************
1319:.\Generated_Source\PSoC5/USB.c **** * Function Name: USB_SetPowerStatus
1320:.\Generated_Source\PSoC5/USB.c **** ********************************************************************************
1321:.\Generated_Source\PSoC5/USB.c **** *
1322:.\Generated_Source\PSoC5/USB.c **** * Summary:
1323:.\Generated_Source\PSoC5/USB.c **** *  Sets the device power status for reporting in the Get Device Status
1324:.\Generated_Source\PSoC5/USB.c **** *  request
1325:.\Generated_Source\PSoC5/USB.c **** *
1326:.\Generated_Source\PSoC5/USB.c **** * Parameters:
1327:.\Generated_Source\PSoC5/USB.c **** *  powerStatus: USB_DEVICE_STATUS_BUS_POWERED(0) - Bus Powered,
1328:.\Generated_Source\PSoC5/USB.c **** *               USB_DEVICE_STATUS_SELF_POWERED(1) - Self Powered
1329:.\Generated_Source\PSoC5/USB.c **** *
1330:.\Generated_Source\PSoC5/USB.c **** * Return:
1331:.\Generated_Source\PSoC5/USB.c **** *   None.
1332:.\Generated_Source\PSoC5/USB.c **** *
1333:.\Generated_Source\PSoC5/USB.c **** * Global variables:
1334:.\Generated_Source\PSoC5/USB.c **** *  USB_deviceStatus - set power status
1335:.\Generated_Source\PSoC5/USB.c **** *
1336:.\Generated_Source\PSoC5/USB.c **** * Reentrant:
1337:.\Generated_Source\PSoC5/USB.c **** *  No.
1338:.\Generated_Source\PSoC5/USB.c **** *
1339:.\Generated_Source\PSoC5/USB.c **** *******************************************************************************/
1340:.\Generated_Source\PSoC5/USB.c **** void USB_SetPowerStatus(uint8 powerStatus) 
1341:.\Generated_Source\PSoC5/USB.c **** {
 1431              		.loc 1 1341 0
 1432              		.cfi_startproc
 1433              		@ args = 0, pretend = 0, frame = 8
 1434              		@ frame_needed = 1, uses_anonymous_args = 0
 1435              		@ link register save eliminated.
 1436 0000 80B4     		push	{r7}
 1437              	.LCFI48:
 1438              		.cfi_def_cfa_offset 4
 1439 0002 83B0     		sub	sp, sp, #12
 1440              	.LCFI49:
 1441              		.cfi_def_cfa_offset 16
 1442 0004 00AF     		add	r7, sp, #0
 1443              		.cfi_offset 7, -4
 1444              	.LCFI50:
 1445              		.cfi_def_cfa_register 7
 1446 0006 0346     		mov	r3, r0
 1447 0008 FB71     		strb	r3, [r7, #7]
1342:.\Generated_Source\PSoC5/USB.c ****     if (powerStatus != USB_DEVICE_STATUS_BUS_POWERED)
ARM GAS  C:\Users\Craig\AppData\Local\Temp\ccXI8V1u.s 			page 50


 1448              		.loc 1 1342 0
 1449 000a FB79     		ldrb	r3, [r7, #7]	@ zero_extendqisi2
 1450 000c 002B     		cmp	r3, #0
 1451 000e 0ED0     		beq	.L57
1343:.\Generated_Source\PSoC5/USB.c ****     {
1344:.\Generated_Source\PSoC5/USB.c ****         USB_deviceStatus |=  USB_DEVICE_STATUS_SELF_POWERED;
 1452              		.loc 1 1344 0
 1453 0010 40F20003 		movw	r3, #:lower16:USB_deviceStatus
 1454 0014 C0F20003 		movt	r3, #:upper16:USB_deviceStatus
 1455 0018 1B78     		ldrb	r3, [r3, #0]
 1456 001a DBB2     		uxtb	r3, r3
 1457 001c 43F00103 		orr	r3, r3, #1
 1458 0020 DAB2     		uxtb	r2, r3
 1459 0022 40F20003 		movw	r3, #:lower16:USB_deviceStatus
 1460 0026 C0F20003 		movt	r3, #:upper16:USB_deviceStatus
 1461 002a 1A70     		strb	r2, [r3, #0]
 1462 002c 0DE0     		b	.L59
 1463              	.L57:
1345:.\Generated_Source\PSoC5/USB.c ****     }
1346:.\Generated_Source\PSoC5/USB.c ****     else
1347:.\Generated_Source\PSoC5/USB.c ****     {
1348:.\Generated_Source\PSoC5/USB.c ****         USB_deviceStatus &=  ~USB_DEVICE_STATUS_SELF_POWERED;
 1464              		.loc 1 1348 0
 1465 002e 40F20003 		movw	r3, #:lower16:USB_deviceStatus
 1466 0032 C0F20003 		movt	r3, #:upper16:USB_deviceStatus
 1467 0036 1B78     		ldrb	r3, [r3, #0]
 1468 0038 DBB2     		uxtb	r3, r3
 1469 003a 1A46     		mov	r2, r3
 1470 003c 02F0FE02 		and	r2, r2, #254
 1471 0040 40F20003 		movw	r3, #:lower16:USB_deviceStatus
 1472 0044 C0F20003 		movt	r3, #:upper16:USB_deviceStatus
 1473 0048 1A70     		strb	r2, [r3, #0]
 1474              	.L59:
1349:.\Generated_Source\PSoC5/USB.c ****     }
1350:.\Generated_Source\PSoC5/USB.c **** }
 1475              		.loc 1 1350 0
 1476 004a 07F10C07 		add	r7, r7, #12
 1477 004e BD46     		mov	sp, r7
 1478 0050 80BC     		pop	{r7}
 1479 0052 7047     		bx	lr
 1480              		.cfi_endproc
 1481              	.LFE17:
 1482              		.size	USB_SetPowerStatus, .-USB_SetPowerStatus
 1483              		.section	.text.USB_RWUEnabled,"ax",%progbits
 1484              		.align	2
 1485              		.global	USB_RWUEnabled
 1486              		.thumb
 1487              		.thumb_func
 1488              		.type	USB_RWUEnabled, %function
 1489              	USB_RWUEnabled:
 1490              	.LFB18:
1351:.\Generated_Source\PSoC5/USB.c **** 
1352:.\Generated_Source\PSoC5/USB.c **** 
1353:.\Generated_Source\PSoC5/USB.c **** #if (USB_MON_VBUS == 1u)
1354:.\Generated_Source\PSoC5/USB.c **** 
1355:.\Generated_Source\PSoC5/USB.c ****     /*******************************************************************************
1356:.\Generated_Source\PSoC5/USB.c ****     * Function Name: USB_VBusPresent
ARM GAS  C:\Users\Craig\AppData\Local\Temp\ccXI8V1u.s 			page 51


1357:.\Generated_Source\PSoC5/USB.c ****     ********************************************************************************
1358:.\Generated_Source\PSoC5/USB.c ****     *
1359:.\Generated_Source\PSoC5/USB.c ****     * Summary:
1360:.\Generated_Source\PSoC5/USB.c ****     *  Determines VBUS presence for Self Powered Devices.
1361:.\Generated_Source\PSoC5/USB.c ****     *
1362:.\Generated_Source\PSoC5/USB.c ****     * Parameters:
1363:.\Generated_Source\PSoC5/USB.c ****     *  None.
1364:.\Generated_Source\PSoC5/USB.c ****     *
1365:.\Generated_Source\PSoC5/USB.c ****     * Return:
1366:.\Generated_Source\PSoC5/USB.c ****     *  1 if VBUS is present, otherwise 0.
1367:.\Generated_Source\PSoC5/USB.c ****     *
1368:.\Generated_Source\PSoC5/USB.c ****     *******************************************************************************/
1369:.\Generated_Source\PSoC5/USB.c ****     uint8 USB_VBusPresent(void) 
1370:.\Generated_Source\PSoC5/USB.c ****     {
1371:.\Generated_Source\PSoC5/USB.c ****         return((CY_GET_REG8(USB_VBUS_PS_PTR) & USB_VBUS_MASK) ? 1u : 0u);
1372:.\Generated_Source\PSoC5/USB.c ****     }
1373:.\Generated_Source\PSoC5/USB.c **** 
1374:.\Generated_Source\PSoC5/USB.c **** #endif /* USB_MON_VBUS */
1375:.\Generated_Source\PSoC5/USB.c **** 
1376:.\Generated_Source\PSoC5/USB.c **** 
1377:.\Generated_Source\PSoC5/USB.c **** /*******************************************************************************
1378:.\Generated_Source\PSoC5/USB.c **** * Function Name: USB_RWUEnabled
1379:.\Generated_Source\PSoC5/USB.c **** ********************************************************************************
1380:.\Generated_Source\PSoC5/USB.c **** *
1381:.\Generated_Source\PSoC5/USB.c **** * Summary:
1382:.\Generated_Source\PSoC5/USB.c **** *  Returns TRUE if Remote Wake Up is enabled, otherwise FALSE
1383:.\Generated_Source\PSoC5/USB.c **** *
1384:.\Generated_Source\PSoC5/USB.c **** * Parameters:
1385:.\Generated_Source\PSoC5/USB.c **** *   None.
1386:.\Generated_Source\PSoC5/USB.c **** *
1387:.\Generated_Source\PSoC5/USB.c **** * Return:
1388:.\Generated_Source\PSoC5/USB.c **** *  TRUE -  Remote Wake Up Enabled
1389:.\Generated_Source\PSoC5/USB.c **** *  FALSE - Remote Wake Up Disabled
1390:.\Generated_Source\PSoC5/USB.c **** *
1391:.\Generated_Source\PSoC5/USB.c **** * Global variables:
1392:.\Generated_Source\PSoC5/USB.c **** *  USB_deviceStatus - checked to determine remote status
1393:.\Generated_Source\PSoC5/USB.c **** *
1394:.\Generated_Source\PSoC5/USB.c **** *******************************************************************************/
1395:.\Generated_Source\PSoC5/USB.c **** uint8 USB_RWUEnabled(void) 
1396:.\Generated_Source\PSoC5/USB.c **** {
 1491              		.loc 1 1396 0
 1492              		.cfi_startproc
 1493              		@ args = 0, pretend = 0, frame = 8
 1494              		@ frame_needed = 1, uses_anonymous_args = 0
 1495              		@ link register save eliminated.
 1496 0000 80B4     		push	{r7}
 1497              	.LCFI51:
 1498              		.cfi_def_cfa_offset 4
 1499 0002 83B0     		sub	sp, sp, #12
 1500              	.LCFI52:
 1501              		.cfi_def_cfa_offset 16
 1502 0004 00AF     		add	r7, sp, #0
 1503              		.cfi_offset 7, -4
 1504              	.LCFI53:
 1505              		.cfi_def_cfa_register 7
1397:.\Generated_Source\PSoC5/USB.c ****     uint8 result = USB_FALSE;
 1506              		.loc 1 1397 0
ARM GAS  C:\Users\Craig\AppData\Local\Temp\ccXI8V1u.s 			page 52


 1507 0006 4FF00003 		mov	r3, #0
 1508 000a FB71     		strb	r3, [r7, #7]
1398:.\Generated_Source\PSoC5/USB.c ****     if((USB_deviceStatus & USB_DEVICE_STATUS_REMOTE_WAKEUP) != 0u)
 1509              		.loc 1 1398 0
 1510 000c 40F20003 		movw	r3, #:lower16:USB_deviceStatus
 1511 0010 C0F20003 		movt	r3, #:upper16:USB_deviceStatus
 1512 0014 1B78     		ldrb	r3, [r3, #0]
 1513 0016 DBB2     		uxtb	r3, r3
 1514 0018 03F00203 		and	r3, r3, #2
 1515 001c 002B     		cmp	r3, #0
 1516 001e 02D0     		beq	.L61
1399:.\Generated_Source\PSoC5/USB.c ****     {
1400:.\Generated_Source\PSoC5/USB.c ****         result = USB_TRUE;
 1517              		.loc 1 1400 0
 1518 0020 4FF00103 		mov	r3, #1
 1519 0024 FB71     		strb	r3, [r7, #7]
 1520              	.L61:
1401:.\Generated_Source\PSoC5/USB.c ****     }
1402:.\Generated_Source\PSoC5/USB.c **** 
1403:.\Generated_Source\PSoC5/USB.c ****     return(result);
 1521              		.loc 1 1403 0
 1522 0026 FB79     		ldrb	r3, [r7, #7]	@ zero_extendqisi2
1404:.\Generated_Source\PSoC5/USB.c **** }
 1523              		.loc 1 1404 0
 1524 0028 1846     		mov	r0, r3
 1525 002a 07F10C07 		add	r7, r7, #12
 1526 002e BD46     		mov	sp, r7
 1527 0030 80BC     		pop	{r7}
 1528 0032 7047     		bx	lr
 1529              		.cfi_endproc
 1530              	.LFE18:
 1531              		.size	USB_RWUEnabled, .-USB_RWUEnabled
 1532              		.text
 1533              	.Letext0:
 1534              		.section	.debug_loc,"",%progbits
 1535              	.Ldebug_loc0:
 1536              	.LLST0:
 1537 0000 00000000 		.4byte	.LFB0
 1538 0004 02000000 		.4byte	.LCFI0
 1539 0008 0100     		.2byte	0x1
 1540 000a 5D       		.byte	0x5d
 1541 000b 02000000 		.4byte	.LCFI0
 1542 000f 04000000 		.4byte	.LCFI1
 1543 0013 0200     		.2byte	0x2
 1544 0015 7D       		.byte	0x7d
 1545 0016 08       		.sleb128 8
 1546 0017 04000000 		.4byte	.LCFI1
 1547 001b 06000000 		.4byte	.LCFI2
 1548 001f 0200     		.2byte	0x2
 1549 0021 7D       		.byte	0x7d
 1550 0022 10       		.sleb128 16
 1551 0023 06000000 		.4byte	.LCFI2
 1552 0027 42000000 		.4byte	.LFE0
 1553 002b 0200     		.2byte	0x2
 1554 002d 77       		.byte	0x77
 1555 002e 10       		.sleb128 16
 1556 002f 00000000 		.4byte	0x0
ARM GAS  C:\Users\Craig\AppData\Local\Temp\ccXI8V1u.s 			page 53


 1557 0033 00000000 		.4byte	0x0
 1558              	.LLST1:
 1559 0037 00000000 		.4byte	.LFB1
 1560 003b 02000000 		.4byte	.LCFI3
 1561 003f 0100     		.2byte	0x1
 1562 0041 5D       		.byte	0x5d
 1563 0042 02000000 		.4byte	.LCFI3
 1564 0046 04000000 		.4byte	.LCFI4
 1565 004a 0200     		.2byte	0x2
 1566 004c 7D       		.byte	0x7d
 1567 004d 08       		.sleb128 8
 1568 004e 04000000 		.4byte	.LCFI4
 1569 0052 06000000 		.4byte	.LCFI5
 1570 0056 0200     		.2byte	0x2
 1571 0058 7D       		.byte	0x7d
 1572 0059 10       		.sleb128 16
 1573 005a 06000000 		.4byte	.LCFI5
 1574 005e 10020000 		.4byte	.LFE1
 1575 0062 0200     		.2byte	0x2
 1576 0064 77       		.byte	0x77
 1577 0065 10       		.sleb128 16
 1578 0066 00000000 		.4byte	0x0
 1579 006a 00000000 		.4byte	0x0
 1580              	.LLST2:
 1581 006e 00000000 		.4byte	.LFB2
 1582 0072 02000000 		.4byte	.LCFI6
 1583 0076 0100     		.2byte	0x1
 1584 0078 5D       		.byte	0x5d
 1585 0079 02000000 		.4byte	.LCFI6
 1586 007d 04000000 		.4byte	.LCFI7
 1587 0081 0200     		.2byte	0x2
 1588 0083 7D       		.byte	0x7d
 1589 0084 08       		.sleb128 8
 1590 0085 04000000 		.4byte	.LCFI7
 1591 0089 06000000 		.4byte	.LCFI8
 1592 008d 0200     		.2byte	0x2
 1593 008f 7D       		.byte	0x7d
 1594 0090 10       		.sleb128 16
 1595 0091 06000000 		.4byte	.LCFI8
 1596 0095 28010000 		.4byte	.LFE2
 1597 0099 0200     		.2byte	0x2
 1598 009b 77       		.byte	0x77
 1599 009c 10       		.sleb128 16
 1600 009d 00000000 		.4byte	0x0
 1601 00a1 00000000 		.4byte	0x0
 1602              	.LLST3:
 1603 00a5 00000000 		.4byte	.LFB3
 1604 00a9 02000000 		.4byte	.LCFI9
 1605 00ad 0100     		.2byte	0x1
 1606 00af 5D       		.byte	0x5d
 1607 00b0 02000000 		.4byte	.LCFI9
 1608 00b4 04000000 		.4byte	.LCFI10
 1609 00b8 0200     		.2byte	0x2
 1610 00ba 7D       		.byte	0x7d
 1611 00bb 04       		.sleb128 4
 1612 00bc 04000000 		.4byte	.LCFI10
 1613 00c0 88000000 		.4byte	.LFE3
ARM GAS  C:\Users\Craig\AppData\Local\Temp\ccXI8V1u.s 			page 54


 1614 00c4 0200     		.2byte	0x2
 1615 00c6 77       		.byte	0x77
 1616 00c7 04       		.sleb128 4
 1617 00c8 00000000 		.4byte	0x0
 1618 00cc 00000000 		.4byte	0x0
 1619              	.LLST4:
 1620 00d0 00000000 		.4byte	.LFB4
 1621 00d4 02000000 		.4byte	.LCFI11
 1622 00d8 0100     		.2byte	0x1
 1623 00da 5D       		.byte	0x5d
 1624 00db 02000000 		.4byte	.LCFI11
 1625 00df 04000000 		.4byte	.LCFI12
 1626 00e3 0200     		.2byte	0x2
 1627 00e5 7D       		.byte	0x7d
 1628 00e6 04       		.sleb128 4
 1629 00e7 04000000 		.4byte	.LCFI12
 1630 00eb FE000000 		.4byte	.LFE4
 1631 00ef 0200     		.2byte	0x2
 1632 00f1 77       		.byte	0x77
 1633 00f2 04       		.sleb128 4
 1634 00f3 00000000 		.4byte	0x0
 1635 00f7 00000000 		.4byte	0x0
 1636              	.LLST5:
 1637 00fb 00000000 		.4byte	.LFB5
 1638 00ff 02000000 		.4byte	.LCFI13
 1639 0103 0100     		.2byte	0x1
 1640 0105 5D       		.byte	0x5d
 1641 0106 02000000 		.4byte	.LCFI13
 1642 010a 04000000 		.4byte	.LCFI14
 1643 010e 0200     		.2byte	0x2
 1644 0110 7D       		.byte	0x7d
 1645 0111 04       		.sleb128 4
 1646 0112 04000000 		.4byte	.LCFI14
 1647 0116 06000000 		.4byte	.LCFI15
 1648 011a 0200     		.2byte	0x2
 1649 011c 7D       		.byte	0x7d
 1650 011d 10       		.sleb128 16
 1651 011e 06000000 		.4byte	.LCFI15
 1652 0122 3A000000 		.4byte	.LFE5
 1653 0126 0200     		.2byte	0x2
 1654 0128 77       		.byte	0x77
 1655 0129 10       		.sleb128 16
 1656 012a 00000000 		.4byte	0x0
 1657 012e 00000000 		.4byte	0x0
 1658              	.LLST6:
 1659 0132 00000000 		.4byte	.LFB6
 1660 0136 02000000 		.4byte	.LCFI16
 1661 013a 0100     		.2byte	0x1
 1662 013c 5D       		.byte	0x5d
 1663 013d 02000000 		.4byte	.LCFI16
 1664 0141 04000000 		.4byte	.LCFI17
 1665 0145 0200     		.2byte	0x2
 1666 0147 7D       		.byte	0x7d
 1667 0148 04       		.sleb128 4
 1668 0149 04000000 		.4byte	.LCFI17
 1669 014d 18000000 		.4byte	.LFE6
 1670 0151 0200     		.2byte	0x2
ARM GAS  C:\Users\Craig\AppData\Local\Temp\ccXI8V1u.s 			page 55


 1671 0153 77       		.byte	0x77
 1672 0154 04       		.sleb128 4
 1673 0155 00000000 		.4byte	0x0
 1674 0159 00000000 		.4byte	0x0
 1675              	.LLST7:
 1676 015d 00000000 		.4byte	.LFB7
 1677 0161 02000000 		.4byte	.LCFI18
 1678 0165 0100     		.2byte	0x1
 1679 0167 5D       		.byte	0x5d
 1680 0168 02000000 		.4byte	.LCFI18
 1681 016c 04000000 		.4byte	.LCFI19
 1682 0170 0200     		.2byte	0x2
 1683 0172 7D       		.byte	0x7d
 1684 0173 04       		.sleb128 4
 1685 0174 04000000 		.4byte	.LCFI19
 1686 0178 06000000 		.4byte	.LCFI20
 1687 017c 0200     		.2byte	0x2
 1688 017e 7D       		.byte	0x7d
 1689 017f 10       		.sleb128 16
 1690 0180 06000000 		.4byte	.LCFI20
 1691 0184 44000000 		.4byte	.LFE7
 1692 0188 0200     		.2byte	0x2
 1693 018a 77       		.byte	0x77
 1694 018b 10       		.sleb128 16
 1695 018c 00000000 		.4byte	0x0
 1696 0190 00000000 		.4byte	0x0
 1697              	.LLST8:
 1698 0194 00000000 		.4byte	.LFB8
 1699 0198 02000000 		.4byte	.LCFI21
 1700 019c 0100     		.2byte	0x1
 1701 019e 5D       		.byte	0x5d
 1702 019f 02000000 		.4byte	.LCFI21
 1703 01a3 04000000 		.4byte	.LCFI22
 1704 01a7 0200     		.2byte	0x2
 1705 01a9 7D       		.byte	0x7d
 1706 01aa 04       		.sleb128 4
 1707 01ab 04000000 		.4byte	.LCFI22
 1708 01af 06000000 		.4byte	.LCFI23
 1709 01b3 0200     		.2byte	0x2
 1710 01b5 7D       		.byte	0x7d
 1711 01b6 10       		.sleb128 16
 1712 01b7 06000000 		.4byte	.LCFI23
 1713 01bb 24000000 		.4byte	.LFE8
 1714 01bf 0200     		.2byte	0x2
 1715 01c1 77       		.byte	0x77
 1716 01c2 10       		.sleb128 16
 1717 01c3 00000000 		.4byte	0x0
 1718 01c7 00000000 		.4byte	0x0
 1719              	.LLST9:
 1720 01cb 00000000 		.4byte	.LFB9
 1721 01cf 02000000 		.4byte	.LCFI24
 1722 01d3 0100     		.2byte	0x1
 1723 01d5 5D       		.byte	0x5d
 1724 01d6 02000000 		.4byte	.LCFI24
 1725 01da 04000000 		.4byte	.LCFI25
 1726 01de 0200     		.2byte	0x2
 1727 01e0 7D       		.byte	0x7d
ARM GAS  C:\Users\Craig\AppData\Local\Temp\ccXI8V1u.s 			page 56


 1728 01e1 04       		.sleb128 4
 1729 01e2 04000000 		.4byte	.LCFI25
 1730 01e6 06000000 		.4byte	.LCFI26
 1731 01ea 0200     		.2byte	0x2
 1732 01ec 7D       		.byte	0x7d
 1733 01ed 10       		.sleb128 16
 1734 01ee 06000000 		.4byte	.LCFI26
 1735 01f2 32000000 		.4byte	.LFE9
 1736 01f6 0200     		.2byte	0x2
 1737 01f8 77       		.byte	0x77
 1738 01f9 10       		.sleb128 16
 1739 01fa 00000000 		.4byte	0x0
 1740 01fe 00000000 		.4byte	0x0
 1741              	.LLST10:
 1742 0202 00000000 		.4byte	.LFB10
 1743 0206 02000000 		.4byte	.LCFI27
 1744 020a 0100     		.2byte	0x1
 1745 020c 5D       		.byte	0x5d
 1746 020d 02000000 		.4byte	.LCFI27
 1747 0211 04000000 		.4byte	.LCFI28
 1748 0215 0200     		.2byte	0x2
 1749 0217 7D       		.byte	0x7d
 1750 0218 04       		.sleb128 4
 1751 0219 04000000 		.4byte	.LCFI28
 1752 021d 06000000 		.4byte	.LCFI29
 1753 0221 0200     		.2byte	0x2
 1754 0223 7D       		.byte	0x7d
 1755 0224 18       		.sleb128 24
 1756 0225 06000000 		.4byte	.LCFI29
 1757 0229 6E000000 		.4byte	.LFE10
 1758 022d 0200     		.2byte	0x2
 1759 022f 77       		.byte	0x77
 1760 0230 18       		.sleb128 24
 1761 0231 00000000 		.4byte	0x0
 1762 0235 00000000 		.4byte	0x0
 1763              	.LLST11:
 1764 0239 00000000 		.4byte	.LFB11
 1765 023d 02000000 		.4byte	.LCFI30
 1766 0241 0100     		.2byte	0x1
 1767 0243 5D       		.byte	0x5d
 1768 0244 02000000 		.4byte	.LCFI30
 1769 0248 04000000 		.4byte	.LCFI31
 1770 024c 0200     		.2byte	0x2
 1771 024e 7D       		.byte	0x7d
 1772 024f 04       		.sleb128 4
 1773 0250 04000000 		.4byte	.LCFI31
 1774 0254 06000000 		.4byte	.LCFI32
 1775 0258 0200     		.2byte	0x2
 1776 025a 7D       		.byte	0x7d
 1777 025b 28       		.sleb128 40
 1778 025c 06000000 		.4byte	.LCFI32
 1779 0260 56010000 		.4byte	.LFE11
 1780 0264 0200     		.2byte	0x2
 1781 0266 77       		.byte	0x77
 1782 0267 28       		.sleb128 40
 1783 0268 00000000 		.4byte	0x0
 1784 026c 00000000 		.4byte	0x0
ARM GAS  C:\Users\Craig\AppData\Local\Temp\ccXI8V1u.s 			page 57


 1785              	.LLST12:
 1786 0270 00000000 		.4byte	.LFB12
 1787 0274 02000000 		.4byte	.LCFI33
 1788 0278 0100     		.2byte	0x1
 1789 027a 5D       		.byte	0x5d
 1790 027b 02000000 		.4byte	.LCFI33
 1791 027f 04000000 		.4byte	.LCFI34
 1792 0283 0200     		.2byte	0x2
 1793 0285 7D       		.byte	0x7d
 1794 0286 08       		.sleb128 8
 1795 0287 04000000 		.4byte	.LCFI34
 1796 028b 06000000 		.4byte	.LCFI35
 1797 028f 0200     		.2byte	0x2
 1798 0291 7D       		.byte	0x7d
 1799 0292 28       		.sleb128 40
 1800 0293 06000000 		.4byte	.LCFI35
 1801 0297 98000000 		.4byte	.LFE12
 1802 029b 0200     		.2byte	0x2
 1803 029d 77       		.byte	0x77
 1804 029e 28       		.sleb128 40
 1805 029f 00000000 		.4byte	0x0
 1806 02a3 00000000 		.4byte	0x0
 1807              	.LLST13:
 1808 02a7 00000000 		.4byte	.LFB13
 1809 02ab 02000000 		.4byte	.LCFI36
 1810 02af 0100     		.2byte	0x1
 1811 02b1 5D       		.byte	0x5d
 1812 02b2 02000000 		.4byte	.LCFI36
 1813 02b6 04000000 		.4byte	.LCFI37
 1814 02ba 0200     		.2byte	0x2
 1815 02bc 7D       		.byte	0x7d
 1816 02bd 04       		.sleb128 4
 1817 02be 04000000 		.4byte	.LCFI37
 1818 02c2 06000000 		.4byte	.LCFI38
 1819 02c6 0200     		.2byte	0x2
 1820 02c8 7D       		.byte	0x7d
 1821 02c9 18       		.sleb128 24
 1822 02ca 06000000 		.4byte	.LCFI38
 1823 02ce 76000000 		.4byte	.LFE13
 1824 02d2 0200     		.2byte	0x2
 1825 02d4 77       		.byte	0x77
 1826 02d5 18       		.sleb128 24
 1827 02d6 00000000 		.4byte	0x0
 1828 02da 00000000 		.4byte	0x0
 1829              	.LLST14:
 1830 02de 00000000 		.4byte	.LFB14
 1831 02e2 02000000 		.4byte	.LCFI39
 1832 02e6 0100     		.2byte	0x1
 1833 02e8 5D       		.byte	0x5d
 1834 02e9 02000000 		.4byte	.LCFI39
 1835 02ed 04000000 		.4byte	.LCFI40
 1836 02f1 0200     		.2byte	0x2
 1837 02f3 7D       		.byte	0x7d
 1838 02f4 04       		.sleb128 4
 1839 02f5 04000000 		.4byte	.LCFI40
 1840 02f9 06000000 		.4byte	.LCFI41
 1841 02fd 0200     		.2byte	0x2
ARM GAS  C:\Users\Craig\AppData\Local\Temp\ccXI8V1u.s 			page 58


 1842 02ff 7D       		.byte	0x7d
 1843 0300 18       		.sleb128 24
 1844 0301 06000000 		.4byte	.LCFI41
 1845 0305 40000000 		.4byte	.LFE14
 1846 0309 0200     		.2byte	0x2
 1847 030b 77       		.byte	0x77
 1848 030c 18       		.sleb128 24
 1849 030d 00000000 		.4byte	0x0
 1850 0311 00000000 		.4byte	0x0
 1851              	.LLST15:
 1852 0315 00000000 		.4byte	.LFB15
 1853 0319 02000000 		.4byte	.LCFI42
 1854 031d 0100     		.2byte	0x1
 1855 031f 5D       		.byte	0x5d
 1856 0320 02000000 		.4byte	.LCFI42
 1857 0324 04000000 		.4byte	.LCFI43
 1858 0328 0200     		.2byte	0x2
 1859 032a 7D       		.byte	0x7d
 1860 032b 04       		.sleb128 4
 1861 032c 04000000 		.4byte	.LCFI43
 1862 0330 06000000 		.4byte	.LCFI44
 1863 0334 0200     		.2byte	0x2
 1864 0336 7D       		.byte	0x7d
 1865 0337 10       		.sleb128 16
 1866 0338 06000000 		.4byte	.LCFI44
 1867 033c 20000000 		.4byte	.LFE15
 1868 0340 0200     		.2byte	0x2
 1869 0342 77       		.byte	0x77
 1870 0343 10       		.sleb128 16
 1871 0344 00000000 		.4byte	0x0
 1872 0348 00000000 		.4byte	0x0
 1873              	.LLST16:
 1874 034c 00000000 		.4byte	.LFB16
 1875 0350 02000000 		.4byte	.LCFI45
 1876 0354 0100     		.2byte	0x1
 1877 0356 5D       		.byte	0x5d
 1878 0357 02000000 		.4byte	.LCFI45
 1879 035b 04000000 		.4byte	.LCFI46
 1880 035f 0200     		.2byte	0x2
 1881 0361 7D       		.byte	0x7d
 1882 0362 04       		.sleb128 4
 1883 0363 04000000 		.4byte	.LCFI46
 1884 0367 06000000 		.4byte	.LCFI47
 1885 036b 0200     		.2byte	0x2
 1886 036d 7D       		.byte	0x7d
 1887 036e 18       		.sleb128 24
 1888 036f 06000000 		.4byte	.LCFI47
 1889 0373 4E000000 		.4byte	.LFE16
 1890 0377 0200     		.2byte	0x2
 1891 0379 77       		.byte	0x77
 1892 037a 18       		.sleb128 24
 1893 037b 00000000 		.4byte	0x0
 1894 037f 00000000 		.4byte	0x0
 1895              	.LLST17:
 1896 0383 00000000 		.4byte	.LFB17
 1897 0387 02000000 		.4byte	.LCFI48
 1898 038b 0100     		.2byte	0x1
ARM GAS  C:\Users\Craig\AppData\Local\Temp\ccXI8V1u.s 			page 59


 1899 038d 5D       		.byte	0x5d
 1900 038e 02000000 		.4byte	.LCFI48
 1901 0392 04000000 		.4byte	.LCFI49
 1902 0396 0200     		.2byte	0x2
 1903 0398 7D       		.byte	0x7d
 1904 0399 04       		.sleb128 4
 1905 039a 04000000 		.4byte	.LCFI49
 1906 039e 06000000 		.4byte	.LCFI50
 1907 03a2 0200     		.2byte	0x2
 1908 03a4 7D       		.byte	0x7d
 1909 03a5 10       		.sleb128 16
 1910 03a6 06000000 		.4byte	.LCFI50
 1911 03aa 54000000 		.4byte	.LFE17
 1912 03ae 0200     		.2byte	0x2
 1913 03b0 77       		.byte	0x77
 1914 03b1 10       		.sleb128 16
 1915 03b2 00000000 		.4byte	0x0
 1916 03b6 00000000 		.4byte	0x0
 1917              	.LLST18:
 1918 03ba 00000000 		.4byte	.LFB18
 1919 03be 02000000 		.4byte	.LCFI51
 1920 03c2 0100     		.2byte	0x1
 1921 03c4 5D       		.byte	0x5d
 1922 03c5 02000000 		.4byte	.LCFI51
 1923 03c9 04000000 		.4byte	.LCFI52
 1924 03cd 0200     		.2byte	0x2
 1925 03cf 7D       		.byte	0x7d
 1926 03d0 04       		.sleb128 4
 1927 03d1 04000000 		.4byte	.LCFI52
 1928 03d5 06000000 		.4byte	.LCFI53
 1929 03d9 0200     		.2byte	0x2
 1930 03db 7D       		.byte	0x7d
 1931 03dc 10       		.sleb128 16
 1932 03dd 06000000 		.4byte	.LCFI53
 1933 03e1 34000000 		.4byte	.LFE18
 1934 03e5 0200     		.2byte	0x2
 1935 03e7 77       		.byte	0x77
 1936 03e8 10       		.sleb128 16
 1937 03e9 00000000 		.4byte	0x0
 1938 03ed 00000000 		.4byte	0x0
 1939              		.file 2 "./Generated_Source/PSoC5/cytypes.h"
 1940              		.file 3 ".\\Generated_Source\\PSoC5\\/USB.h"
 1941              		.section	.debug_info
 1942 0000 FB050000 		.4byte	0x5fb
 1943 0004 0200     		.2byte	0x2
 1944 0006 00000000 		.4byte	.Ldebug_abbrev0
 1945 000a 04       		.byte	0x4
 1946 000b 01       		.uleb128 0x1
 1947 000c 82000000 		.4byte	.LASF63
 1948 0010 01       		.byte	0x1
 1949 0011 43010000 		.4byte	.LASF64
 1950 0015 6E030000 		.4byte	.LASF65
 1951 0019 00000000 		.4byte	0x0
 1952 001d 00000000 		.4byte	0x0
 1953 0021 00000000 		.4byte	.Ldebug_ranges0+0x0
 1954 0025 00000000 		.4byte	.Ldebug_line0
 1955 0029 02       		.uleb128 0x2
ARM GAS  C:\Users\Craig\AppData\Local\Temp\ccXI8V1u.s 			page 60


 1956 002a 01       		.byte	0x1
 1957 002b 06       		.byte	0x6
 1958 002c ED000000 		.4byte	.LASF0
 1959 0030 02       		.uleb128 0x2
 1960 0031 01       		.byte	0x1
 1961 0032 08       		.byte	0x8
 1962 0033 9A020000 		.4byte	.LASF1
 1963 0037 02       		.uleb128 0x2
 1964 0038 02       		.byte	0x2
 1965 0039 05       		.byte	0x5
 1966 003a A8020000 		.4byte	.LASF2
 1967 003e 02       		.uleb128 0x2
 1968 003f 02       		.byte	0x2
 1969 0040 07       		.byte	0x7
 1970 0041 B4010000 		.4byte	.LASF3
 1971 0045 02       		.uleb128 0x2
 1972 0046 04       		.byte	0x4
 1973 0047 05       		.byte	0x5
 1974 0048 18010000 		.4byte	.LASF4
 1975 004c 02       		.uleb128 0x2
 1976 004d 04       		.byte	0x4
 1977 004e 07       		.byte	0x7
 1978 004f A2010000 		.4byte	.LASF5
 1979 0053 02       		.uleb128 0x2
 1980 0054 08       		.byte	0x8
 1981 0055 05       		.byte	0x5
 1982 0056 DF000000 		.4byte	.LASF6
 1983 005a 02       		.uleb128 0x2
 1984 005b 08       		.byte	0x8
 1985 005c 07       		.byte	0x7
 1986 005d 66000000 		.4byte	.LASF7
 1987 0061 03       		.uleb128 0x3
 1988 0062 04       		.byte	0x4
 1989 0063 05       		.byte	0x5
 1990 0064 696E7400 		.ascii	"int\000"
 1991 0068 02       		.uleb128 0x2
 1992 0069 04       		.byte	0x4
 1993 006a 07       		.byte	0x7
 1994 006b 95010000 		.4byte	.LASF8
 1995 006f 04       		.uleb128 0x4
 1996 0070 21010000 		.4byte	.LASF9
 1997 0074 02       		.byte	0x2
 1998 0075 4C       		.byte	0x4c
 1999 0076 30000000 		.4byte	0x30
 2000 007a 04       		.uleb128 0x4
 2001 007b 06000000 		.4byte	.LASF10
 2002 007f 02       		.byte	0x2
 2003 0080 4D       		.byte	0x4d
 2004 0081 3E000000 		.4byte	0x3e
 2005 0085 02       		.uleb128 0x2
 2006 0086 04       		.byte	0x4
 2007 0087 04       		.byte	0x4
 2008 0088 38020000 		.4byte	.LASF11
 2009 008c 02       		.uleb128 0x2
 2010 008d 08       		.byte	0x8
 2011 008e 04       		.byte	0x4
 2012 008f 30010000 		.4byte	.LASF12
ARM GAS  C:\Users\Craig\AppData\Local\Temp\ccXI8V1u.s 			page 61


 2013 0093 02       		.uleb128 0x2
 2014 0094 01       		.byte	0x1
 2015 0095 08       		.byte	0x8
 2016 0096 13030000 		.4byte	.LASF13
 2017 009a 05       		.uleb128 0x5
 2018 009b 6F000000 		.4byte	0x6f
 2019 009f 06       		.uleb128 0x6
 2020 00a0 04       		.byte	0x4
 2021 00a1 07       		.byte	0x7
 2022 00a2 07       		.uleb128 0x7
 2023 00a3 56000000 		.4byte	.LASF66
 2024 00a7 0C       		.byte	0xc
 2025 00a8 03       		.byte	0x3
 2026 00a9 70       		.byte	0x70
 2027 00aa 2D010000 		.4byte	0x12d
 2028 00ae 08       		.uleb128 0x8
 2029 00af F6010000 		.4byte	.LASF14
 2030 00b3 03       		.byte	0x3
 2031 00b4 71       		.byte	0x71
 2032 00b5 6F000000 		.4byte	0x6f
 2033 00b9 02       		.byte	0x2
 2034 00ba 23       		.byte	0x23
 2035 00bb 00       		.uleb128 0x0
 2036 00bc 08       		.uleb128 0x8
 2037 00bd 3E020000 		.4byte	.LASF15
 2038 00c1 03       		.byte	0x3
 2039 00c2 72       		.byte	0x72
 2040 00c3 6F000000 		.4byte	0x6f
 2041 00c7 02       		.byte	0x2
 2042 00c8 23       		.byte	0x23
 2043 00c9 01       		.uleb128 0x1
 2044 00ca 08       		.uleb128 0x8
 2045 00cb EC010000 		.4byte	.LASF16
 2046 00cf 03       		.byte	0x3
 2047 00d0 73       		.byte	0x73
 2048 00d1 6F000000 		.4byte	0x6f
 2049 00d5 02       		.byte	0x2
 2050 00d6 23       		.byte	0x23
 2051 00d7 02       		.uleb128 0x2
 2052 00d8 08       		.uleb128 0x8
 2053 00d9 27010000 		.4byte	.LASF17
 2054 00dd 03       		.byte	0x3
 2055 00de 74       		.byte	0x74
 2056 00df 6F000000 		.4byte	0x6f
 2057 00e3 02       		.byte	0x2
 2058 00e4 23       		.byte	0x23
 2059 00e5 03       		.uleb128 0x3
 2060 00e6 08       		.uleb128 0x8
 2061 00e7 7D000000 		.4byte	.LASF18
 2062 00eb 03       		.byte	0x3
 2063 00ec 75       		.byte	0x75
 2064 00ed 6F000000 		.4byte	0x6f
 2065 00f1 02       		.byte	0x2
 2066 00f2 23       		.byte	0x23
 2067 00f3 04       		.uleb128 0x4
 2068 00f4 08       		.uleb128 0x8
 2069 00f5 7C010000 		.4byte	.LASF19
ARM GAS  C:\Users\Craig\AppData\Local\Temp\ccXI8V1u.s 			page 62


 2070 00f9 03       		.byte	0x3
 2071 00fa 76       		.byte	0x76
 2072 00fb 6F000000 		.4byte	0x6f
 2073 00ff 02       		.byte	0x2
 2074 0100 23       		.byte	0x23
 2075 0101 05       		.uleb128 0x5
 2076 0102 08       		.uleb128 0x8
 2077 0103 28030000 		.4byte	.LASF20
 2078 0107 03       		.byte	0x3
 2079 0108 77       		.byte	0x77
 2080 0109 7A000000 		.4byte	0x7a
 2081 010d 02       		.byte	0x2
 2082 010e 23       		.byte	0x23
 2083 010f 06       		.uleb128 0x6
 2084 0110 08       		.uleb128 0x8
 2085 0111 1D030000 		.4byte	.LASF21
 2086 0115 03       		.byte	0x3
 2087 0116 78       		.byte	0x78
 2088 0117 7A000000 		.4byte	0x7a
 2089 011b 02       		.byte	0x2
 2090 011c 23       		.byte	0x23
 2091 011d 08       		.uleb128 0x8
 2092 011e 08       		.uleb128 0x8
 2093 011f D1010000 		.4byte	.LASF22
 2094 0123 03       		.byte	0x3
 2095 0124 79       		.byte	0x79
 2096 0125 6F000000 		.4byte	0x6f
 2097 0129 02       		.byte	0x2
 2098 012a 23       		.byte	0x23
 2099 012b 0A       		.uleb128 0xa
 2100 012c 00       		.byte	0x0
 2101 012d 04       		.uleb128 0x4
 2102 012e B3000000 		.4byte	.LASF23
 2103 0132 03       		.byte	0x3
 2104 0133 7A       		.byte	0x7a
 2105 0134 A2000000 		.4byte	0xa2
 2106 0138 09       		.uleb128 0x9
 2107 0139 01       		.byte	0x1
 2108 013a C7010000 		.4byte	.LASF26
 2109 013e 01       		.byte	0x1
 2110 013f A5       		.byte	0xa5
 2111 0140 01       		.byte	0x1
 2112 0141 00000000 		.4byte	.LFB0
 2113 0145 42000000 		.4byte	.LFE0
 2114 0149 00000000 		.4byte	.LLST0
 2115 014d 6E010000 		.4byte	0x16e
 2116 0151 0A       		.uleb128 0xa
 2117 0152 D8000000 		.4byte	.LASF24
 2118 0156 01       		.byte	0x1
 2119 0157 A5       		.byte	0xa5
 2120 0158 6F000000 		.4byte	0x6f
 2121 015c 02       		.byte	0x2
 2122 015d 91       		.byte	0x91
 2123 015e 77       		.sleb128 -9
 2124 015f 0A       		.uleb128 0xa
 2125 0160 18030000 		.4byte	.LASF25
 2126 0164 01       		.byte	0x1
ARM GAS  C:\Users\Craig\AppData\Local\Temp\ccXI8V1u.s 			page 63


 2127 0165 A5       		.byte	0xa5
 2128 0166 6F000000 		.4byte	0x6f
 2129 016a 02       		.byte	0x2
 2130 016b 91       		.byte	0x91
 2131 016c 76       		.sleb128 -10
 2132 016d 00       		.byte	0x0
 2133 016e 09       		.uleb128 0x9
 2134 016f 01       		.byte	0x1
 2135 0170 FD010000 		.4byte	.LASF27
 2136 0174 01       		.byte	0x1
 2137 0175 C2       		.byte	0xc2
 2138 0176 01       		.byte	0x1
 2139 0177 00000000 		.4byte	.LFB1
 2140 017b 10020000 		.4byte	.LFE1
 2141 017f 37000000 		.4byte	.LLST1
 2142 0183 96010000 		.4byte	0x196
 2143 0187 0B       		.uleb128 0xb
 2144 0188 53030000 		.4byte	.LASF29
 2145 018c 01       		.byte	0x1
 2146 018d C4       		.byte	0xc4
 2147 018e 6F000000 		.4byte	0x6f
 2148 0192 02       		.byte	0x2
 2149 0193 91       		.byte	0x91
 2150 0194 77       		.sleb128 -9
 2151 0195 00       		.byte	0x0
 2152 0196 0C       		.uleb128 0xc
 2153 0197 01       		.byte	0x1
 2154 0198 0D000000 		.4byte	.LASF28
 2155 019c 01       		.byte	0x1
 2156 019d 8B01     		.2byte	0x18b
 2157 019f 01       		.byte	0x1
 2158 01a0 00000000 		.4byte	.LFB2
 2159 01a4 28010000 		.4byte	.LFE2
 2160 01a8 6E000000 		.4byte	.LLST2
 2161 01ac CF010000 		.4byte	0x1cf
 2162 01b0 0D       		.uleb128 0xd
 2163 01b1 D8000000 		.4byte	.LASF24
 2164 01b5 01       		.byte	0x1
 2165 01b6 8B01     		.2byte	0x18b
 2166 01b8 6F000000 		.4byte	0x6f
 2167 01bc 02       		.byte	0x2
 2168 01bd 91       		.byte	0x91
 2169 01be 77       		.sleb128 -9
 2170 01bf 0D       		.uleb128 0xd
 2171 01c0 18030000 		.4byte	.LASF25
 2172 01c4 01       		.byte	0x1
 2173 01c5 8B01     		.2byte	0x18b
 2174 01c7 6F000000 		.4byte	0x6f
 2175 01cb 02       		.byte	0x2
 2176 01cc 91       		.byte	0x91
 2177 01cd 76       		.sleb128 -10
 2178 01ce 00       		.byte	0x0
 2179 01cf 0E       		.uleb128 0xe
 2180 01d0 01       		.byte	0x1
 2181 01d1 B2020000 		.4byte	.LASF67
 2182 01d5 01       		.byte	0x1
 2183 01d6 1C02     		.2byte	0x21c
ARM GAS  C:\Users\Craig\AppData\Local\Temp\ccXI8V1u.s 			page 64


 2184 01d8 00000000 		.4byte	.LFB3
 2185 01dc 88000000 		.4byte	.LFE3
 2186 01e0 A5000000 		.4byte	.LLST3
 2187 01e4 0F       		.uleb128 0xf
 2188 01e5 01       		.byte	0x1
 2189 01e6 CF000000 		.4byte	.LASF68
 2190 01ea 01       		.byte	0x1
 2191 01eb 5E02     		.2byte	0x25e
 2192 01ed 01       		.byte	0x1
 2193 01ee 00000000 		.4byte	.LFB4
 2194 01f2 FE000000 		.4byte	.LFE4
 2195 01f6 D0000000 		.4byte	.LLST4
 2196 01fa 10       		.uleb128 0x10
 2197 01fb 01       		.byte	0x1
 2198 01fc 88020000 		.4byte	.LASF30
 2199 0200 01       		.byte	0x1
 2200 0201 A902     		.2byte	0x2a9
 2201 0203 01       		.byte	0x1
 2202 0204 6F000000 		.4byte	0x6f
 2203 0208 00000000 		.4byte	.LFB5
 2204 020c 3A000000 		.4byte	.LFE5
 2205 0210 FB000000 		.4byte	.LLST5
 2206 0214 26020000 		.4byte	0x226
 2207 0218 11       		.uleb128 0x11
 2208 0219 7200     		.ascii	"r\000"
 2209 021b 01       		.byte	0x1
 2210 021c AB02     		.2byte	0x2ab
 2211 021e 6F000000 		.4byte	0x6f
 2212 0222 02       		.byte	0x2
 2213 0223 91       		.byte	0x91
 2214 0224 77       		.sleb128 -9
 2215 0225 00       		.byte	0x0
 2216 0226 12       		.uleb128 0x12
 2217 0227 01       		.byte	0x1
 2218 0228 5B020000 		.4byte	.LASF69
 2219 022c 01       		.byte	0x1
 2220 022d C202     		.2byte	0x2c2
 2221 022f 01       		.byte	0x1
 2222 0230 6F000000 		.4byte	0x6f
 2223 0234 00000000 		.4byte	.LFB6
 2224 0238 18000000 		.4byte	.LFE6
 2225 023c 32010000 		.4byte	.LLST6
 2226 0240 10       		.uleb128 0x10
 2227 0241 01       		.byte	0x1
 2228 0242 E0020000 		.4byte	.LASF31
 2229 0246 01       		.byte	0x1
 2230 0247 DC02     		.2byte	0x2dc
 2231 0249 01       		.byte	0x1
 2232 024a 6F000000 		.4byte	0x6f
 2233 024e 00000000 		.4byte	.LFB7
 2234 0252 44000000 		.4byte	.LFE7
 2235 0256 5D010000 		.4byte	.LLST7
 2236 025a 6E020000 		.4byte	0x26e
 2237 025e 11       		.uleb128 0x11
 2238 025f 72657300 		.ascii	"res\000"
 2239 0263 01       		.byte	0x1
 2240 0264 DE02     		.2byte	0x2de
ARM GAS  C:\Users\Craig\AppData\Local\Temp\ccXI8V1u.s 			page 65


 2241 0266 6F000000 		.4byte	0x6f
 2242 026a 02       		.byte	0x2
 2243 026b 91       		.byte	0x91
 2244 026c 77       		.sleb128 -9
 2245 026d 00       		.byte	0x0
 2246 026e 10       		.uleb128 0x10
 2247 026f 01       		.byte	0x1
 2248 0270 70020000 		.4byte	.LASF32
 2249 0274 01       		.byte	0x1
 2250 0275 F802     		.2byte	0x2f8
 2251 0277 01       		.byte	0x1
 2252 0278 6F000000 		.4byte	0x6f
 2253 027c 00000000 		.4byte	.LFB8
 2254 0280 24000000 		.4byte	.LFE8
 2255 0284 94010000 		.4byte	.LLST8
 2256 0288 9C020000 		.4byte	0x29c
 2257 028c 0D       		.uleb128 0xd
 2258 028d 8E000000 		.4byte	.LASF33
 2259 0291 01       		.byte	0x1
 2260 0292 F802     		.2byte	0x2f8
 2261 0294 6F000000 		.4byte	0x6f
 2262 0298 02       		.byte	0x2
 2263 0299 91       		.byte	0x91
 2264 029a 77       		.sleb128 -9
 2265 029b 00       		.byte	0x0
 2266 029c 10       		.uleb128 0x10
 2267 029d 01       		.byte	0x1
 2268 029e 33030000 		.4byte	.LASF34
 2269 02a2 01       		.byte	0x1
 2270 02a3 0D03     		.2byte	0x30d
 2271 02a5 01       		.byte	0x1
 2272 02a6 6F000000 		.4byte	0x6f
 2273 02aa 00000000 		.4byte	.LFB9
 2274 02ae 32000000 		.4byte	.LFE9
 2275 02b2 CB010000 		.4byte	.LLST9
 2276 02b6 CA020000 		.4byte	0x2ca
 2277 02ba 0D       		.uleb128 0xd
 2278 02bb C6000000 		.4byte	.LASF35
 2279 02bf 01       		.byte	0x1
 2280 02c0 0D03     		.2byte	0x30d
 2281 02c2 6F000000 		.4byte	0x6f
 2282 02c6 02       		.byte	0x2
 2283 02c7 91       		.byte	0x91
 2284 02c8 77       		.sleb128 -9
 2285 02c9 00       		.byte	0x0
 2286 02ca 10       		.uleb128 0x10
 2287 02cb 01       		.byte	0x1
 2288 02cc C6030000 		.4byte	.LASF36
 2289 02d0 01       		.byte	0x1
 2290 02d1 2603     		.2byte	0x326
 2291 02d3 01       		.byte	0x1
 2292 02d4 7A000000 		.4byte	0x7a
 2293 02d8 00000000 		.4byte	.LFB10
 2294 02dc 6E000000 		.4byte	.LFE10
 2295 02e0 02020000 		.4byte	.LLST10
 2296 02e4 15030000 		.4byte	0x315
 2297 02e8 0D       		.uleb128 0xd
ARM GAS  C:\Users\Craig\AppData\Local\Temp\ccXI8V1u.s 			page 66


 2298 02e9 C6000000 		.4byte	.LASF35
 2299 02ed 01       		.byte	0x1
 2300 02ee 2603     		.2byte	0x326
 2301 02f0 6F000000 		.4byte	0x6f
 2302 02f4 02       		.byte	0x2
 2303 02f5 91       		.byte	0x91
 2304 02f6 6F       		.sleb128 -17
 2305 02f7 11       		.uleb128 0x11
 2306 02f8 726900   		.ascii	"ri\000"
 2307 02fb 01       		.byte	0x1
 2308 02fc 2803     		.2byte	0x328
 2309 02fe 6F000000 		.4byte	0x6f
 2310 0302 02       		.byte	0x2
 2311 0303 91       		.byte	0x91
 2312 0304 75       		.sleb128 -11
 2313 0305 13       		.uleb128 0x13
 2314 0306 00000000 		.4byte	.LASF37
 2315 030a 01       		.byte	0x1
 2316 030b 2903     		.2byte	0x329
 2317 030d 7A000000 		.4byte	0x7a
 2318 0311 02       		.byte	0x2
 2319 0312 91       		.byte	0x91
 2320 0313 76       		.sleb128 -10
 2321 0314 00       		.byte	0x0
 2322 0315 0C       		.uleb128 0xc
 2323 0316 01       		.byte	0x1
 2324 0317 24020000 		.4byte	.LASF38
 2325 031b 01       		.byte	0x1
 2326 031c D903     		.2byte	0x3d9
 2327 031e 01       		.byte	0x1
 2328 031f 00000000 		.4byte	.LFB11
 2329 0323 56010000 		.4byte	.LFE11
 2330 0327 39020000 		.4byte	.LLST11
 2331 032b 85030000 		.4byte	0x385
 2332 032f 0D       		.uleb128 0xd
 2333 0330 C6000000 		.4byte	.LASF35
 2334 0334 01       		.byte	0x1
 2335 0335 D903     		.2byte	0x3d9
 2336 0337 6F000000 		.4byte	0x6f
 2337 033b 02       		.byte	0x2
 2338 033c 91       		.byte	0x91
 2339 033d 67       		.sleb128 -25
 2340 033e 0D       		.uleb128 0xd
 2341 033f 76010000 		.4byte	.LASF39
 2342 0343 01       		.byte	0x1
 2343 0344 D903     		.2byte	0x3d9
 2344 0346 85030000 		.4byte	0x385
 2345 034a 02       		.byte	0x2
 2346 034b 91       		.byte	0x91
 2347 034c 60       		.sleb128 -32
 2348 034d 0D       		.uleb128 0xd
 2349 034e 0C030000 		.4byte	.LASF40
 2350 0352 01       		.byte	0x1
 2351 0353 D903     		.2byte	0x3d9
 2352 0355 7A000000 		.4byte	0x7a
 2353 0359 02       		.byte	0x2
 2354 035a 91       		.byte	0x91
ARM GAS  C:\Users\Craig\AppData\Local\Temp\ccXI8V1u.s 			page 67


 2355 035b 5E       		.sleb128 -34
 2356 035c 11       		.uleb128 0x11
 2357 035d 726900   		.ascii	"ri\000"
 2358 0360 01       		.byte	0x1
 2359 0361 DC03     		.2byte	0x3dc
 2360 0363 6F000000 		.4byte	0x6f
 2361 0367 02       		.byte	0x2
 2362 0368 91       		.byte	0x91
 2363 0369 6F       		.sleb128 -17
 2364 036a 11       		.uleb128 0x11
 2365 036b 7000     		.ascii	"p\000"
 2366 036d 01       		.byte	0x1
 2367 036e DD03     		.2byte	0x3dd
 2368 0370 85030000 		.4byte	0x385
 2369 0374 02       		.byte	0x2
 2370 0375 91       		.byte	0x91
 2371 0376 70       		.sleb128 -16
 2372 0377 11       		.uleb128 0x11
 2373 0378 6900     		.ascii	"i\000"
 2374 037a 01       		.byte	0x1
 2375 037b DF03     		.2byte	0x3df
 2376 037d 7A000000 		.4byte	0x7a
 2377 0381 02       		.byte	0x2
 2378 0382 91       		.byte	0x91
 2379 0383 76       		.sleb128 -10
 2380 0384 00       		.byte	0x0
 2381 0385 14       		.uleb128 0x14
 2382 0386 04       		.byte	0x4
 2383 0387 6F000000 		.4byte	0x6f
 2384 038b 10       		.uleb128 0x10
 2385 038c 01       		.byte	0x1
 2386 038d D2020000 		.4byte	.LASF41
 2387 0391 01       		.byte	0x1
 2388 0392 5B04     		.2byte	0x45b
 2389 0394 01       		.byte	0x1
 2390 0395 7A000000 		.4byte	0x7a
 2391 0399 00000000 		.4byte	.LFB12
 2392 039d 98000000 		.4byte	.LFE12
 2393 03a1 70020000 		.4byte	.LLST12
 2394 03a5 0E040000 		.4byte	0x40e
 2395 03a9 0D       		.uleb128 0xd
 2396 03aa C6000000 		.4byte	.LASF35
 2397 03ae 01       		.byte	0x1
 2398 03af 5B04     		.2byte	0x45b
 2399 03b1 6F000000 		.4byte	0x6f
 2400 03b5 02       		.byte	0x2
 2401 03b6 91       		.byte	0x91
 2402 03b7 67       		.sleb128 -25
 2403 03b8 0D       		.uleb128 0xd
 2404 03b9 76010000 		.4byte	.LASF39
 2405 03bd 01       		.byte	0x1
 2406 03be 5B04     		.2byte	0x45b
 2407 03c0 85030000 		.4byte	0x385
 2408 03c4 02       		.byte	0x2
 2409 03c5 91       		.byte	0x91
 2410 03c6 60       		.sleb128 -32
 2411 03c7 0D       		.uleb128 0xd
ARM GAS  C:\Users\Craig\AppData\Local\Temp\ccXI8V1u.s 			page 68


 2412 03c8 0C030000 		.4byte	.LASF40
 2413 03cc 01       		.byte	0x1
 2414 03cd 5B04     		.2byte	0x45b
 2415 03cf 7A000000 		.4byte	0x7a
 2416 03d3 02       		.byte	0x2
 2417 03d4 91       		.byte	0x91
 2418 03d5 5E       		.sleb128 -34
 2419 03d6 11       		.uleb128 0x11
 2420 03d7 726900   		.ascii	"ri\000"
 2421 03da 01       		.byte	0x1
 2422 03db 5E04     		.2byte	0x45e
 2423 03dd 6F000000 		.4byte	0x6f
 2424 03e1 02       		.byte	0x2
 2425 03e2 91       		.byte	0x91
 2426 03e3 6F       		.sleb128 -17
 2427 03e4 11       		.uleb128 0x11
 2428 03e5 7000     		.ascii	"p\000"
 2429 03e7 01       		.byte	0x1
 2430 03e8 5F04     		.2byte	0x45f
 2431 03ea 85030000 		.4byte	0x385
 2432 03ee 02       		.byte	0x2
 2433 03ef 91       		.byte	0x91
 2434 03f0 70       		.sleb128 -16
 2435 03f1 11       		.uleb128 0x11
 2436 03f2 6900     		.ascii	"i\000"
 2437 03f4 01       		.byte	0x1
 2438 03f5 6104     		.2byte	0x461
 2439 03f7 7A000000 		.4byte	0x7a
 2440 03fb 02       		.byte	0x2
 2441 03fc 91       		.byte	0x91
 2442 03fd 74       		.sleb128 -12
 2443 03fe 13       		.uleb128 0x13
 2444 03ff 64030000 		.4byte	.LASF42
 2445 0403 01       		.byte	0x1
 2446 0404 6404     		.2byte	0x464
 2447 0406 7A000000 		.4byte	0x7a
 2448 040a 02       		.byte	0x2
 2449 040b 91       		.byte	0x91
 2450 040c 76       		.sleb128 -10
 2451 040d 00       		.byte	0x0
 2452 040e 0C       		.uleb128 0xc
 2453 040f 01       		.byte	0x1
 2454 0410 F9000000 		.4byte	.LASF43
 2455 0414 01       		.byte	0x1
 2456 0415 C504     		.2byte	0x4c5
 2457 0417 01       		.byte	0x1
 2458 0418 00000000 		.4byte	.LFB13
 2459 041c 76000000 		.4byte	.LFE13
 2460 0420 A7020000 		.4byte	.LLST13
 2461 0424 46040000 		.4byte	0x446
 2462 0428 0D       		.uleb128 0xd
 2463 0429 C6000000 		.4byte	.LASF35
 2464 042d 01       		.byte	0x1
 2465 042e C504     		.2byte	0x4c5
 2466 0430 6F000000 		.4byte	0x6f
 2467 0434 02       		.byte	0x2
 2468 0435 91       		.byte	0x91
ARM GAS  C:\Users\Craig\AppData\Local\Temp\ccXI8V1u.s 			page 69


 2469 0436 6F       		.sleb128 -17
 2470 0437 11       		.uleb128 0x11
 2471 0438 726900   		.ascii	"ri\000"
 2472 043b 01       		.byte	0x1
 2473 043c C704     		.2byte	0x4c7
 2474 043e 6F000000 		.4byte	0x6f
 2475 0442 02       		.byte	0x2
 2476 0443 91       		.byte	0x91
 2477 0444 77       		.sleb128 -9
 2478 0445 00       		.byte	0x0
 2479 0446 0C       		.uleb128 0xc
 2480 0447 01       		.byte	0x1
 2481 0448 42030000 		.4byte	.LASF44
 2482 044c 01       		.byte	0x1
 2483 044d E304     		.2byte	0x4e3
 2484 044f 01       		.byte	0x1
 2485 0450 00000000 		.4byte	.LFB14
 2486 0454 40000000 		.4byte	.LFE14
 2487 0458 DE020000 		.4byte	.LLST14
 2488 045c 7E040000 		.4byte	0x47e
 2489 0460 0D       		.uleb128 0xd
 2490 0461 C6000000 		.4byte	.LASF35
 2491 0465 01       		.byte	0x1
 2492 0466 E304     		.2byte	0x4e3
 2493 0468 6F000000 		.4byte	0x6f
 2494 046c 02       		.byte	0x2
 2495 046d 91       		.byte	0x91
 2496 046e 6F       		.sleb128 -17
 2497 046f 11       		.uleb128 0x11
 2498 0470 726900   		.ascii	"ri\000"
 2499 0473 01       		.byte	0x1
 2500 0474 E504     		.2byte	0x4e5
 2501 0476 6F000000 		.4byte	0x6f
 2502 047a 02       		.byte	0x2
 2503 047b 91       		.byte	0x91
 2504 047c 77       		.sleb128 -9
 2505 047d 00       		.byte	0x0
 2506 047e 0C       		.uleb128 0xc
 2507 047f 01       		.byte	0x1
 2508 0480 FB020000 		.4byte	.LASF45
 2509 0484 01       		.byte	0x1
 2510 0485 0205     		.2byte	0x502
 2511 0487 01       		.byte	0x1
 2512 0488 00000000 		.4byte	.LFB15
 2513 048c 20000000 		.4byte	.LFE15
 2514 0490 15030000 		.4byte	.LLST15
 2515 0494 A8040000 		.4byte	0x4a8
 2516 0498 0D       		.uleb128 0xd
 2517 0499 05030000 		.4byte	.LASF46
 2518 049d 01       		.byte	0x1
 2519 049e 0205     		.2byte	0x502
 2520 04a0 6F000000 		.4byte	0x6f
 2521 04a4 02       		.byte	0x2
 2522 04a5 91       		.byte	0x91
 2523 04a6 77       		.sleb128 -9
 2524 04a7 00       		.byte	0x0
 2525 04a8 10       		.uleb128 0x10
ARM GAS  C:\Users\Craig\AppData\Local\Temp\ccXI8V1u.s 			page 70


 2526 04a9 01       		.byte	0x1
 2527 04aa 83010000 		.4byte	.LASF47
 2528 04ae 01       		.byte	0x1
 2529 04af 1705     		.2byte	0x517
 2530 04b1 01       		.byte	0x1
 2531 04b2 6F000000 		.4byte	0x6f
 2532 04b6 00000000 		.4byte	.LFB16
 2533 04ba 4E000000 		.4byte	.LFE16
 2534 04be 4C030000 		.4byte	.LLST16
 2535 04c2 F2040000 		.4byte	0x4f2
 2536 04c6 0D       		.uleb128 0xd
 2537 04c7 C6000000 		.4byte	.LASF35
 2538 04cb 01       		.byte	0x1
 2539 04cc 1705     		.2byte	0x517
 2540 04ce 6F000000 		.4byte	0x6f
 2541 04d2 02       		.byte	0x2
 2542 04d3 91       		.byte	0x91
 2543 04d4 6F       		.sleb128 -17
 2544 04d5 11       		.uleb128 0x11
 2545 04d6 726900   		.ascii	"ri\000"
 2546 04d9 01       		.byte	0x1
 2547 04da 1905     		.2byte	0x519
 2548 04dc 6F000000 		.4byte	0x6f
 2549 04e0 02       		.byte	0x2
 2550 04e1 91       		.byte	0x91
 2551 04e2 76       		.sleb128 -10
 2552 04e3 11       		.uleb128 0x11
 2553 04e4 637200   		.ascii	"cr\000"
 2554 04e7 01       		.byte	0x1
 2555 04e8 1A05     		.2byte	0x51a
 2556 04ea 6F000000 		.4byte	0x6f
 2557 04ee 02       		.byte	0x2
 2558 04ef 91       		.byte	0x91
 2559 04f0 77       		.sleb128 -9
 2560 04f1 00       		.byte	0x0
 2561 04f2 0C       		.uleb128 0xc
 2562 04f3 01       		.byte	0x1
 2563 04f4 06020000 		.4byte	.LASF48
 2564 04f8 01       		.byte	0x1
 2565 04f9 3C05     		.2byte	0x53c
 2566 04fb 01       		.byte	0x1
 2567 04fc 00000000 		.4byte	.LFB17
 2568 0500 54000000 		.4byte	.LFE17
 2569 0504 83030000 		.4byte	.LLST17
 2570 0508 1C050000 		.4byte	0x51c
 2571 050c 0D       		.uleb128 0xd
 2572 050d 37010000 		.4byte	.LASF49
 2573 0511 01       		.byte	0x1
 2574 0512 3C05     		.2byte	0x53c
 2575 0514 6F000000 		.4byte	0x6f
 2576 0518 02       		.byte	0x2
 2577 0519 91       		.byte	0x91
 2578 051a 77       		.sleb128 -9
 2579 051b 00       		.byte	0x0
 2580 051c 10       		.uleb128 0x10
 2581 051d 01       		.byte	0x1
 2582 051e 09010000 		.4byte	.LASF50
ARM GAS  C:\Users\Craig\AppData\Local\Temp\ccXI8V1u.s 			page 71


 2583 0522 01       		.byte	0x1
 2584 0523 7305     		.2byte	0x573
 2585 0525 01       		.byte	0x1
 2586 0526 6F000000 		.4byte	0x6f
 2587 052a 00000000 		.4byte	.LFB18
 2588 052e 34000000 		.4byte	.LFE18
 2589 0532 BA030000 		.4byte	.LLST18
 2590 0536 4A050000 		.4byte	0x54a
 2591 053a 13       		.uleb128 0x13
 2592 053b EE030000 		.4byte	.LASF51
 2593 053f 01       		.byte	0x1
 2594 0540 7505     		.2byte	0x575
 2595 0542 6F000000 		.4byte	0x6f
 2596 0546 02       		.byte	0x2
 2597 0547 91       		.byte	0x91
 2598 0548 77       		.sleb128 -9
 2599 0549 00       		.byte	0x0
 2600 054a 15       		.uleb128 0x15
 2601 054b 1F000000 		.4byte	.LASF52
 2602 054f 01       		.byte	0x1
 2603 0550 35       		.byte	0x35
 2604 0551 9A000000 		.4byte	0x9a
 2605 0555 01       		.byte	0x1
 2606 0556 01       		.byte	0x1
 2607 0557 15       		.uleb128 0x15
 2608 0558 62010000 		.4byte	.LASF53
 2609 055c 01       		.byte	0x1
 2610 055d 36       		.byte	0x36
 2611 055e 9A000000 		.4byte	0x9a
 2612 0562 01       		.byte	0x1
 2613 0563 01       		.byte	0x1
 2614 0564 15       		.uleb128 0x15
 2615 0565 D5030000 		.4byte	.LASF54
 2616 0569 01       		.byte	0x1
 2617 056a 37       		.byte	0x37
 2618 056b 9A000000 		.4byte	0x9a
 2619 056f 01       		.byte	0x1
 2620 0570 01       		.byte	0x1
 2621 0571 16       		.uleb128 0x16
 2622 0572 6F000000 		.4byte	0x6f
 2623 0576 7C050000 		.4byte	0x57c
 2624 057a 17       		.uleb128 0x17
 2625 057b 00       		.byte	0x0
 2626 057c 15       		.uleb128 0x15
 2627 057d 9E000000 		.4byte	.LASF55
 2628 0581 01       		.byte	0x1
 2629 0582 38       		.byte	0x38
 2630 0583 89050000 		.4byte	0x589
 2631 0587 01       		.byte	0x1
 2632 0588 01       		.byte	0x1
 2633 0589 05       		.uleb128 0x5
 2634 058a 71050000 		.4byte	0x571
 2635 058e 15       		.uleb128 0x15
 2636 058f 49020000 		.4byte	.LASF56
 2637 0593 01       		.byte	0x1
 2638 0594 3A       		.byte	0x3a
 2639 0595 9A000000 		.4byte	0x9a
ARM GAS  C:\Users\Craig\AppData\Local\Temp\ccXI8V1u.s 			page 72


 2640 0599 01       		.byte	0x1
 2641 059a 01       		.byte	0x1
 2642 059b 15       		.uleb128 0x15
 2643 059c DB010000 		.4byte	.LASF57
 2644 05a0 01       		.byte	0x1
 2645 05a1 3B       		.byte	0x3b
 2646 05a2 9A000000 		.4byte	0x9a
 2647 05a6 01       		.byte	0x1
 2648 05a7 01       		.byte	0x1
 2649 05a8 15       		.uleb128 0x15
 2650 05a9 19020000 		.4byte	.LASF58
 2651 05ad 01       		.byte	0x1
 2652 05ae 3C       		.byte	0x3c
 2653 05af 9A000000 		.4byte	0x9a
 2654 05b3 01       		.byte	0x1
 2655 05b4 01       		.byte	0x1
 2656 05b5 15       		.uleb128 0x15
 2657 05b6 44000000 		.4byte	.LASF59
 2658 05ba 01       		.byte	0x1
 2659 05bb 3D       		.byte	0x3d
 2660 05bc 9A000000 		.4byte	0x9a
 2661 05c0 01       		.byte	0x1
 2662 05c1 01       		.byte	0x1
 2663 05c2 15       		.uleb128 0x15
 2664 05c3 31000000 		.4byte	.LASF60
 2665 05c7 01       		.byte	0x1
 2666 05c8 3E       		.byte	0x3e
 2667 05c9 9A000000 		.4byte	0x9a
 2668 05cd 01       		.byte	0x1
 2669 05ce 01       		.byte	0x1
 2670 05cf 16       		.uleb128 0x16
 2671 05d0 2D010000 		.4byte	0x12d
 2672 05d4 DA050000 		.4byte	0x5da
 2673 05d8 17       		.uleb128 0x17
 2674 05d9 00       		.byte	0x0
 2675 05da 15       		.uleb128 0x15
 2676 05db 31020000 		.4byte	.LASF61
 2677 05df 01       		.byte	0x1
 2678 05e0 40       		.byte	0x40
 2679 05e1 E7050000 		.4byte	0x5e7
 2680 05e5 01       		.byte	0x1
 2681 05e6 01       		.byte	0x1
 2682 05e7 05       		.uleb128 0x5
 2683 05e8 CF050000 		.4byte	0x5cf
 2684 05ec 18       		.uleb128 0x18
 2685 05ed C6020000 		.4byte	.LASF62
 2686 05f1 01       		.byte	0x1
 2687 05f2 71       		.byte	0x71
 2688 05f3 6F000000 		.4byte	0x6f
 2689 05f7 01       		.byte	0x1
 2690 05f8 05       		.byte	0x5
 2691 05f9 03       		.byte	0x3
 2692 05fa 00000000 		.4byte	USB_initVar
 2693 05fe 00       		.byte	0x0
 2694              		.section	.debug_abbrev
 2695 0000 01       		.uleb128 0x1
 2696 0001 11       		.uleb128 0x11
ARM GAS  C:\Users\Craig\AppData\Local\Temp\ccXI8V1u.s 			page 73


 2697 0002 01       		.byte	0x1
 2698 0003 25       		.uleb128 0x25
 2699 0004 0E       		.uleb128 0xe
 2700 0005 13       		.uleb128 0x13
 2701 0006 0B       		.uleb128 0xb
 2702 0007 03       		.uleb128 0x3
 2703 0008 0E       		.uleb128 0xe
 2704 0009 1B       		.uleb128 0x1b
 2705 000a 0E       		.uleb128 0xe
 2706 000b 11       		.uleb128 0x11
 2707 000c 01       		.uleb128 0x1
 2708 000d 52       		.uleb128 0x52
 2709 000e 01       		.uleb128 0x1
 2710 000f 55       		.uleb128 0x55
 2711 0010 06       		.uleb128 0x6
 2712 0011 10       		.uleb128 0x10
 2713 0012 06       		.uleb128 0x6
 2714 0013 00       		.byte	0x0
 2715 0014 00       		.byte	0x0
 2716 0015 02       		.uleb128 0x2
 2717 0016 24       		.uleb128 0x24
 2718 0017 00       		.byte	0x0
 2719 0018 0B       		.uleb128 0xb
 2720 0019 0B       		.uleb128 0xb
 2721 001a 3E       		.uleb128 0x3e
 2722 001b 0B       		.uleb128 0xb
 2723 001c 03       		.uleb128 0x3
 2724 001d 0E       		.uleb128 0xe
 2725 001e 00       		.byte	0x0
 2726 001f 00       		.byte	0x0
 2727 0020 03       		.uleb128 0x3
 2728 0021 24       		.uleb128 0x24
 2729 0022 00       		.byte	0x0
 2730 0023 0B       		.uleb128 0xb
 2731 0024 0B       		.uleb128 0xb
 2732 0025 3E       		.uleb128 0x3e
 2733 0026 0B       		.uleb128 0xb
 2734 0027 03       		.uleb128 0x3
 2735 0028 08       		.uleb128 0x8
 2736 0029 00       		.byte	0x0
 2737 002a 00       		.byte	0x0
 2738 002b 04       		.uleb128 0x4
 2739 002c 16       		.uleb128 0x16
 2740 002d 00       		.byte	0x0
 2741 002e 03       		.uleb128 0x3
 2742 002f 0E       		.uleb128 0xe
 2743 0030 3A       		.uleb128 0x3a
 2744 0031 0B       		.uleb128 0xb
 2745 0032 3B       		.uleb128 0x3b
 2746 0033 0B       		.uleb128 0xb
 2747 0034 49       		.uleb128 0x49
 2748 0035 13       		.uleb128 0x13
 2749 0036 00       		.byte	0x0
 2750 0037 00       		.byte	0x0
 2751 0038 05       		.uleb128 0x5
 2752 0039 35       		.uleb128 0x35
 2753 003a 00       		.byte	0x0
ARM GAS  C:\Users\Craig\AppData\Local\Temp\ccXI8V1u.s 			page 74


 2754 003b 49       		.uleb128 0x49
 2755 003c 13       		.uleb128 0x13
 2756 003d 00       		.byte	0x0
 2757 003e 00       		.byte	0x0
 2758 003f 06       		.uleb128 0x6
 2759 0040 24       		.uleb128 0x24
 2760 0041 00       		.byte	0x0
 2761 0042 0B       		.uleb128 0xb
 2762 0043 0B       		.uleb128 0xb
 2763 0044 3E       		.uleb128 0x3e
 2764 0045 0B       		.uleb128 0xb
 2765 0046 00       		.byte	0x0
 2766 0047 00       		.byte	0x0
 2767 0048 07       		.uleb128 0x7
 2768 0049 13       		.uleb128 0x13
 2769 004a 01       		.byte	0x1
 2770 004b 03       		.uleb128 0x3
 2771 004c 0E       		.uleb128 0xe
 2772 004d 0B       		.uleb128 0xb
 2773 004e 0B       		.uleb128 0xb
 2774 004f 3A       		.uleb128 0x3a
 2775 0050 0B       		.uleb128 0xb
 2776 0051 3B       		.uleb128 0x3b
 2777 0052 0B       		.uleb128 0xb
 2778 0053 01       		.uleb128 0x1
 2779 0054 13       		.uleb128 0x13
 2780 0055 00       		.byte	0x0
 2781 0056 00       		.byte	0x0
 2782 0057 08       		.uleb128 0x8
 2783 0058 0D       		.uleb128 0xd
 2784 0059 00       		.byte	0x0
 2785 005a 03       		.uleb128 0x3
 2786 005b 0E       		.uleb128 0xe
 2787 005c 3A       		.uleb128 0x3a
 2788 005d 0B       		.uleb128 0xb
 2789 005e 3B       		.uleb128 0x3b
 2790 005f 0B       		.uleb128 0xb
 2791 0060 49       		.uleb128 0x49
 2792 0061 13       		.uleb128 0x13
 2793 0062 38       		.uleb128 0x38
 2794 0063 0A       		.uleb128 0xa
 2795 0064 00       		.byte	0x0
 2796 0065 00       		.byte	0x0
 2797 0066 09       		.uleb128 0x9
 2798 0067 2E       		.uleb128 0x2e
 2799 0068 01       		.byte	0x1
 2800 0069 3F       		.uleb128 0x3f
 2801 006a 0C       		.uleb128 0xc
 2802 006b 03       		.uleb128 0x3
 2803 006c 0E       		.uleb128 0xe
 2804 006d 3A       		.uleb128 0x3a
 2805 006e 0B       		.uleb128 0xb
 2806 006f 3B       		.uleb128 0x3b
 2807 0070 0B       		.uleb128 0xb
 2808 0071 27       		.uleb128 0x27
 2809 0072 0C       		.uleb128 0xc
 2810 0073 11       		.uleb128 0x11
ARM GAS  C:\Users\Craig\AppData\Local\Temp\ccXI8V1u.s 			page 75


 2811 0074 01       		.uleb128 0x1
 2812 0075 12       		.uleb128 0x12
 2813 0076 01       		.uleb128 0x1
 2814 0077 40       		.uleb128 0x40
 2815 0078 06       		.uleb128 0x6
 2816 0079 01       		.uleb128 0x1
 2817 007a 13       		.uleb128 0x13
 2818 007b 00       		.byte	0x0
 2819 007c 00       		.byte	0x0
 2820 007d 0A       		.uleb128 0xa
 2821 007e 05       		.uleb128 0x5
 2822 007f 00       		.byte	0x0
 2823 0080 03       		.uleb128 0x3
 2824 0081 0E       		.uleb128 0xe
 2825 0082 3A       		.uleb128 0x3a
 2826 0083 0B       		.uleb128 0xb
 2827 0084 3B       		.uleb128 0x3b
 2828 0085 0B       		.uleb128 0xb
 2829 0086 49       		.uleb128 0x49
 2830 0087 13       		.uleb128 0x13
 2831 0088 02       		.uleb128 0x2
 2832 0089 0A       		.uleb128 0xa
 2833 008a 00       		.byte	0x0
 2834 008b 00       		.byte	0x0
 2835 008c 0B       		.uleb128 0xb
 2836 008d 34       		.uleb128 0x34
 2837 008e 00       		.byte	0x0
 2838 008f 03       		.uleb128 0x3
 2839 0090 0E       		.uleb128 0xe
 2840 0091 3A       		.uleb128 0x3a
 2841 0092 0B       		.uleb128 0xb
 2842 0093 3B       		.uleb128 0x3b
 2843 0094 0B       		.uleb128 0xb
 2844 0095 49       		.uleb128 0x49
 2845 0096 13       		.uleb128 0x13
 2846 0097 02       		.uleb128 0x2
 2847 0098 0A       		.uleb128 0xa
 2848 0099 00       		.byte	0x0
 2849 009a 00       		.byte	0x0
 2850 009b 0C       		.uleb128 0xc
 2851 009c 2E       		.uleb128 0x2e
 2852 009d 01       		.byte	0x1
 2853 009e 3F       		.uleb128 0x3f
 2854 009f 0C       		.uleb128 0xc
 2855 00a0 03       		.uleb128 0x3
 2856 00a1 0E       		.uleb128 0xe
 2857 00a2 3A       		.uleb128 0x3a
 2858 00a3 0B       		.uleb128 0xb
 2859 00a4 3B       		.uleb128 0x3b
 2860 00a5 05       		.uleb128 0x5
 2861 00a6 27       		.uleb128 0x27
 2862 00a7 0C       		.uleb128 0xc
 2863 00a8 11       		.uleb128 0x11
 2864 00a9 01       		.uleb128 0x1
 2865 00aa 12       		.uleb128 0x12
 2866 00ab 01       		.uleb128 0x1
 2867 00ac 40       		.uleb128 0x40
ARM GAS  C:\Users\Craig\AppData\Local\Temp\ccXI8V1u.s 			page 76


 2868 00ad 06       		.uleb128 0x6
 2869 00ae 01       		.uleb128 0x1
 2870 00af 13       		.uleb128 0x13
 2871 00b0 00       		.byte	0x0
 2872 00b1 00       		.byte	0x0
 2873 00b2 0D       		.uleb128 0xd
 2874 00b3 05       		.uleb128 0x5
 2875 00b4 00       		.byte	0x0
 2876 00b5 03       		.uleb128 0x3
 2877 00b6 0E       		.uleb128 0xe
 2878 00b7 3A       		.uleb128 0x3a
 2879 00b8 0B       		.uleb128 0xb
 2880 00b9 3B       		.uleb128 0x3b
 2881 00ba 05       		.uleb128 0x5
 2882 00bb 49       		.uleb128 0x49
 2883 00bc 13       		.uleb128 0x13
 2884 00bd 02       		.uleb128 0x2
 2885 00be 0A       		.uleb128 0xa
 2886 00bf 00       		.byte	0x0
 2887 00c0 00       		.byte	0x0
 2888 00c1 0E       		.uleb128 0xe
 2889 00c2 2E       		.uleb128 0x2e
 2890 00c3 00       		.byte	0x0
 2891 00c4 3F       		.uleb128 0x3f
 2892 00c5 0C       		.uleb128 0xc
 2893 00c6 03       		.uleb128 0x3
 2894 00c7 0E       		.uleb128 0xe
 2895 00c8 3A       		.uleb128 0x3a
 2896 00c9 0B       		.uleb128 0xb
 2897 00ca 3B       		.uleb128 0x3b
 2898 00cb 05       		.uleb128 0x5
 2899 00cc 11       		.uleb128 0x11
 2900 00cd 01       		.uleb128 0x1
 2901 00ce 12       		.uleb128 0x12
 2902 00cf 01       		.uleb128 0x1
 2903 00d0 40       		.uleb128 0x40
 2904 00d1 06       		.uleb128 0x6
 2905 00d2 00       		.byte	0x0
 2906 00d3 00       		.byte	0x0
 2907 00d4 0F       		.uleb128 0xf
 2908 00d5 2E       		.uleb128 0x2e
 2909 00d6 00       		.byte	0x0
 2910 00d7 3F       		.uleb128 0x3f
 2911 00d8 0C       		.uleb128 0xc
 2912 00d9 03       		.uleb128 0x3
 2913 00da 0E       		.uleb128 0xe
 2914 00db 3A       		.uleb128 0x3a
 2915 00dc 0B       		.uleb128 0xb
 2916 00dd 3B       		.uleb128 0x3b
 2917 00de 05       		.uleb128 0x5
 2918 00df 27       		.uleb128 0x27
 2919 00e0 0C       		.uleb128 0xc
 2920 00e1 11       		.uleb128 0x11
 2921 00e2 01       		.uleb128 0x1
 2922 00e3 12       		.uleb128 0x12
 2923 00e4 01       		.uleb128 0x1
 2924 00e5 40       		.uleb128 0x40
ARM GAS  C:\Users\Craig\AppData\Local\Temp\ccXI8V1u.s 			page 77


 2925 00e6 06       		.uleb128 0x6
 2926 00e7 00       		.byte	0x0
 2927 00e8 00       		.byte	0x0
 2928 00e9 10       		.uleb128 0x10
 2929 00ea 2E       		.uleb128 0x2e
 2930 00eb 01       		.byte	0x1
 2931 00ec 3F       		.uleb128 0x3f
 2932 00ed 0C       		.uleb128 0xc
 2933 00ee 03       		.uleb128 0x3
 2934 00ef 0E       		.uleb128 0xe
 2935 00f0 3A       		.uleb128 0x3a
 2936 00f1 0B       		.uleb128 0xb
 2937 00f2 3B       		.uleb128 0x3b
 2938 00f3 05       		.uleb128 0x5
 2939 00f4 27       		.uleb128 0x27
 2940 00f5 0C       		.uleb128 0xc
 2941 00f6 49       		.uleb128 0x49
 2942 00f7 13       		.uleb128 0x13
 2943 00f8 11       		.uleb128 0x11
 2944 00f9 01       		.uleb128 0x1
 2945 00fa 12       		.uleb128 0x12
 2946 00fb 01       		.uleb128 0x1
 2947 00fc 40       		.uleb128 0x40
 2948 00fd 06       		.uleb128 0x6
 2949 00fe 01       		.uleb128 0x1
 2950 00ff 13       		.uleb128 0x13
 2951 0100 00       		.byte	0x0
 2952 0101 00       		.byte	0x0
 2953 0102 11       		.uleb128 0x11
 2954 0103 34       		.uleb128 0x34
 2955 0104 00       		.byte	0x0
 2956 0105 03       		.uleb128 0x3
 2957 0106 08       		.uleb128 0x8
 2958 0107 3A       		.uleb128 0x3a
 2959 0108 0B       		.uleb128 0xb
 2960 0109 3B       		.uleb128 0x3b
 2961 010a 05       		.uleb128 0x5
 2962 010b 49       		.uleb128 0x49
 2963 010c 13       		.uleb128 0x13
 2964 010d 02       		.uleb128 0x2
 2965 010e 0A       		.uleb128 0xa
 2966 010f 00       		.byte	0x0
 2967 0110 00       		.byte	0x0
 2968 0111 12       		.uleb128 0x12
 2969 0112 2E       		.uleb128 0x2e
 2970 0113 00       		.byte	0x0
 2971 0114 3F       		.uleb128 0x3f
 2972 0115 0C       		.uleb128 0xc
 2973 0116 03       		.uleb128 0x3
 2974 0117 0E       		.uleb128 0xe
 2975 0118 3A       		.uleb128 0x3a
 2976 0119 0B       		.uleb128 0xb
 2977 011a 3B       		.uleb128 0x3b
 2978 011b 05       		.uleb128 0x5
 2979 011c 27       		.uleb128 0x27
 2980 011d 0C       		.uleb128 0xc
 2981 011e 49       		.uleb128 0x49
ARM GAS  C:\Users\Craig\AppData\Local\Temp\ccXI8V1u.s 			page 78


 2982 011f 13       		.uleb128 0x13
 2983 0120 11       		.uleb128 0x11
 2984 0121 01       		.uleb128 0x1
 2985 0122 12       		.uleb128 0x12
 2986 0123 01       		.uleb128 0x1
 2987 0124 40       		.uleb128 0x40
 2988 0125 06       		.uleb128 0x6
 2989 0126 00       		.byte	0x0
 2990 0127 00       		.byte	0x0
 2991 0128 13       		.uleb128 0x13
 2992 0129 34       		.uleb128 0x34
 2993 012a 00       		.byte	0x0
 2994 012b 03       		.uleb128 0x3
 2995 012c 0E       		.uleb128 0xe
 2996 012d 3A       		.uleb128 0x3a
 2997 012e 0B       		.uleb128 0xb
 2998 012f 3B       		.uleb128 0x3b
 2999 0130 05       		.uleb128 0x5
 3000 0131 49       		.uleb128 0x49
 3001 0132 13       		.uleb128 0x13
 3002 0133 02       		.uleb128 0x2
 3003 0134 0A       		.uleb128 0xa
 3004 0135 00       		.byte	0x0
 3005 0136 00       		.byte	0x0
 3006 0137 14       		.uleb128 0x14
 3007 0138 0F       		.uleb128 0xf
 3008 0139 00       		.byte	0x0
 3009 013a 0B       		.uleb128 0xb
 3010 013b 0B       		.uleb128 0xb
 3011 013c 49       		.uleb128 0x49
 3012 013d 13       		.uleb128 0x13
 3013 013e 00       		.byte	0x0
 3014 013f 00       		.byte	0x0
 3015 0140 15       		.uleb128 0x15
 3016 0141 34       		.uleb128 0x34
 3017 0142 00       		.byte	0x0
 3018 0143 03       		.uleb128 0x3
 3019 0144 0E       		.uleb128 0xe
 3020 0145 3A       		.uleb128 0x3a
 3021 0146 0B       		.uleb128 0xb
 3022 0147 3B       		.uleb128 0x3b
 3023 0148 0B       		.uleb128 0xb
 3024 0149 49       		.uleb128 0x49
 3025 014a 13       		.uleb128 0x13
 3026 014b 3F       		.uleb128 0x3f
 3027 014c 0C       		.uleb128 0xc
 3028 014d 3C       		.uleb128 0x3c
 3029 014e 0C       		.uleb128 0xc
 3030 014f 00       		.byte	0x0
 3031 0150 00       		.byte	0x0
 3032 0151 16       		.uleb128 0x16
 3033 0152 01       		.uleb128 0x1
 3034 0153 01       		.byte	0x1
 3035 0154 49       		.uleb128 0x49
 3036 0155 13       		.uleb128 0x13
 3037 0156 01       		.uleb128 0x1
 3038 0157 13       		.uleb128 0x13
ARM GAS  C:\Users\Craig\AppData\Local\Temp\ccXI8V1u.s 			page 79


 3039 0158 00       		.byte	0x0
 3040 0159 00       		.byte	0x0
 3041 015a 17       		.uleb128 0x17
 3042 015b 21       		.uleb128 0x21
 3043 015c 00       		.byte	0x0
 3044 015d 00       		.byte	0x0
 3045 015e 00       		.byte	0x0
 3046 015f 18       		.uleb128 0x18
 3047 0160 34       		.uleb128 0x34
 3048 0161 00       		.byte	0x0
 3049 0162 03       		.uleb128 0x3
 3050 0163 0E       		.uleb128 0xe
 3051 0164 3A       		.uleb128 0x3a
 3052 0165 0B       		.uleb128 0xb
 3053 0166 3B       		.uleb128 0x3b
 3054 0167 0B       		.uleb128 0xb
 3055 0168 49       		.uleb128 0x49
 3056 0169 13       		.uleb128 0x13
 3057 016a 3F       		.uleb128 0x3f
 3058 016b 0C       		.uleb128 0xc
 3059 016c 02       		.uleb128 0x2
 3060 016d 0A       		.uleb128 0xa
 3061 016e 00       		.byte	0x0
 3062 016f 00       		.byte	0x0
 3063 0170 00       		.byte	0x0
 3064              		.section	.debug_pubnames,"",%progbits
 3065 0000 9E010000 		.4byte	0x19e
 3066 0004 0200     		.2byte	0x2
 3067 0006 00000000 		.4byte	.Ldebug_info0
 3068 000a FF050000 		.4byte	0x5ff
 3069 000e 38010000 		.4byte	0x138
 3070 0012 5553425F 		.ascii	"USB_Start\000"
 3070      53746172 
 3070      7400
 3071 001c 6E010000 		.4byte	0x16e
 3072 0020 5553425F 		.ascii	"USB_Init\000"
 3072      496E6974 
 3072      00
 3073 0029 96010000 		.4byte	0x196
 3074 002d 5553425F 		.ascii	"USB_InitComponent\000"
 3074      496E6974 
 3074      436F6D70 
 3074      6F6E656E 
 3074      7400
 3075 003f CF010000 		.4byte	0x1cf
 3076 0043 5553425F 		.ascii	"USB_ReInitComponent\000"
 3076      5265496E 
 3076      6974436F 
 3076      6D706F6E 
 3076      656E7400 
 3077 0057 E4010000 		.4byte	0x1e4
 3078 005b 5553425F 		.ascii	"USB_Stop\000"
 3078      53746F70 
 3078      00
 3079 0064 FA010000 		.4byte	0x1fa
 3080 0068 5553425F 		.ascii	"USB_CheckActivity\000"
 3080      43686563 
ARM GAS  C:\Users\Craig\AppData\Local\Temp\ccXI8V1u.s 			page 80


 3080      6B416374 
 3080      69766974 
 3080      7900
 3081 007a 26020000 		.4byte	0x226
 3082 007e 5553425F 		.ascii	"USB_GetConfiguration\000"
 3082      47657443 
 3082      6F6E6669 
 3082      67757261 
 3082      74696F6E 
 3083 0093 40020000 		.4byte	0x240
 3084 0097 5553425F 		.ascii	"USB_IsConfigurationChanged\000"
 3084      4973436F 
 3084      6E666967 
 3084      75726174 
 3084      696F6E43 
 3085 00b2 6E020000 		.4byte	0x26e
 3086 00b6 5553425F 		.ascii	"USB_GetInterfaceSetting\000"
 3086      47657449 
 3086      6E746572 
 3086      66616365 
 3086      53657474 
 3087 00ce 9C020000 		.4byte	0x29c
 3088 00d2 5553425F 		.ascii	"USB_GetEPState\000"
 3088      47657445 
 3088      50537461 
 3088      746500
 3089 00e1 CA020000 		.4byte	0x2ca
 3090 00e5 5553425F 		.ascii	"USB_GetEPCount\000"
 3090      47657445 
 3090      50436F75 
 3090      6E7400
 3091 00f4 15030000 		.4byte	0x315
 3092 00f8 5553425F 		.ascii	"USB_LoadInEP\000"
 3092      4C6F6164 
 3092      496E4550 
 3092      00
 3093 0105 8B030000 		.4byte	0x38b
 3094 0109 5553425F 		.ascii	"USB_ReadOutEP\000"
 3094      52656164 
 3094      4F757445 
 3094      5000
 3095 0117 0E040000 		.4byte	0x40e
 3096 011b 5553425F 		.ascii	"USB_EnableOutEP\000"
 3096      456E6162 
 3096      6C654F75 
 3096      74455000 
 3097 012b 46040000 		.4byte	0x446
 3098 012f 5553425F 		.ascii	"USB_DisableOutEP\000"
 3098      44697361 
 3098      626C654F 
 3098      75744550 
 3098      00
 3099 0140 7E040000 		.4byte	0x47e
 3100 0144 5553425F 		.ascii	"USB_Force\000"
 3100      466F7263 
 3100      6500
 3101 014e A8040000 		.4byte	0x4a8
ARM GAS  C:\Users\Craig\AppData\Local\Temp\ccXI8V1u.s 			page 81


 3102 0152 5553425F 		.ascii	"USB_GetEPAckState\000"
 3102      47657445 
 3102      5041636B 
 3102      53746174 
 3102      6500
 3103 0164 F2040000 		.4byte	0x4f2
 3104 0168 5553425F 		.ascii	"USB_SetPowerStatus\000"
 3104      53657450 
 3104      6F776572 
 3104      53746174 
 3104      757300
 3105 017b 1C050000 		.4byte	0x51c
 3106 017f 5553425F 		.ascii	"USB_RWUEnabled\000"
 3106      52575545 
 3106      6E61626C 
 3106      656400
 3107 018e EC050000 		.4byte	0x5ec
 3108 0192 5553425F 		.ascii	"USB_initVar\000"
 3108      696E6974 
 3108      56617200 
 3109 019e 00000000 		.4byte	0x0
 3110              		.section	.debug_aranges,"",%progbits
 3111 0000 AC000000 		.4byte	0xac
 3112 0004 0200     		.2byte	0x2
 3113 0006 00000000 		.4byte	.Ldebug_info0
 3114 000a 04       		.byte	0x4
 3115 000b 00       		.byte	0x0
 3116 000c 0000     		.2byte	0x0
 3117 000e 0000     		.2byte	0x0
 3118 0010 00000000 		.4byte	.LFB0
 3119 0014 42000000 		.4byte	.LFE0-.LFB0
 3120 0018 00000000 		.4byte	.LFB1
 3121 001c 10020000 		.4byte	.LFE1-.LFB1
 3122 0020 00000000 		.4byte	.LFB2
 3123 0024 28010000 		.4byte	.LFE2-.LFB2
 3124 0028 00000000 		.4byte	.LFB3
 3125 002c 88000000 		.4byte	.LFE3-.LFB3
 3126 0030 00000000 		.4byte	.LFB4
 3127 0034 FE000000 		.4byte	.LFE4-.LFB4
 3128 0038 00000000 		.4byte	.LFB5
 3129 003c 3A000000 		.4byte	.LFE5-.LFB5
 3130 0040 00000000 		.4byte	.LFB6
 3131 0044 18000000 		.4byte	.LFE6-.LFB6
 3132 0048 00000000 		.4byte	.LFB7
 3133 004c 44000000 		.4byte	.LFE7-.LFB7
 3134 0050 00000000 		.4byte	.LFB8
 3135 0054 24000000 		.4byte	.LFE8-.LFB8
 3136 0058 00000000 		.4byte	.LFB9
 3137 005c 32000000 		.4byte	.LFE9-.LFB9
 3138 0060 00000000 		.4byte	.LFB10
 3139 0064 6E000000 		.4byte	.LFE10-.LFB10
 3140 0068 00000000 		.4byte	.LFB11
 3141 006c 56010000 		.4byte	.LFE11-.LFB11
 3142 0070 00000000 		.4byte	.LFB12
 3143 0074 98000000 		.4byte	.LFE12-.LFB12
 3144 0078 00000000 		.4byte	.LFB13
 3145 007c 76000000 		.4byte	.LFE13-.LFB13
ARM GAS  C:\Users\Craig\AppData\Local\Temp\ccXI8V1u.s 			page 82


 3146 0080 00000000 		.4byte	.LFB14
 3147 0084 40000000 		.4byte	.LFE14-.LFB14
 3148 0088 00000000 		.4byte	.LFB15
 3149 008c 20000000 		.4byte	.LFE15-.LFB15
 3150 0090 00000000 		.4byte	.LFB16
 3151 0094 4E000000 		.4byte	.LFE16-.LFB16
 3152 0098 00000000 		.4byte	.LFB17
 3153 009c 54000000 		.4byte	.LFE17-.LFB17
 3154 00a0 00000000 		.4byte	.LFB18
 3155 00a4 34000000 		.4byte	.LFE18-.LFB18
 3156 00a8 00000000 		.4byte	0x0
 3157 00ac 00000000 		.4byte	0x0
 3158              		.section	.debug_ranges,"",%progbits
 3159              	.Ldebug_ranges0:
 3160 0000 00000000 		.4byte	.Ltext0
 3161 0004 00000000 		.4byte	.Letext0
 3162 0008 00000000 		.4byte	.LFB0
 3163 000c 42000000 		.4byte	.LFE0
 3164 0010 00000000 		.4byte	.LFB1
 3165 0014 10020000 		.4byte	.LFE1
 3166 0018 00000000 		.4byte	.LFB2
 3167 001c 28010000 		.4byte	.LFE2
 3168 0020 00000000 		.4byte	.LFB3
 3169 0024 88000000 		.4byte	.LFE3
 3170 0028 00000000 		.4byte	.LFB4
 3171 002c FE000000 		.4byte	.LFE4
 3172 0030 00000000 		.4byte	.LFB5
 3173 0034 3A000000 		.4byte	.LFE5
 3174 0038 00000000 		.4byte	.LFB6
 3175 003c 18000000 		.4byte	.LFE6
 3176 0040 00000000 		.4byte	.LFB7
 3177 0044 44000000 		.4byte	.LFE7
 3178 0048 00000000 		.4byte	.LFB8
 3179 004c 24000000 		.4byte	.LFE8
 3180 0050 00000000 		.4byte	.LFB9
 3181 0054 32000000 		.4byte	.LFE9
 3182 0058 00000000 		.4byte	.LFB10
 3183 005c 6E000000 		.4byte	.LFE10
 3184 0060 00000000 		.4byte	.LFB11
 3185 0064 56010000 		.4byte	.LFE11
 3186 0068 00000000 		.4byte	.LFB12
 3187 006c 98000000 		.4byte	.LFE12
 3188 0070 00000000 		.4byte	.LFB13
 3189 0074 76000000 		.4byte	.LFE13
 3190 0078 00000000 		.4byte	.LFB14
 3191 007c 40000000 		.4byte	.LFE14
 3192 0080 00000000 		.4byte	.LFB15
 3193 0084 20000000 		.4byte	.LFE15
 3194 0088 00000000 		.4byte	.LFB16
 3195 008c 4E000000 		.4byte	.LFE16
 3196 0090 00000000 		.4byte	.LFB17
 3197 0094 54000000 		.4byte	.LFE17
 3198 0098 00000000 		.4byte	.LFB18
 3199 009c 34000000 		.4byte	.LFE18
 3200 00a0 00000000 		.4byte	0x0
 3201 00a4 00000000 		.4byte	0x0
 3202              		.section	.debug_str,"MS",%progbits,1
ARM GAS  C:\Users\Craig\AppData\Local\Temp\ccXI8V1u.s 			page 83


 3203              	.LASF37:
 3204 0000 636F756E 		.ascii	"count\000"
 3204      7400
 3205              	.LASF10:
 3206 0006 75696E74 		.ascii	"uint16\000"
 3206      313600
 3207              	.LASF28:
 3208 000d 5553425F 		.ascii	"USB_InitComponent\000"
 3208      496E6974 
 3208      436F6D70 
 3208      6F6E656E 
 3208      7400
 3209              	.LASF52:
 3210 001f 5553425F 		.ascii	"USB_configuration\000"
 3210      636F6E66 
 3210      69677572 
 3210      6174696F 
 3210      6E00
 3211              	.LASF60:
 3212 0031 5553425F 		.ascii	"USB_lastPacketSize\000"
 3212      6C617374 
 3212      5061636B 
 3212      65745369 
 3212      7A6500
 3213              	.LASF59:
 3214 0044 5553425F 		.ascii	"USB_transferState\000"
 3214      7472616E 
 3214      73666572 
 3214      53746174 
 3214      6500
 3215              	.LASF66:
 3216 0056 5F555342 		.ascii	"_USB_EpCtlBlock\000"
 3216      5F457043 
 3216      746C426C 
 3216      6F636B00 
 3217              	.LASF7:
 3218 0066 6C6F6E67 		.ascii	"long long unsigned int\000"
 3218      206C6F6E 
 3218      6720756E 
 3218      7369676E 
 3218      65642069 
 3219              	.LASF18:
 3220 007d 61646472 		.ascii	"addr\000"
 3220      00
 3221              	.LASF63:
 3222 0082 474E5520 		.ascii	"GNU C 4.4.1\000"
 3222      4320342E 
 3222      342E3100 
 3223              	.LASF33:
 3224 008e 696E7465 		.ascii	"interfaceNumber\000"
 3224      72666163 
 3224      654E756D 
 3224      62657200 
 3225              	.LASF55:
 3226 009e 5553425F 		.ascii	"USB_interfaceSetting\000"
 3226      696E7465 
 3226      72666163 
ARM GAS  C:\Users\Craig\AppData\Local\Temp\ccXI8V1u.s 			page 84


 3226      65536574 
 3226      74696E67 
 3227              	.LASF23:
 3228 00b3 545F5553 		.ascii	"T_USB_EP_CTL_BLOCK\000"
 3228      425F4550 
 3228      5F43544C 
 3228      5F424C4F 
 3228      434B00
 3229              	.LASF35:
 3230 00c6 65704E75 		.ascii	"epNumber\000"
 3230      6D626572 
 3230      00
 3231              	.LASF68:
 3232 00cf 5553425F 		.ascii	"USB_Stop\000"
 3232      53746F70 
 3232      00
 3233              	.LASF24:
 3234 00d8 64657669 		.ascii	"device\000"
 3234      636500
 3235              	.LASF6:
 3236 00df 6C6F6E67 		.ascii	"long long int\000"
 3236      206C6F6E 
 3236      6720696E 
 3236      7400
 3237              	.LASF0:
 3238 00ed 7369676E 		.ascii	"signed char\000"
 3238      65642063 
 3238      68617200 
 3239              	.LASF43:
 3240 00f9 5553425F 		.ascii	"USB_EnableOutEP\000"
 3240      456E6162 
 3240      6C654F75 
 3240      74455000 
 3241              	.LASF50:
 3242 0109 5553425F 		.ascii	"USB_RWUEnabled\000"
 3242      52575545 
 3242      6E61626C 
 3242      656400
 3243              	.LASF4:
 3244 0118 6C6F6E67 		.ascii	"long int\000"
 3244      20696E74 
 3244      00
 3245              	.LASF9:
 3246 0121 75696E74 		.ascii	"uint8\000"
 3246      3800
 3247              	.LASF17:
 3248 0127 6570546F 		.ascii	"epToggle\000"
 3248      67676C65 
 3248      00
 3249              	.LASF12:
 3250 0130 646F7562 		.ascii	"double\000"
 3250      6C6500
 3251              	.LASF49:
 3252 0137 706F7765 		.ascii	"powerStatus\000"
 3252      72537461 
 3252      74757300 
 3253              	.LASF64:
ARM GAS  C:\Users\Craig\AppData\Local\Temp\ccXI8V1u.s 			page 85


 3254 0143 2E5C4765 		.ascii	".\\Generated_Source\\PSoC5\\USB.c\000"
 3254      6E657261 
 3254      7465645F 
 3254      536F7572 
 3254      63655C50 
 3255              	.LASF53:
 3256 0162 5553425F 		.ascii	"USB_interfaceNumber\000"
 3256      696E7465 
 3256      72666163 
 3256      654E756D 
 3256      62657200 
 3257              	.LASF39:
 3258 0176 70446174 		.ascii	"pData\000"
 3258      6100
 3259              	.LASF19:
 3260 017c 65704D6F 		.ascii	"epMode\000"
 3260      646500
 3261              	.LASF47:
 3262 0183 5553425F 		.ascii	"USB_GetEPAckState\000"
 3262      47657445 
 3262      5041636B 
 3262      53746174 
 3262      6500
 3263              	.LASF8:
 3264 0195 756E7369 		.ascii	"unsigned int\000"
 3264      676E6564 
 3264      20696E74 
 3264      00
 3265              	.LASF5:
 3266 01a2 6C6F6E67 		.ascii	"long unsigned int\000"
 3266      20756E73 
 3266      69676E65 
 3266      6420696E 
 3266      7400
 3267              	.LASF3:
 3268 01b4 73686F72 		.ascii	"short unsigned int\000"
 3268      7420756E 
 3268      7369676E 
 3268      65642069 
 3268      6E7400
 3269              	.LASF26:
 3270 01c7 5553425F 		.ascii	"USB_Start\000"
 3270      53746172 
 3270      7400
 3271              	.LASF22:
 3272 01d1 696E7465 		.ascii	"interface\000"
 3272      72666163 
 3272      6500
 3273              	.LASF57:
 3274 01db 5553425F 		.ascii	"USB_deviceStatus\000"
 3274      64657669 
 3274      63655374 
 3274      61747573 
 3274      00
 3275              	.LASF16:
 3276 01ec 68774570 		.ascii	"hwEpState\000"
 3276      53746174 
ARM GAS  C:\Users\Craig\AppData\Local\Temp\ccXI8V1u.s 			page 86


 3276      6500
 3277              	.LASF14:
 3278 01f6 61747472 		.ascii	"attrib\000"
 3278      696200
 3279              	.LASF27:
 3280 01fd 5553425F 		.ascii	"USB_Init\000"
 3280      496E6974 
 3280      00
 3281              	.LASF48:
 3282 0206 5553425F 		.ascii	"USB_SetPowerStatus\000"
 3282      53657450 
 3282      6F776572 
 3282      53746174 
 3282      757300
 3283              	.LASF58:
 3284 0219 5553425F 		.ascii	"USB_device\000"
 3284      64657669 
 3284      636500
 3285              	.LASF38:
 3286 0224 5553425F 		.ascii	"USB_LoadInEP\000"
 3286      4C6F6164 
 3286      496E4550 
 3286      00
 3287              	.LASF61:
 3288 0231 5553425F 		.ascii	"USB_EP\000"
 3288      455000
 3289              	.LASF11:
 3290 0238 666C6F61 		.ascii	"float\000"
 3290      7400
 3291              	.LASF15:
 3292 023e 61706945 		.ascii	"apiEpState\000"
 3292      70537461 
 3292      746500
 3293              	.LASF56:
 3294 0249 5553425F 		.ascii	"USB_deviceAddress\000"
 3294      64657669 
 3294      63654164 
 3294      64726573 
 3294      7300
 3295              	.LASF69:
 3296 025b 5553425F 		.ascii	"USB_GetConfiguration\000"
 3296      47657443 
 3296      6F6E6669 
 3296      67757261 
 3296      74696F6E 
 3297              	.LASF32:
 3298 0270 5553425F 		.ascii	"USB_GetInterfaceSetting\000"
 3298      47657449 
 3298      6E746572 
 3298      66616365 
 3298      53657474 
 3299              	.LASF30:
 3300 0288 5553425F 		.ascii	"USB_CheckActivity\000"
 3300      43686563 
 3300      6B416374 
 3300      69766974 
 3300      7900
ARM GAS  C:\Users\Craig\AppData\Local\Temp\ccXI8V1u.s 			page 87


 3301              	.LASF1:
 3302 029a 756E7369 		.ascii	"unsigned char\000"
 3302      676E6564 
 3302      20636861 
 3302      7200
 3303              	.LASF2:
 3304 02a8 73686F72 		.ascii	"short int\000"
 3304      7420696E 
 3304      7400
 3305              	.LASF67:
 3306 02b2 5553425F 		.ascii	"USB_ReInitComponent\000"
 3306      5265496E 
 3306      6974436F 
 3306      6D706F6E 
 3306      656E7400 
 3307              	.LASF62:
 3308 02c6 5553425F 		.ascii	"USB_initVar\000"
 3308      696E6974 
 3308      56617200 
 3309              	.LASF41:
 3310 02d2 5553425F 		.ascii	"USB_ReadOutEP\000"
 3310      52656164 
 3310      4F757445 
 3310      5000
 3311              	.LASF31:
 3312 02e0 5553425F 		.ascii	"USB_IsConfigurationChanged\000"
 3312      4973436F 
 3312      6E666967 
 3312      75726174 
 3312      696F6E43 
 3313              	.LASF45:
 3314 02fb 5553425F 		.ascii	"USB_Force\000"
 3314      466F7263 
 3314      6500
 3315              	.LASF46:
 3316 0305 62537461 		.ascii	"bState\000"
 3316      746500
 3317              	.LASF40:
 3318 030c 6C656E67 		.ascii	"length\000"
 3318      746800
 3319              	.LASF13:
 3320 0313 63686172 		.ascii	"char\000"
 3320      00
 3321              	.LASF25:
 3322 0318 6D6F6465 		.ascii	"mode\000"
 3322      00
 3323              	.LASF21:
 3324 031d 62756666 		.ascii	"bufferSize\000"
 3324      65725369 
 3324      7A6500
 3325              	.LASF20:
 3326 0328 62756666 		.ascii	"buffOffset\000"
 3326      4F666673 
 3326      657400
 3327              	.LASF34:
 3328 0333 5553425F 		.ascii	"USB_GetEPState\000"
 3328      47657445 
ARM GAS  C:\Users\Craig\AppData\Local\Temp\ccXI8V1u.s 			page 88


 3328      50537461 
 3328      746500
 3329              	.LASF44:
 3330 0342 5553425F 		.ascii	"USB_DisableOutEP\000"
 3330      44697361 
 3330      626C654F 
 3330      75744550 
 3330      00
 3331              	.LASF29:
 3332 0353 656E6162 		.ascii	"enableInterrupts\000"
 3332      6C65496E 
 3332      74657272 
 3332      75707473 
 3332      00
 3333              	.LASF42:
 3334 0364 78666572 		.ascii	"xferCount\000"
 3334      436F756E 
 3334      7400
 3335              	.LASF65:
 3336 036e 433A5C55 		.ascii	"C:\\Users\\Craig\\Dropbox\\6.115\\Final Project\\PS"
 3336      73657273 
 3336      5C437261 
 3336      69675C44 
 3336      726F7062 
 3337 039b 6F432057 		.ascii	"oC Work\\BitBanging.cydsn\\USB Example.cydsn\000"
 3337      6F726B5C 
 3337      42697442 
 3337      616E6769 
 3337      6E672E63 
 3338              	.LASF36:
 3339 03c6 5553425F 		.ascii	"USB_GetEPCount\000"
 3339      47657445 
 3339      50436F75 
 3339      6E7400
 3340              	.LASF54:
 3341 03d5 5553425F 		.ascii	"USB_configurationChanged\000"
 3341      636F6E66 
 3341      69677572 
 3341      6174696F 
 3341      6E436861 
 3342              	.LASF51:
 3343 03ee 72657375 		.ascii	"result\000"
 3343      6C7400
 3344              		.ident	"GCC: (Sourcery G++ Lite 2010q1-188) 4.4.1"
